
app_Appli.elf:     file format elf32-littlearm

Sections:
Idx Name          Size      VMA       LMA       File off  Algn
  0 .isr_vector   000002b0  70000000  70000000  00001000  2**0
                  CONTENTS, ALLOC, LOAD, READONLY, DATA
  1 .text         000064d8  700002b0  700002b0  000012b0  2**4
                  CONTENTS, ALLOC, LOAD, READONLY, CODE
  2 .rodata       000002e4  70006788  70006788  00007788  2**2
                  CONTENTS, ALLOC, LOAD, READONLY, DATA
  3 .ARM.extab    00000000  70006a6c  70006a6c  00008010  2**0
                  CONTENTS, READONLY
  4 .ARM          00000008  70006a6c  70006a6c  00007a6c  2**2
                  CONTENTS, ALLOC, LOAD, READONLY, DATA
  5 .preinit_array 00000000  70006a74  70006a74  00008010  2**0
                  CONTENTS, ALLOC, LOAD, DATA
  6 .init_array   00000004  70006a74  70006a74  00007a74  2**2
                  CONTENTS, ALLOC, LOAD, READONLY, DATA
  7 .fini_array   00000004  70006a78  70006a78  00007a78  2**2
                  CONTENTS, ALLOC, LOAD, READONLY, DATA
  8 .data         00000010  24000000  70006a7c  00008000  2**2
                  CONTENTS, ALLOC, LOAD, DATA
  9 .bss          000089dc  24000010  70006a8c  00008010  2**2
                  ALLOC
 10 ._user_heap_stack 00002004  240089ec  70006a8c  000089ec  2**0
                  ALLOC
 11 .ARM.attributes 0000002e  00000000  00000000  00008010  2**0
                  CONTENTS, READONLY
 12 .ITCM_Section 00000000  00000000  00000000  0000803e  2**0
                  CONTENTS
 13 .RW_EXTRAM_Section 00000000  90000000  90000000  0000803e  2**0
                  CONTENTS
 14 .debug_info   000159b1  00000000  00000000  0000803e  2**0
                  CONTENTS, READONLY, DEBUGGING, OCTETS
 15 .debug_abbrev 00003b46  00000000  00000000  0001d9ef  2**0
                  CONTENTS, READONLY, DEBUGGING, OCTETS
 16 .debug_aranges 00000fb0  00000000  00000000  00021538  2**3
                  CONTENTS, READONLY, DEBUGGING, OCTETS
 17 .debug_rnglists 00000af4  00000000  00000000  000224e8  2**0
                  CONTENTS, READONLY, DEBUGGING, OCTETS
 18 .debug_macro  00032fca  00000000  00000000  00022fdc  2**0
                  CONTENTS, READONLY, DEBUGGING, OCTETS
 19 .debug_line   0001b95d  00000000  00000000  00055fa6  2**0
                  CONTENTS, READONLY, DEBUGGING, OCTETS
 20 .debug_str    00136688  00000000  00000000  00071903  2**0
                  CONTENTS, READONLY, DEBUGGING, OCTETS
 21 .comment      00000043  00000000  00000000  001a7f8b  2**0
                  CONTENTS, READONLY
 22 .debug_frame  00003474  00000000  00000000  001a7fd0  2**2
                  CONTENTS, READONLY, DEBUGGING, OCTETS
 23 .debug_line_str 00000180  00000000  00000000  001ab444  2**0
                  CONTENTS, READONLY, DEBUGGING, OCTETS

Disassembly of section .text:

700002b0 <__do_global_dtors_aux>:
700002b0:	b510      	push	{r4, lr}
700002b2:	4c05      	ldr	r4, [pc, #20]	@ (700002c8 <__do_global_dtors_aux+0x18>)
700002b4:	7823      	ldrb	r3, [r4, #0]
700002b6:	b933      	cbnz	r3, 700002c6 <__do_global_dtors_aux+0x16>
700002b8:	4b04      	ldr	r3, [pc, #16]	@ (700002cc <__do_global_dtors_aux+0x1c>)
700002ba:	b113      	cbz	r3, 700002c2 <__do_global_dtors_aux+0x12>
700002bc:	4804      	ldr	r0, [pc, #16]	@ (700002d0 <__do_global_dtors_aux+0x20>)
700002be:	f3af 8000 	nop.w
700002c2:	2301      	movs	r3, #1
700002c4:	7023      	strb	r3, [r4, #0]
700002c6:	bd10      	pop	{r4, pc}
700002c8:	24000010 	.word	0x24000010
700002cc:	00000000 	.word	0x00000000
700002d0:	70006770 	.word	0x70006770

700002d4 <frame_dummy>:
700002d4:	b508      	push	{r3, lr}
700002d6:	4b03      	ldr	r3, [pc, #12]	@ (700002e4 <frame_dummy+0x10>)
700002d8:	b11b      	cbz	r3, 700002e2 <frame_dummy+0xe>
700002da:	4903      	ldr	r1, [pc, #12]	@ (700002e8 <frame_dummy+0x14>)
700002dc:	4803      	ldr	r0, [pc, #12]	@ (700002ec <frame_dummy+0x18>)
700002de:	f3af 8000 	nop.w
700002e2:	bd08      	pop	{r3, pc}
700002e4:	00000000 	.word	0x00000000
700002e8:	24000014 	.word	0x24000014
700002ec:	70006770 	.word	0x70006770

700002f0 <_tx_initialize_low_level>:
    .thumb_func
_tx_initialize_low_level:

    /* Disable interrupts during ThreadX initialization.  */

   CPSID   i
700002f0:	b672      	cpsid	i
    STR     r1, [r0]                                // Setup first unused memory pointer
#endif

    /* Setup Vector Table Offset Register.  */

    MOV     r0, #0xE000E000                         // Build address of NVIC registers
700002f2:	f04f 20e0 	mov.w	r0, #3758153728	@ 0xe000e000
    LDR     r1, =g_pfnVectors                       // Pickup address of vector table
700002f6:	4919      	ldr	r1, [pc, #100]	@ (7000035c <__tx_DBGHandler+0x4>)
    STR     r1, [r0, #0xD08]                        // Set vector table address
700002f8:	f8c0 1d08 	str.w	r1, [r0, #3336]	@ 0xd08

    /* Set system stack pointer from vector value.  */

    LDR     r0, =_tx_thread_system_stack_ptr        // Build address of system stack pointer
700002fc:	4818      	ldr	r0, [pc, #96]	@ (70000360 <__tx_DBGHandler+0x8>)
    LDR     r1, =g_pfnVectors                       // Pickup address of vector table
700002fe:	4917      	ldr	r1, [pc, #92]	@ (7000035c <__tx_DBGHandler+0x4>)
    LDR     r1, [r1]                                // Pickup reset stack pointer
70000300:	6809      	ldr	r1, [r1, #0]
    STR     r1, [r0]                                // Save system stack pointer
70000302:	6001      	str	r1, [r0, #0]

    /* Enable the cycle count register.  */

   LDR     r0, =0xE0001000                           // Build address of DWT register
70000304:	4817      	ldr	r0, [pc, #92]	@ (70000364 <__tx_DBGHandler+0xc>)
    LDR     r1, [r0]                                 // Pickup the current value
70000306:	6801      	ldr	r1, [r0, #0]
    ORR     r1, r1, #1                               // Set the CYCCNTENA bit
70000308:	f041 0101 	orr.w	r1, r1, #1
    STR     r1, [r0]                                 // Enable the cycle count register
7000030c:	6001      	str	r1, [r0, #0]

     /* Configure SysTick for 100Hz clock, or 16384 cycles if no reference.  */

    MOV     r0, #0xE000E000                          // Build address of NVIC registers
7000030e:	f04f 20e0 	mov.w	r0, #3758153728	@ 0xe000e000
    LDR     r1, =SYSTICK_CYCLES
70000312:	4915      	ldr	r1, [pc, #84]	@ (70000368 <__tx_DBGHandler+0x10>)
    STR     r1, [r0, #0x14]                          // Setup SysTick Reload Value
70000314:	6141      	str	r1, [r0, #20]
    MOV     r1, #0x7                                 // Build SysTick Control Enable Value
70000316:	f04f 0107 	mov.w	r1, #7
    STR     r1, [r0, #0x10]                          // Setup SysTick Control
7000031a:	6101      	str	r1, [r0, #16]

     /* Configure handler priorities.  */

    LDR     r1, =0x00000000                          // Rsrv, UsgF, BusF, MemM
7000031c:	f04f 0100 	mov.w	r1, #0
    STR     r1, [r0, #0xD18]                         // Setup System Handlers 4-7 Priority Registers
70000320:	f8c0 1d18 	str.w	r1, [r0, #3352]	@ 0xd18

    LDR     r1, =0xFF000000                          // SVCl, Rsrv, Rsrv, Rsrv
70000324:	f04f 417f 	mov.w	r1, #4278190080	@ 0xff000000
    STR     r1, [r0, #0xD1C]                         // Setup System Handlers 8-11 Priority Registers
70000328:	f8c0 1d1c 	str.w	r1, [r0, #3356]	@ 0xd1c
                                                     // Note: SVC must be lowest priority, which is 0xFF

    LDR     r1, =0x40FF0000                          // SysT, PnSV, Rsrv, DbgM
7000032c:	490f      	ldr	r1, [pc, #60]	@ (7000036c <__tx_DBGHandler+0x14>)
    STR     r1, [r0, #0xD20]                         // Setup System Handlers 12-15 Priority Registers
7000032e:	f8c0 1d20 	str.w	r1, [r0, #3360]	@ 0xd20
                                                     // Note: PnSV must be lowest priority, which is 0xFF

     /* Return to caller.  */

    BX      lr
70000332:	4770      	bx	lr

70000334 <__tx_BadHandler>:
/* Define shells for each of the unused vectors.  */

    .global  __tx_BadHandler
    .thumb_func
__tx_BadHandler:
    B       __tx_BadHandler
70000334:	f7ff bffe 	b.w	70000334 <__tx_BadHandler>

70000338 <__tx_HardfaultHandler>:
/* added to catch the hardfault */

    .global  __tx_HardfaultHandler
    .thumb_func
__tx_HardfaultHandler:
    B       __tx_HardfaultHandler
70000338:	f7ff bffe 	b.w	70000338 <__tx_HardfaultHandler>

7000033c <__tx_SVCallHandler>:
/* added to catch the SVC */

    .global  __tx_SVCallHandler
    .thumb_func
__tx_SVCallHandler:
    B       __tx_SVCallHandler
7000033c:	f7ff bffe 	b.w	7000033c <__tx_SVCallHandler>

70000340 <__tx_IntHandler>:
    .global  __tx_IntHandler
    .thumb_func
__tx_IntHandler:
// VOID InterruptHandler (VOID)
// {
    PUSH    {r0, lr}
70000340:	b501      	push	{r0, lr}
    /* Do interrupt handler work here */
    /* BL <your C Function>.... */
#ifdef TX_ENABLE_EXECUTION_CHANGE_NOTIFY
    BL      _tx_execution_isr_exit              // Call the ISR exit function
#endif
    POP     {r0, lr}
70000342:	e8bd 4001 	ldmia.w	sp!, {r0, lr}
    BX      LR
70000346:	4770      	bx	lr

70000348 <SysTick_Handler>:
__tx_SysTickHandler:
    .thumb_func
SysTick_Handler:
// VOID SysTick_Handler (VOID)
// {
    PUSH    {r0, lr}
70000348:	b501      	push	{r0, lr}
#ifdef TX_ENABLE_EXECUTION_CHANGE_NOTIFY
    BL      _tx_execution_isr_enter             // Call the ISR enter function
#endif
    BL      _tx_timer_interrupt
7000034a:	f000 f8c9 	bl	700004e0 <_tx_timer_interrupt>
#ifdef TX_ENABLE_EXECUTION_CHANGE_NOTIFY
    BL      _tx_execution_isr_exit              // Call the ISR exit function
#endif
    POP     {r0, lr}
7000034e:	e8bd 4001 	ldmia.w	sp!, {r0, lr}
    BX      lr
70000352:	4770      	bx	lr

70000354 <__tx_NMIHandler>:

/* NMI, DBG handlers */
    .global  __tx_NMIHandler
    .thumb_func
__tx_NMIHandler:
    B       __tx_NMIHandler
70000354:	f7ff bffe 	b.w	70000354 <__tx_NMIHandler>

70000358 <__tx_DBGHandler>:

    .global  __tx_DBGHandler
    .thumb_func
__tx_DBGHandler:
    B       __tx_DBGHandler
70000358:	f7ff bffe 	b.w	70000358 <__tx_DBGHandler>
    LDR     r1, =g_pfnVectors                       // Pickup address of vector table
7000035c:	70000000 	.word	0x70000000
    LDR     r0, =_tx_thread_system_stack_ptr        // Build address of system stack pointer
70000360:	240083dc 	.word	0x240083dc
   LDR     r0, =0xE0001000                           // Build address of DWT register
70000364:	e0001000 	.word	0xe0001000
    LDR     r1, =SYSTICK_CYCLES
70000368:	000927bf 	.word	0x000927bf
    LDR     r1, =0x40FF0000                          // SysT, PnSV, Rsrv, DbgM
7000036c:	40ff0000 	.word	0x40ff0000

70000370 <_tx_thread_interrupt_disable>:
    .global  _tx_thread_interrupt_disable
    .thumb_func
_tx_thread_interrupt_disable:
    /* Return current interrupt lockout posture.  */
#ifdef TX_PORT_USE_BASEPRI
    MRS     r0, BASEPRI
70000370:	f3ef 8011 	mrs	r0, BASEPRI
    LDR     r1, =TX_PORT_BASEPRI
70000374:	f04f 0100 	mov.w	r1, #0
    MSR     BASEPRI, r1
70000378:	f381 8811 	msr	BASEPRI, r1
#else
    MRS     r0, PRIMASK
    CPSID   i
#endif
    BX      lr
7000037c:	4770      	bx	lr
7000037e:	bf00      	nop

70000380 <_tx_thread_interrupt_restore>:
    .global  _tx_thread_interrupt_restore
    .thumb_func
_tx_thread_interrupt_restore:
    /* Restore previous interrupt lockout posture.  */
#ifdef TX_PORT_USE_BASEPRI
    MSR     BASEPRI, r0
70000380:	f380 8811 	msr	BASEPRI, r0
#else
    MSR     PRIMASK, r0
#endif
    BX      lr
70000384:	4770      	bx	lr
70000386:	bf00      	nop
	...

70000390 <_tx_thread_schedule>:
       from the first schedule request. Subsequent scheduling occurs
       from the PendSV handling routine below. */

    /* Clear the preempt-disable flag to enable rescheduling after initialization on Cortex-M targets.  */

    MOV     r0, #0                                  // Build value for TX_FALSE
70000390:	f04f 0000 	mov.w	r0, #0
    LDR     r2, =_tx_thread_preempt_disable         // Build address of preempt disable flag
70000394:	4a32      	ldr	r2, [pc, #200]	@ (70000460 <tx_thread_fpu_disable+0x4>)
    STR     r0, [r2, #0]                            // Clear preempt disable flag
70000396:	6010      	str	r0, [r2, #0]

    /* Clear CONTROL.FPCA bit so VFP registers aren't unnecessarily stacked.  */

#ifdef __ARM_FP
    MRS     r0, CONTROL                             // Pickup current CONTROL register
70000398:	f3ef 8014 	mrs	r0, CONTROL
    BIC     r0, r0, #4                              // Clear the FPCA bit
7000039c:	f020 0004 	bic.w	r0, r0, #4
    MSR     CONTROL, r0                             // Setup new CONTROL register
700003a0:	f380 8814 	msr	CONTROL, r0
#endif

    /* Enable interrupts */
    CPSIE   i
700003a4:	b662      	cpsie	i

    /* Enter the scheduler for the first time.  */

    MOV     r0, #0x10000000                         // Load PENDSVSET bit
700003a6:	f04f 5080 	mov.w	r0, #268435456	@ 0x10000000
    MOV     r1, #0xE000E000                         // Load NVIC base
700003aa:	f04f 21e0 	mov.w	r1, #3758153728	@ 0xe000e000
    STR     r0, [r1, #0xD04]                        // Set PENDSVBIT in ICSR
700003ae:	f8c1 0d04 	str.w	r0, [r1, #3332]	@ 0xd04
    DSB                                             // Complete all memory accesses
700003b2:	f3bf 8f4f 	dsb	sy
    ISB                                             // Flush pipeline
700003b6:	f3bf 8f6f 	isb	sy

700003ba <__tx_wait_here>:

    /* Wait here for the PendSV to take place.  */

__tx_wait_here:
    B       __tx_wait_here                          // Wait for the PendSV to happen
700003ba:	e7fe      	b.n	700003ba <__tx_wait_here>

700003bc <PendSV_Handler>:
#else
    CPSIE   i                                       // Enable interrupts
#endif  /* TX_PORT_USE_BASEPRI */
#endif  /* EXECUTION PROFILE */

    LDR     r0, =_tx_thread_current_ptr             // Build current thread pointer address
700003bc:	4829      	ldr	r0, [pc, #164]	@ (70000464 <tx_thread_fpu_disable+0x8>)
    LDR     r2, =_tx_thread_execute_ptr             // Build execute thread pointer address
700003be:	4a2a      	ldr	r2, [pc, #168]	@ (70000468 <tx_thread_fpu_disable+0xc>)
    MOV     r3, #0                                  // Build NULL value
700003c0:	f04f 0300 	mov.w	r3, #0
    LDR     r1, [r0]                                // Pickup current thread pointer
700003c4:	6801      	ldr	r1, [r0, #0]

    /* Determine if there is a current thread to finish preserving.  */

    CBZ     r1, __tx_ts_new                         // If NULL, skip preservation
700003c6:	b191      	cbz	r1, 700003ee <__tx_ts_new>

    /* Recover PSP and preserve current thread context.  */

    STR     r3, [r0]                                // Set _tx_thread_current_ptr to NULL
700003c8:	6003      	str	r3, [r0, #0]
    MRS     r12, PSP                                // Pickup PSP pointer (thread's stack pointer)
700003ca:	f3ef 8c09 	mrs	ip, PSP
    STMDB   r12!, {r4-r11}                          // Save its remaining registers
700003ce:	e92c 0ff0 	stmdb	ip!, {r4, r5, r6, r7, r8, r9, sl, fp}
#ifdef __ARM_FP
    TST     LR, #0x10                               // Determine if the VFP extended frame is present
700003d2:	f01e 0f10 	tst.w	lr, #16
    BNE     _skip_vfp_save
700003d6:	d101      	bne.n	700003dc <_skip_vfp_save>
    VSTMDB  r12!,{s16-s31}                          // Yes, save additional VFP registers
700003d8:	ed2c 8a10 	vstmdb	ip!, {s16-s31}

700003dc <_skip_vfp_save>:
_skip_vfp_save:
#endif
    LDR     r4, =_tx_timer_time_slice               // Build address of time-slice variable
700003dc:	4c23      	ldr	r4, [pc, #140]	@ (7000046c <tx_thread_fpu_disable+0x10>)
    STMDB   r12!, {LR}                              // Save LR on the stack
700003de:	f84c ed04 	str.w	lr, [ip, #-4]!

    /* Determine if time-slice is active. If it isn't, skip time handling processing.  */

    LDR     r5, [r4]                                // Pickup current time-slice
700003e2:	6825      	ldr	r5, [r4, #0]
    STR     r12, [r1, #8]                           // Save the thread stack pointer
700003e4:	f8c1 c008 	str.w	ip, [r1, #8]
    CBZ     r5, __tx_ts_new                         // If not active, skip processing
700003e8:	b10d      	cbz	r5, 700003ee <__tx_ts_new>

    /* Time-slice is active, save the current thread's time-slice and clear the global time-slice variable.  */

    STR     r5, [r1, #24]                           // Save current time-slice
700003ea:	618d      	str	r5, [r1, #24]

    /* Clear the global time-slice.  */

    STR     r3, [r4]                                // Clear time-slice
700003ec:	6023      	str	r3, [r4, #0]

700003ee <__tx_ts_new>:
__tx_ts_new:

    /* Now we are looking for a new thread to execute!  */

#ifdef TX_PORT_USE_BASEPRI
    LDR     r1, =TX_PORT_BASEPRI                    // Mask interrupt priorities =< TX_PORT_BASEPRI
700003ee:	f04f 0100 	mov.w	r1, #0
    MSR     BASEPRI, r1
700003f2:	f381 8811 	msr	BASEPRI, r1
#else
    CPSID   i                                       // Disable interrupts
#endif
    LDR     r1, [r2]                                // Is there another thread ready to execute?
700003f6:	6811      	ldr	r1, [r2, #0]
    CBZ     r1, __tx_ts_wait                        // No, skip to the wait processing
700003f8:	b1c9      	cbz	r1, 7000042e <__tx_ts_wait>

    /* Yes, another thread is ready for else, make the current thread the new thread.  */

    STR     r1, [r0]                                // Setup the current thread pointer to the new thread
700003fa:	6001      	str	r1, [r0, #0]
#ifdef TX_PORT_USE_BASEPRI
    MOV     r4, #0                                  // Disable BASEPRI masking (enable interrupts)
700003fc:	f04f 0400 	mov.w	r4, #0
    MSR     BASEPRI, r4
70000400:	f384 8811 	msr	BASEPRI, r4

70000404 <__tx_ts_restore>:
#endif

    /* Increment the thread run count.  */

__tx_ts_restore:
    LDR     r7, [r1, #4]                            // Pickup the current thread run count
70000404:	684f      	ldr	r7, [r1, #4]
    LDR     r4, =_tx_timer_time_slice               // Build address of time-slice variable
70000406:	4c19      	ldr	r4, [pc, #100]	@ (7000046c <tx_thread_fpu_disable+0x10>)
    LDR     r5, [r1, #24]                           // Pickup thread's current time-slice
70000408:	698d      	ldr	r5, [r1, #24]
    ADD     r7, r7, #1                              // Increment the thread run count
7000040a:	f107 0701 	add.w	r7, r7, #1
    STR     r7, [r1, #4]                            // Store the new run count
7000040e:	604f      	str	r7, [r1, #4]

    /* Setup global time-slice with thread's current time-slice.  */

    STR     r5, [r4]                                // Setup global time-slice
70000410:	6025      	str	r5, [r4, #0]
    POP     {r0, r1}                                // Recover r0 and r1
#endif

    /* Restore the thread context and PSP.  */

    LDR     r12, [r1, #8]                           // Pickup thread's stack pointer
70000412:	f8d1 c008 	ldr.w	ip, [r1, #8]
    LDMIA   r12!, {LR}                              // Pickup LR
70000416:	f85c eb04 	ldr.w	lr, [ip], #4
#ifdef __ARM_FP
    TST     LR, #0x10                               // Determine if the VFP extended frame is present
7000041a:	f01e 0f10 	tst.w	lr, #16
    BNE     _skip_vfp_restore                       // If not, skip VFP restore
7000041e:	d101      	bne.n	70000424 <_skip_vfp_restore>
    VLDMIA  r12!, {s16-s31}                         // Yes, restore additional VFP registers
70000420:	ecbc 8a10 	vldmia	ip!, {s16-s31}

70000424 <_skip_vfp_restore>:
_skip_vfp_restore:
#endif
    LDMIA   r12!, {r4-r11}                          // Recover thread's registers
70000424:	e8bc 0ff0 	ldmia.w	ip!, {r4, r5, r6, r7, r8, r9, sl, fp}
    MSR     PSP, r12                                // Setup the thread's stack pointer
70000428:	f38c 8809 	msr	PSP, ip

    /* Return to thread.  */

    BX      lr                                      // Return to thread!
7000042c:	4770      	bx	lr

7000042e <__tx_ts_wait>:
       system will simply be idle until an interrupt occurs that makes a thread ready. Note that interrupts
       are disabled to allow use of WFI for waiting for a thread to arrive.  */

__tx_ts_wait:
#ifdef TX_PORT_USE_BASEPRI
    LDR     r1, =TX_PORT_BASEPRI                    // Mask interrupt priorities =< TX_PORT_BASEPRI
7000042e:	f04f 0100 	mov.w	r1, #0
    MSR     BASEPRI, r1
70000432:	f381 8811 	msr	BASEPRI, r1
#else
    CPSID   i                                       // Disable interrupts
#endif
    LDR     r1, [r2]                                // Pickup the next thread to execute pointer
70000436:	6811      	ldr	r1, [r2, #0]
    STR     r1, [r0]                                // Store it in the current pointer
70000438:	6001      	str	r1, [r0, #0]
    CBNZ    r1, __tx_ts_ready                       // If non-NULL, a new thread is ready!
7000043a:	b921      	cbnz	r1, 70000446 <__tx_ts_ready>
    BL      tx_low_power_exit                       // Exit low power mode
    POP     {r0-r3}
#endif

#ifdef TX_PORT_USE_BASEPRI
    MOV     r4, #0                                  // Disable BASEPRI masking (enable interrupts)
7000043c:	f04f 0400 	mov.w	r4, #0
    MSR     BASEPRI, r4
70000440:	f384 8811 	msr	BASEPRI, r4
#else
    CPSIE   i                                       // Enable interrupts
#endif
    B       __tx_ts_wait                            // Loop to continue waiting
70000444:	e7f3      	b.n	7000042e <__tx_ts_wait>

70000446 <__tx_ts_ready>:

    /* At this point, we have a new thread ready to go. Clear any newly pended PendSV - since we are
       already in the handler!  */

__tx_ts_ready:
    MOV     r7, #0x08000000                         // Build clear PendSV value
70000446:	f04f 6700 	mov.w	r7, #134217728	@ 0x8000000
    MOV     r8, #0xE000E000                         // Build base NVIC address
7000044a:	f04f 28e0 	mov.w	r8, #3758153728	@ 0xe000e000
    STR     r7, [r8, #0xD04]                        // Clear any PendSV
7000044e:	f8c8 7d04 	str.w	r7, [r8, #3332]	@ 0xd04

    /* Re-enable interrupts and restore new thread.  */
#ifdef TX_PORT_USE_BASEPRI
    MOV     r4, #0                                  // Disable BASEPRI masking (enable interrupts)
70000452:	f04f 0400 	mov.w	r4, #0
    MSR     BASEPRI, r4
70000456:	f384 8811 	msr	BASEPRI, r4
#else
    CPSIE   i                                       // Enable interrupts
#endif
    B       __tx_ts_restore                         // Restore the thread
7000045a:	e7d3      	b.n	70000404 <__tx_ts_restore>

7000045c <tx_thread_fpu_disable>:
tx_thread_fpu_disable:

    /* Automatic VPF logic is supported, this function is present only for
       backward compatibility purposes and therefore simply returns.  */

    BX      LR                                      // Return to caller
7000045c:	4770      	bx	lr
7000045e:	0000      	.short	0x0000
    LDR     r2, =_tx_thread_preempt_disable         // Build address of preempt disable flag
70000460:	24008478 	.word	0x24008478
    LDR     r0, =_tx_thread_current_ptr             // Build current thread pointer address
70000464:	240083e0 	.word	0x240083e0
    LDR     r2, =_tx_thread_execute_ptr             // Build execute thread pointer address
70000468:	240083e4 	.word	0x240083e4
    LDR     r4, =_tx_timer_time_slice               // Build address of time-slice variable
7000046c:	240089e8 	.word	0x240089e8

70000470 <_tx_thread_stack_build>:
                       pc          Initial value for pc
                       xPSR        Initial value for xPSR

    Stack Bottom: (higher memory address)  */

    LDR     r2, [r0, #16]                           // Pickup end of stack area
70000470:	6902      	ldr	r2, [r0, #16]
    BIC     r2, r2, #0x7                            // Align frame for 8-byte alignment
70000472:	f022 0207 	bic.w	r2, r2, #7
    SUB     r2, r2, #68                             // Subtract frame size
70000476:	f1a2 0244 	sub.w	r2, r2, #68	@ 0x44
    LDR     r3, =0xFFFFFFFD                         // Build initial LR value
7000047a:	f06f 0302 	mvn.w	r3, #2
    STR     r3, [r2, #0]                            // Save on the stack
7000047e:	6013      	str	r3, [r2, #0]

    /* Actually build the stack frame.  */

    MOV     r3, #0                                  // Build initial register value
70000480:	f04f 0300 	mov.w	r3, #0
    STR     r3, [r2, #4]                            // Store initial r4
70000484:	6053      	str	r3, [r2, #4]
    STR     r3, [r2, #8]                            // Store initial r5
70000486:	6093      	str	r3, [r2, #8]
    STR     r3, [r2, #12]                           // Store initial r6
70000488:	60d3      	str	r3, [r2, #12]
    STR     r3, [r2, #16]                           // Store initial r7
7000048a:	6113      	str	r3, [r2, #16]
    STR     r3, [r2, #20]                           // Store initial r8
7000048c:	6153      	str	r3, [r2, #20]
    STR     r3, [r2, #24]                           // Store initial r9
7000048e:	6193      	str	r3, [r2, #24]
    STR     r3, [r2, #28]                           // Store initial r10
70000490:	61d3      	str	r3, [r2, #28]
    STR     r3, [r2, #32]                           // Store initial r11
70000492:	6213      	str	r3, [r2, #32]

    /* Hardware stack follows.  */

    STR     r3, [r2, #36]                           // Store initial r0
70000494:	6253      	str	r3, [r2, #36]	@ 0x24
    STR     r3, [r2, #40]                           // Store initial r1
70000496:	6293      	str	r3, [r2, #40]	@ 0x28
    STR     r3, [r2, #44]                           // Store initial r2
70000498:	62d3      	str	r3, [r2, #44]	@ 0x2c
    STR     r3, [r2, #48]                           // Store initial r3
7000049a:	6313      	str	r3, [r2, #48]	@ 0x30
    STR     r3, [r2, #52]                           // Store initial r12
7000049c:	6353      	str	r3, [r2, #52]	@ 0x34
    MOV     r3, #0xFFFFFFFF                         // Poison EXC_RETURN value
7000049e:	f04f 33ff 	mov.w	r3, #4294967295
    STR     r3, [r2, #56]                           // Store initial lr
700004a2:	6393      	str	r3, [r2, #56]	@ 0x38
    STR     r1, [r2, #60]                           // Store initial pc
700004a4:	63d1      	str	r1, [r2, #60]	@ 0x3c
    MOV     r3, #0x01000000                         // Only T-bit need be set
700004a6:	f04f 7380 	mov.w	r3, #16777216	@ 0x1000000
    STR     r3, [r2, #64]                           // Store initial xPSR
700004aa:	6413      	str	r3, [r2, #64]	@ 0x40

    /* Setup stack pointer.  */
    // thread_ptr -> tx_thread_stack_ptr =  r2;

    STR     r2, [r0, #8]                            // Save stack pointer in thread's
700004ac:	6082      	str	r2, [r0, #8]
                                                    //   control block
    BX      lr                                      // Return to caller
700004ae:	4770      	bx	lr

700004b0 <_tx_thread_system_return>:
_tx_thread_system_return:

    /* Return to real scheduler via PendSV. Note that this routine is often
       replaced with in-line assembly in tx_port.h to improved performance.  */

    MOV     r0, #0x10000000                         // Load PENDSVSET bit
700004b0:	f04f 5080 	mov.w	r0, #268435456	@ 0x10000000
    MOV     r1, #0xE000E000                         // Load NVIC base
700004b4:	f04f 21e0 	mov.w	r1, #3758153728	@ 0xe000e000
    STR     r0, [r1, #0xD04]                        // Set PENDSVBIT in ICSR
700004b8:	f8c1 0d04 	str.w	r0, [r1, #3332]	@ 0xd04
    MRS     r0, IPSR                                // Pickup IPSR
700004bc:	f3ef 8005 	mrs	r0, IPSR
    CMP     r0, #0                                  // Is it a thread returning?
700004c0:	2800      	cmp	r0, #0
    BNE     _isr_context                            // If ISR, skip interrupt enable
700004c2:	d107      	bne.n	700004d4 <_isr_context>
#ifdef TX_PORT_USE_BASEPRI
    MRS     r1, BASEPRI                             // Thread context returning, pickup BASEPRI
700004c4:	f3ef 8111 	mrs	r1, BASEPRI
    MOV     r0, #0
700004c8:	f04f 0000 	mov.w	r0, #0
    MSR     BASEPRI, r0                             // Enable interrupts
700004cc:	f380 8811 	msr	BASEPRI, r0
    MSR     BASEPRI, r1                             // Restore original interrupt posture
700004d0:	f381 8811 	msr	BASEPRI, r1

700004d4 <_isr_context>:
    MRS     r1, PRIMASK                             // Thread context returning, pickup PRIMASK
    CPSIE   i                                       // Enable interrupts
    MSR     PRIMASK, r1                             // Restore original interrupt posture
#endif
_isr_context:
    BX      lr                                      // Return to caller
700004d4:	4770      	bx	lr
700004d6:	bf00      	nop
	...

700004e0 <_tx_timer_interrupt>:
       for use.  */

    /* Increment the system clock.  */
    // _tx_timer_system_clock++;

    LDR     r1, =_tx_timer_system_clock             // Pickup address of system clock
700004e0:	4922      	ldr	r1, [pc, #136]	@ (7000056c <__tx_timer_nothing_expired+0x6>)
    LDR     r0, [r1, #0]                            // Pickup system clock
700004e2:	6808      	ldr	r0, [r1, #0]
    ADD     r0, r0, #1                              // Increment system clock
700004e4:	f100 0001 	add.w	r0, r0, #1
    STR     r0, [r1, #0]                            // Store new system clock
700004e8:	6008      	str	r0, [r1, #0]

    /* Test for time-slice expiration.  */
    // if (_tx_timer_time_slice)
    // {

    LDR     r3, =_tx_timer_time_slice               // Pickup address of time-slice
700004ea:	4b21      	ldr	r3, [pc, #132]	@ (70000570 <__tx_timer_nothing_expired+0xa>)
    LDR     r2, [r3, #0]                            // Pickup time-slice
700004ec:	681a      	ldr	r2, [r3, #0]
    CBZ     r2, __tx_timer_no_time_slice            // Is it non-active?
700004ee:	b13a      	cbz	r2, 70000500 <__tx_timer_no_time_slice>
                                                    // Yes, skip time-slice processing

       /* Decrement the time_slice.  */
       // _tx_timer_time_slice--;

    SUB     r2, r2, #1                              // Decrement the time-slice
700004f0:	f1a2 0201 	sub.w	r2, r2, #1
    STR     r2, [r3, #0]                            // Store new time-slice value
700004f4:	601a      	str	r2, [r3, #0]

       /* Check for expiration.  */
       // if (__tx_timer_time_slice == 0)

    CBNZ    r2, __tx_timer_no_time_slice            // Has it expired?
700004f6:	b91a      	cbnz	r2, 70000500 <__tx_timer_no_time_slice>
                                                    // No, skip expiration processing

       /* Set the time-slice expired flag.  */
       // _tx_timer_expired_time_slice =  TX_TRUE;

    LDR     r3, =_tx_timer_expired_time_slice       // Pickup address of expired flag
700004f8:	4b1e      	ldr	r3, [pc, #120]	@ (70000574 <__tx_timer_nothing_expired+0xe>)
    MOV     r0, #1                                  // Build expired value
700004fa:	f04f 0001 	mov.w	r0, #1
    STR     r0, [r3, #0]                            // Set time-slice expiration flag
700004fe:	6018      	str	r0, [r3, #0]

70000500 <__tx_timer_no_time_slice>:

    /* Test for timer expiration.  */
    // if (*_tx_timer_current_ptr)
    // {

    LDR     r1, =_tx_timer_current_ptr              // Pickup current timer pointer address
70000500:	491d      	ldr	r1, [pc, #116]	@ (70000578 <__tx_timer_nothing_expired+0x12>)
    LDR     r0, [r1, #0]                            // Pickup current timer
70000502:	6808      	ldr	r0, [r1, #0]
    LDR     r2, [r0, #0]                            // Pickup timer list entry
70000504:	6802      	ldr	r2, [r0, #0]
    CBZ     r2, __tx_timer_no_timer                 // Is there anything in the list?
70000506:	b122      	cbz	r2, 70000512 <__tx_timer_no_timer>
                                                    // No, just increment the timer

        /* Set expiration flag.  */
        // _tx_timer_expired =  TX_TRUE;

    LDR     r3, =_tx_timer_expired                  // Pickup expiration flag address
70000508:	4b1c      	ldr	r3, [pc, #112]	@ (7000057c <__tx_timer_nothing_expired+0x16>)
    MOV     r2, #1                                  // Build expired value
7000050a:	f04f 0201 	mov.w	r2, #1
    STR     r2, [r3, #0]                            // Set expired flag
7000050e:	601a      	str	r2, [r3, #0]
    B       __tx_timer_done                         // Finished timer processing
70000510:	e008      	b.n	70000524 <__tx_timer_done>

70000512 <__tx_timer_no_timer>:
__tx_timer_no_timer:

        /* No timer expired, increment the timer pointer.  */
        // _tx_timer_current_ptr++;

    ADD     r0, r0, #4                              // Move to next timer
70000512:	f100 0004 	add.w	r0, r0, #4

        /* Check for wrap-around.  */
        // if (_tx_timer_current_ptr == _tx_timer_list_end)

    LDR     r3, =_tx_timer_list_end                 // Pickup addr of timer list end
70000516:	4b1a      	ldr	r3, [pc, #104]	@ (70000580 <__tx_timer_nothing_expired+0x1a>)
    LDR     r2, [r3, #0]                            // Pickup list end
70000518:	681a      	ldr	r2, [r3, #0]
    CMP     r0, r2                                  // Are we at list end?
7000051a:	4290      	cmp	r0, r2
    BNE     __tx_timer_skip_wrap                    // No, skip wrap-around logic
7000051c:	d101      	bne.n	70000522 <__tx_timer_skip_wrap>

            /* Wrap to beginning of list.  */
            // _tx_timer_current_ptr =  _tx_timer_list_start;

    LDR     r3, =_tx_timer_list_start               // Pickup addr of timer list start
7000051e:	4b19      	ldr	r3, [pc, #100]	@ (70000584 <__tx_timer_nothing_expired+0x1e>)
    LDR     r0, [r3, #0]                            // Set current pointer to list start
70000520:	6818      	ldr	r0, [r3, #0]

70000522 <__tx_timer_skip_wrap>:

__tx_timer_skip_wrap:

    STR     r0, [r1, #0]                            // Store new current timer pointer
70000522:	6008      	str	r0, [r1, #0]

70000524 <__tx_timer_done>:

    /* See if anything has expired.  */
    // if ((_tx_timer_expired_time_slice) || (_tx_timer_expired))
    // {

    LDR     r3, =_tx_timer_expired_time_slice       // Pickup addr of expired flag
70000524:	4b13      	ldr	r3, [pc, #76]	@ (70000574 <__tx_timer_nothing_expired+0xe>)
    LDR     r2, [r3, #0]                            // Pickup time-slice expired flag
70000526:	681a      	ldr	r2, [r3, #0]
    CBNZ    r2, __tx_something_expired              // Did a time-slice expire?
70000528:	b912      	cbnz	r2, 70000530 <__tx_something_expired>
                                                    // If non-zero, time-slice expired
    LDR     r1, =_tx_timer_expired                  // Pickup addr of other expired flag
7000052a:	4914      	ldr	r1, [pc, #80]	@ (7000057c <__tx_timer_nothing_expired+0x16>)
    LDR     r0, [r1, #0]                            // Pickup timer expired flag
7000052c:	6808      	ldr	r0, [r1, #0]
    CBZ     r0, __tx_timer_nothing_expired          // Did a timer expire?
7000052e:	b1d0      	cbz	r0, 70000566 <__tx_timer_nothing_expired>

70000530 <__tx_something_expired>:
                                                    // No, nothing expired

__tx_something_expired:

    STMDB   sp!, {r0, lr}                           // Save the lr register on the stack
70000530:	e92d 4001 	stmdb	sp!, {r0, lr}

    /* Did a timer expire?  */
    // if (_tx_timer_expired)
    // {

    LDR     r1, =_tx_timer_expired                  // Pickup addr of expired flag
70000534:	4911      	ldr	r1, [pc, #68]	@ (7000057c <__tx_timer_nothing_expired+0x16>)
    LDR     r0, [r1, #0]                            // Pickup timer expired flag
70000536:	6808      	ldr	r0, [r1, #0]
    CBZ     r0, __tx_timer_dont_activate            // Check for timer expiration
70000538:	b108      	cbz	r0, 7000053e <__tx_timer_dont_activate>
                                                    // If not set, skip timer activation

        /* Process timer expiration.  */
        // _tx_timer_expiration_process();

    BL      _tx_timer_expiration_process            // Call the timer expiration handling routine
7000053a:	f005 fd75 	bl	70006028 <_tx_timer_expiration_process>

7000053e <__tx_timer_dont_activate>:

    /* Did time slice expire?  */
    // if (_tx_timer_expired_time_slice)
    // {

    LDR     r3, =_tx_timer_expired_time_slice       // Pickup addr of time-slice expired
7000053e:	4b0d      	ldr	r3, [pc, #52]	@ (70000574 <__tx_timer_nothing_expired+0xe>)
    LDR     r2, [r3, #0]                            // Pickup the actual flag
70000540:	681a      	ldr	r2, [r3, #0]
    CBZ     r2, __tx_timer_not_ts_expiration        // See if the flag is set
70000542:	b172      	cbz	r2, 70000562 <__tx_timer_not_ts_expiration>
                                                    // No, skip time-slice processing

        /* Time slice interrupted thread.  */
        // _tx_thread_time_slice();

    BL      _tx_thread_time_slice                   // Call time-slice processing
70000544:	f005 fc5e 	bl	70005e04 <_tx_thread_time_slice>
    LDR     r0, =_tx_thread_preempt_disable         // Build address of preempt disable flag
70000548:	480f      	ldr	r0, [pc, #60]	@ (70000588 <__tx_timer_nothing_expired+0x22>)
    LDR     r1, [r0]                                // Is the preempt disable flag set?
7000054a:	6801      	ldr	r1, [r0, #0]
    CBNZ    r1, __tx_timer_skip_time_slice          // Yes, skip the PendSV logic
7000054c:	b949      	cbnz	r1, 70000562 <__tx_timer_not_ts_expiration>
    LDR     r0, =_tx_thread_current_ptr             // Build current thread pointer address
7000054e:	480f      	ldr	r0, [pc, #60]	@ (7000058c <__tx_timer_nothing_expired+0x26>)
    LDR     r1, [r0]                                // Pickup the current thread pointer
70000550:	6801      	ldr	r1, [r0, #0]
    LDR     r2, =_tx_thread_execute_ptr             // Build execute thread pointer address
70000552:	4a0f      	ldr	r2, [pc, #60]	@ (70000590 <__tx_timer_nothing_expired+0x2a>)
    LDR     r3, [r2]                                // Pickup the execute thread pointer
70000554:	6813      	ldr	r3, [r2, #0]
    LDR     r0, =0xE000ED04                         // Build address of control register
70000556:	480f      	ldr	r0, [pc, #60]	@ (70000594 <__tx_timer_nothing_expired+0x2e>)
    LDR     r2, =0x10000000                         // Build value for PendSV bit
70000558:	f04f 5280 	mov.w	r2, #268435456	@ 0x10000000
    CMP     r1, r3                                  // Are they the same?
7000055c:	4299      	cmp	r1, r3
    BEQ     __tx_timer_skip_time_slice              // If the same, there was no time-slice performed
7000055e:	d000      	beq.n	70000562 <__tx_timer_not_ts_expiration>
    STR     r2, [r0]                                // Not the same, issue the PendSV for preemption
70000560:	6002      	str	r2, [r0, #0]

70000562 <__tx_timer_not_ts_expiration>:

    // }

__tx_timer_not_ts_expiration:

    LDMIA   sp!, {r0, lr}                           // Recover lr register (r0 is just there for
70000562:	e8bd 4001 	ldmia.w	sp!, {r0, lr}

70000566 <__tx_timer_nothing_expired>:

    // }

__tx_timer_nothing_expired:

    DSB                                             // Complete all memory access
70000566:	f3bf 8f4f 	dsb	sy
    BX      lr                                      // Return to caller
7000056a:	4770      	bx	lr
    LDR     r1, =_tx_timer_system_clock             // Pickup address of system clock
7000056c:	24008488 	.word	0x24008488
    LDR     r3, =_tx_timer_time_slice               // Pickup address of time-slice
70000570:	240089e8 	.word	0x240089e8
    LDR     r3, =_tx_timer_expired_time_slice       // Pickup address of expired flag
70000574:	2400848c 	.word	0x2400848c
    LDR     r1, =_tx_timer_current_ptr              // Pickup current timer pointer address
70000578:	24008518 	.word	0x24008518
    LDR     r3, =_tx_timer_expired                  // Pickup expiration flag address
7000057c:	2400851c 	.word	0x2400851c
    LDR     r3, =_tx_timer_list_end                 // Pickup addr of timer list end
70000580:	24008514 	.word	0x24008514
    LDR     r3, =_tx_timer_list_start               // Pickup addr of timer list start
70000584:	24008510 	.word	0x24008510
    LDR     r0, =_tx_thread_preempt_disable         // Build address of preempt disable flag
70000588:	24008478 	.word	0x24008478
    LDR     r0, =_tx_thread_current_ptr             // Build current thread pointer address
7000058c:	240083e0 	.word	0x240083e0
    LDR     r2, =_tx_thread_execute_ptr             // Build execute thread pointer address
70000590:	240083e4 	.word	0x240083e4
    LDR     r0, =0xE000ED04                         // Build address of control register
70000594:	e000ed04 	.word	0xe000ed04

70000598 <__aeabi_uldivmod>:
70000598:	b953      	cbnz	r3, 700005b0 <__aeabi_uldivmod+0x18>
7000059a:	b94a      	cbnz	r2, 700005b0 <__aeabi_uldivmod+0x18>
7000059c:	2900      	cmp	r1, #0
7000059e:	bf08      	it	eq
700005a0:	2800      	cmpeq	r0, #0
700005a2:	bf1c      	itt	ne
700005a4:	f04f 31ff 	movne.w	r1, #4294967295
700005a8:	f04f 30ff 	movne.w	r0, #4294967295
700005ac:	f000 b988 	b.w	700008c0 <__aeabi_idiv0>
700005b0:	f1ad 0c08 	sub.w	ip, sp, #8
700005b4:	e96d ce04 	strd	ip, lr, [sp, #-16]!
700005b8:	f000 f806 	bl	700005c8 <__udivmoddi4>
700005bc:	f8dd e004 	ldr.w	lr, [sp, #4]
700005c0:	e9dd 2302 	ldrd	r2, r3, [sp, #8]
700005c4:	b004      	add	sp, #16
700005c6:	4770      	bx	lr

700005c8 <__udivmoddi4>:
700005c8:	e92d 47f0 	stmdb	sp!, {r4, r5, r6, r7, r8, r9, sl, lr}
700005cc:	9d08      	ldr	r5, [sp, #32]
700005ce:	468e      	mov	lr, r1
700005d0:	4604      	mov	r4, r0
700005d2:	4688      	mov	r8, r1
700005d4:	2b00      	cmp	r3, #0
700005d6:	d14a      	bne.n	7000066e <__udivmoddi4+0xa6>
700005d8:	428a      	cmp	r2, r1
700005da:	4617      	mov	r7, r2
700005dc:	d962      	bls.n	700006a4 <__udivmoddi4+0xdc>
700005de:	fab2 f682 	clz	r6, r2
700005e2:	b14e      	cbz	r6, 700005f8 <__udivmoddi4+0x30>
700005e4:	f1c6 0320 	rsb	r3, r6, #32
700005e8:	fa01 f806 	lsl.w	r8, r1, r6
700005ec:	fa20 f303 	lsr.w	r3, r0, r3
700005f0:	40b7      	lsls	r7, r6
700005f2:	ea43 0808 	orr.w	r8, r3, r8
700005f6:	40b4      	lsls	r4, r6
700005f8:	ea4f 4e17 	mov.w	lr, r7, lsr #16
700005fc:	fa1f fc87 	uxth.w	ip, r7
70000600:	fbb8 f1fe 	udiv	r1, r8, lr
70000604:	0c23      	lsrs	r3, r4, #16
70000606:	fb0e 8811 	mls	r8, lr, r1, r8
7000060a:	ea43 4308 	orr.w	r3, r3, r8, lsl #16
7000060e:	fb01 f20c 	mul.w	r2, r1, ip
70000612:	429a      	cmp	r2, r3
70000614:	d909      	bls.n	7000062a <__udivmoddi4+0x62>
70000616:	18fb      	adds	r3, r7, r3
70000618:	f101 30ff 	add.w	r0, r1, #4294967295
7000061c:	f080 80ea 	bcs.w	700007f4 <__udivmoddi4+0x22c>
70000620:	429a      	cmp	r2, r3
70000622:	f240 80e7 	bls.w	700007f4 <__udivmoddi4+0x22c>
70000626:	3902      	subs	r1, #2
70000628:	443b      	add	r3, r7
7000062a:	1a9a      	subs	r2, r3, r2
7000062c:	b2a3      	uxth	r3, r4
7000062e:	fbb2 f0fe 	udiv	r0, r2, lr
70000632:	fb0e 2210 	mls	r2, lr, r0, r2
70000636:	ea43 4302 	orr.w	r3, r3, r2, lsl #16
7000063a:	fb00 fc0c 	mul.w	ip, r0, ip
7000063e:	459c      	cmp	ip, r3
70000640:	d909      	bls.n	70000656 <__udivmoddi4+0x8e>
70000642:	18fb      	adds	r3, r7, r3
70000644:	f100 32ff 	add.w	r2, r0, #4294967295
70000648:	f080 80d6 	bcs.w	700007f8 <__udivmoddi4+0x230>
7000064c:	459c      	cmp	ip, r3
7000064e:	f240 80d3 	bls.w	700007f8 <__udivmoddi4+0x230>
70000652:	443b      	add	r3, r7
70000654:	3802      	subs	r0, #2
70000656:	ea40 4001 	orr.w	r0, r0, r1, lsl #16
7000065a:	eba3 030c 	sub.w	r3, r3, ip
7000065e:	2100      	movs	r1, #0
70000660:	b11d      	cbz	r5, 7000066a <__udivmoddi4+0xa2>
70000662:	40f3      	lsrs	r3, r6
70000664:	2200      	movs	r2, #0
70000666:	e9c5 3200 	strd	r3, r2, [r5]
7000066a:	e8bd 87f0 	ldmia.w	sp!, {r4, r5, r6, r7, r8, r9, sl, pc}
7000066e:	428b      	cmp	r3, r1
70000670:	d905      	bls.n	7000067e <__udivmoddi4+0xb6>
70000672:	b10d      	cbz	r5, 70000678 <__udivmoddi4+0xb0>
70000674:	e9c5 0100 	strd	r0, r1, [r5]
70000678:	2100      	movs	r1, #0
7000067a:	4608      	mov	r0, r1
7000067c:	e7f5      	b.n	7000066a <__udivmoddi4+0xa2>
7000067e:	fab3 f183 	clz	r1, r3
70000682:	2900      	cmp	r1, #0
70000684:	d146      	bne.n	70000714 <__udivmoddi4+0x14c>
70000686:	4573      	cmp	r3, lr
70000688:	d302      	bcc.n	70000690 <__udivmoddi4+0xc8>
7000068a:	4282      	cmp	r2, r0
7000068c:	f200 8105 	bhi.w	7000089a <__udivmoddi4+0x2d2>
70000690:	1a84      	subs	r4, r0, r2
70000692:	eb6e 0203 	sbc.w	r2, lr, r3
70000696:	2001      	movs	r0, #1
70000698:	4690      	mov	r8, r2
7000069a:	2d00      	cmp	r5, #0
7000069c:	d0e5      	beq.n	7000066a <__udivmoddi4+0xa2>
7000069e:	e9c5 4800 	strd	r4, r8, [r5]
700006a2:	e7e2      	b.n	7000066a <__udivmoddi4+0xa2>
700006a4:	2a00      	cmp	r2, #0
700006a6:	f000 8090 	beq.w	700007ca <__udivmoddi4+0x202>
700006aa:	fab2 f682 	clz	r6, r2
700006ae:	2e00      	cmp	r6, #0
700006b0:	f040 80a4 	bne.w	700007fc <__udivmoddi4+0x234>
700006b4:	1a8a      	subs	r2, r1, r2
700006b6:	0c03      	lsrs	r3, r0, #16
700006b8:	ea4f 4e17 	mov.w	lr, r7, lsr #16
700006bc:	b280      	uxth	r0, r0
700006be:	b2bc      	uxth	r4, r7
700006c0:	2101      	movs	r1, #1
700006c2:	fbb2 fcfe 	udiv	ip, r2, lr
700006c6:	fb0e 221c 	mls	r2, lr, ip, r2
700006ca:	ea43 4302 	orr.w	r3, r3, r2, lsl #16
700006ce:	fb04 f20c 	mul.w	r2, r4, ip
700006d2:	429a      	cmp	r2, r3
700006d4:	d907      	bls.n	700006e6 <__udivmoddi4+0x11e>
700006d6:	18fb      	adds	r3, r7, r3
700006d8:	f10c 38ff 	add.w	r8, ip, #4294967295
700006dc:	d202      	bcs.n	700006e4 <__udivmoddi4+0x11c>
700006de:	429a      	cmp	r2, r3
700006e0:	f200 80e0 	bhi.w	700008a4 <__udivmoddi4+0x2dc>
700006e4:	46c4      	mov	ip, r8
700006e6:	1a9b      	subs	r3, r3, r2
700006e8:	fbb3 f2fe 	udiv	r2, r3, lr
700006ec:	fb0e 3312 	mls	r3, lr, r2, r3
700006f0:	ea40 4303 	orr.w	r3, r0, r3, lsl #16
700006f4:	fb02 f404 	mul.w	r4, r2, r4
700006f8:	429c      	cmp	r4, r3
700006fa:	d907      	bls.n	7000070c <__udivmoddi4+0x144>
700006fc:	18fb      	adds	r3, r7, r3
700006fe:	f102 30ff 	add.w	r0, r2, #4294967295
70000702:	d202      	bcs.n	7000070a <__udivmoddi4+0x142>
70000704:	429c      	cmp	r4, r3
70000706:	f200 80ca 	bhi.w	7000089e <__udivmoddi4+0x2d6>
7000070a:	4602      	mov	r2, r0
7000070c:	1b1b      	subs	r3, r3, r4
7000070e:	ea42 400c 	orr.w	r0, r2, ip, lsl #16
70000712:	e7a5      	b.n	70000660 <__udivmoddi4+0x98>
70000714:	f1c1 0620 	rsb	r6, r1, #32
70000718:	408b      	lsls	r3, r1
7000071a:	fa22 f706 	lsr.w	r7, r2, r6
7000071e:	431f      	orrs	r7, r3
70000720:	fa0e f401 	lsl.w	r4, lr, r1
70000724:	fa20 f306 	lsr.w	r3, r0, r6
70000728:	fa2e fe06 	lsr.w	lr, lr, r6
7000072c:	ea4f 4917 	mov.w	r9, r7, lsr #16
70000730:	4323      	orrs	r3, r4
70000732:	fa00 f801 	lsl.w	r8, r0, r1
70000736:	fa1f fc87 	uxth.w	ip, r7
7000073a:	fbbe f0f9 	udiv	r0, lr, r9
7000073e:	0c1c      	lsrs	r4, r3, #16
70000740:	fb09 ee10 	mls	lr, r9, r0, lr
70000744:	ea44 440e 	orr.w	r4, r4, lr, lsl #16
70000748:	fb00 fe0c 	mul.w	lr, r0, ip
7000074c:	45a6      	cmp	lr, r4
7000074e:	fa02 f201 	lsl.w	r2, r2, r1
70000752:	d909      	bls.n	70000768 <__udivmoddi4+0x1a0>
70000754:	193c      	adds	r4, r7, r4
70000756:	f100 3aff 	add.w	sl, r0, #4294967295
7000075a:	f080 809c 	bcs.w	70000896 <__udivmoddi4+0x2ce>
7000075e:	45a6      	cmp	lr, r4
70000760:	f240 8099 	bls.w	70000896 <__udivmoddi4+0x2ce>
70000764:	3802      	subs	r0, #2
70000766:	443c      	add	r4, r7
70000768:	eba4 040e 	sub.w	r4, r4, lr
7000076c:	fa1f fe83 	uxth.w	lr, r3
70000770:	fbb4 f3f9 	udiv	r3, r4, r9
70000774:	fb09 4413 	mls	r4, r9, r3, r4
70000778:	ea4e 4404 	orr.w	r4, lr, r4, lsl #16
7000077c:	fb03 fc0c 	mul.w	ip, r3, ip
70000780:	45a4      	cmp	ip, r4
70000782:	d908      	bls.n	70000796 <__udivmoddi4+0x1ce>
70000784:	193c      	adds	r4, r7, r4
70000786:	f103 3eff 	add.w	lr, r3, #4294967295
7000078a:	f080 8082 	bcs.w	70000892 <__udivmoddi4+0x2ca>
7000078e:	45a4      	cmp	ip, r4
70000790:	d97f      	bls.n	70000892 <__udivmoddi4+0x2ca>
70000792:	3b02      	subs	r3, #2
70000794:	443c      	add	r4, r7
70000796:	ea43 4000 	orr.w	r0, r3, r0, lsl #16
7000079a:	eba4 040c 	sub.w	r4, r4, ip
7000079e:	fba0 ec02 	umull	lr, ip, r0, r2
700007a2:	4564      	cmp	r4, ip
700007a4:	4673      	mov	r3, lr
700007a6:	46e1      	mov	r9, ip
700007a8:	d362      	bcc.n	70000870 <__udivmoddi4+0x2a8>
700007aa:	d05f      	beq.n	7000086c <__udivmoddi4+0x2a4>
700007ac:	b15d      	cbz	r5, 700007c6 <__udivmoddi4+0x1fe>
700007ae:	ebb8 0203 	subs.w	r2, r8, r3
700007b2:	eb64 0409 	sbc.w	r4, r4, r9
700007b6:	fa04 f606 	lsl.w	r6, r4, r6
700007ba:	fa22 f301 	lsr.w	r3, r2, r1
700007be:	431e      	orrs	r6, r3
700007c0:	40cc      	lsrs	r4, r1
700007c2:	e9c5 6400 	strd	r6, r4, [r5]
700007c6:	2100      	movs	r1, #0
700007c8:	e74f      	b.n	7000066a <__udivmoddi4+0xa2>
700007ca:	fbb1 fcf2 	udiv	ip, r1, r2
700007ce:	0c01      	lsrs	r1, r0, #16
700007d0:	ea41 410e 	orr.w	r1, r1, lr, lsl #16
700007d4:	b280      	uxth	r0, r0
700007d6:	ea40 4201 	orr.w	r2, r0, r1, lsl #16
700007da:	463b      	mov	r3, r7
700007dc:	4638      	mov	r0, r7
700007de:	463c      	mov	r4, r7
700007e0:	46b8      	mov	r8, r7
700007e2:	46be      	mov	lr, r7
700007e4:	2620      	movs	r6, #32
700007e6:	fbb1 f1f7 	udiv	r1, r1, r7
700007ea:	eba2 0208 	sub.w	r2, r2, r8
700007ee:	ea41 410c 	orr.w	r1, r1, ip, lsl #16
700007f2:	e766      	b.n	700006c2 <__udivmoddi4+0xfa>
700007f4:	4601      	mov	r1, r0
700007f6:	e718      	b.n	7000062a <__udivmoddi4+0x62>
700007f8:	4610      	mov	r0, r2
700007fa:	e72c      	b.n	70000656 <__udivmoddi4+0x8e>
700007fc:	f1c6 0220 	rsb	r2, r6, #32
70000800:	fa2e f302 	lsr.w	r3, lr, r2
70000804:	40b7      	lsls	r7, r6
70000806:	40b1      	lsls	r1, r6
70000808:	fa20 f202 	lsr.w	r2, r0, r2
7000080c:	ea4f 4e17 	mov.w	lr, r7, lsr #16
70000810:	430a      	orrs	r2, r1
70000812:	fbb3 f8fe 	udiv	r8, r3, lr
70000816:	b2bc      	uxth	r4, r7
70000818:	fb0e 3318 	mls	r3, lr, r8, r3
7000081c:	0c11      	lsrs	r1, r2, #16
7000081e:	ea41 4103 	orr.w	r1, r1, r3, lsl #16
70000822:	fb08 f904 	mul.w	r9, r8, r4
70000826:	40b0      	lsls	r0, r6
70000828:	4589      	cmp	r9, r1
7000082a:	ea4f 4310 	mov.w	r3, r0, lsr #16
7000082e:	b280      	uxth	r0, r0
70000830:	d93e      	bls.n	700008b0 <__udivmoddi4+0x2e8>
70000832:	1879      	adds	r1, r7, r1
70000834:	f108 3cff 	add.w	ip, r8, #4294967295
70000838:	d201      	bcs.n	7000083e <__udivmoddi4+0x276>
7000083a:	4589      	cmp	r9, r1
7000083c:	d81f      	bhi.n	7000087e <__udivmoddi4+0x2b6>
7000083e:	eba1 0109 	sub.w	r1, r1, r9
70000842:	fbb1 f9fe 	udiv	r9, r1, lr
70000846:	fb09 f804 	mul.w	r8, r9, r4
7000084a:	fb0e 1119 	mls	r1, lr, r9, r1
7000084e:	b292      	uxth	r2, r2
70000850:	ea42 4201 	orr.w	r2, r2, r1, lsl #16
70000854:	4542      	cmp	r2, r8
70000856:	d229      	bcs.n	700008ac <__udivmoddi4+0x2e4>
70000858:	18ba      	adds	r2, r7, r2
7000085a:	f109 31ff 	add.w	r1, r9, #4294967295
7000085e:	d2c4      	bcs.n	700007ea <__udivmoddi4+0x222>
70000860:	4542      	cmp	r2, r8
70000862:	d2c2      	bcs.n	700007ea <__udivmoddi4+0x222>
70000864:	f1a9 0102 	sub.w	r1, r9, #2
70000868:	443a      	add	r2, r7
7000086a:	e7be      	b.n	700007ea <__udivmoddi4+0x222>
7000086c:	45f0      	cmp	r8, lr
7000086e:	d29d      	bcs.n	700007ac <__udivmoddi4+0x1e4>
70000870:	ebbe 0302 	subs.w	r3, lr, r2
70000874:	eb6c 0c07 	sbc.w	ip, ip, r7
70000878:	3801      	subs	r0, #1
7000087a:	46e1      	mov	r9, ip
7000087c:	e796      	b.n	700007ac <__udivmoddi4+0x1e4>
7000087e:	eba7 0909 	sub.w	r9, r7, r9
70000882:	4449      	add	r1, r9
70000884:	f1a8 0c02 	sub.w	ip, r8, #2
70000888:	fbb1 f9fe 	udiv	r9, r1, lr
7000088c:	fb09 f804 	mul.w	r8, r9, r4
70000890:	e7db      	b.n	7000084a <__udivmoddi4+0x282>
70000892:	4673      	mov	r3, lr
70000894:	e77f      	b.n	70000796 <__udivmoddi4+0x1ce>
70000896:	4650      	mov	r0, sl
70000898:	e766      	b.n	70000768 <__udivmoddi4+0x1a0>
7000089a:	4608      	mov	r0, r1
7000089c:	e6fd      	b.n	7000069a <__udivmoddi4+0xd2>
7000089e:	443b      	add	r3, r7
700008a0:	3a02      	subs	r2, #2
700008a2:	e733      	b.n	7000070c <__udivmoddi4+0x144>
700008a4:	f1ac 0c02 	sub.w	ip, ip, #2
700008a8:	443b      	add	r3, r7
700008aa:	e71c      	b.n	700006e6 <__udivmoddi4+0x11e>
700008ac:	4649      	mov	r1, r9
700008ae:	e79c      	b.n	700007ea <__udivmoddi4+0x222>
700008b0:	eba1 0109 	sub.w	r1, r1, r9
700008b4:	46c4      	mov	ip, r8
700008b6:	fbb1 f9fe 	udiv	r9, r1, lr
700008ba:	fb09 f804 	mul.w	r8, r9, r4
700008be:	e7c4      	b.n	7000084a <__udivmoddi4+0x282>

700008c0 <__aeabi_idiv0>:
700008c0:	4770      	bx	lr
700008c2:	bf00      	nop

700008c4 <led_thread_entry>:

static TX_THREAD led_thread = {0};
static uint8_t led_thread_buf[LED_THREAD_BUF_SIZE] = {0};

static VOID led_thread_entry(ULONG param)
{
700008c4:	b580      	push	{r7, lr}
700008c6:	b082      	sub	sp, #8
700008c8:	af00      	add	r7, sp, #0
700008ca:	6078      	str	r0, [r7, #4]
	while(1)
	{
		LED_RED_ON();
700008cc:	2201      	movs	r2, #1
700008ce:	2102      	movs	r1, #2
700008d0:	4808      	ldr	r0, [pc, #32]	@ (700008f4 <led_thread_entry+0x30>)
700008d2:	f001 f985 	bl	70001be0 <HAL_GPIO_WritePin>
		tx_thread_sleep(1000);
700008d6:	f44f 707a 	mov.w	r0, #1000	@ 0x3e8
700008da:	f004 fdb9 	bl	70005450 <_tx_thread_sleep>
		LED_BLUE_OFF();
700008de:	2201      	movs	r2, #1
700008e0:	2120      	movs	r1, #32
700008e2:	4804      	ldr	r0, [pc, #16]	@ (700008f4 <led_thread_entry+0x30>)
700008e4:	f001 f97c 	bl	70001be0 <HAL_GPIO_WritePin>
		tx_thread_sleep(1000);
700008e8:	f44f 707a 	mov.w	r0, #1000	@ 0x3e8
700008ec:	f004 fdb0 	bl	70005450 <_tx_thread_sleep>
		LED_RED_ON();
700008f0:	bf00      	nop
700008f2:	e7eb      	b.n	700008cc <led_thread_entry+0x8>
700008f4:	58023800 	.word	0x58023800

700008f8 <tx_application_define>:
  * @brief  Define the initial system.
  * @param  first_unused_memory : Pointer to the first unused memory
  * @retval None
  */
VOID tx_application_define(VOID *first_unused_memory)
{
700008f8:	b580      	push	{r7, lr}
700008fa:	b08c      	sub	sp, #48	@ 0x30
700008fc:	af08      	add	r7, sp, #32
700008fe:	6078      	str	r0, [r7, #4]
  /* USER CODE BEGIN  tx_application_define_1*/

  /* USER CODE END  tx_application_define_1 */
#if (USE_STATIC_ALLOCATION == 1)
  UINT status = TX_SUCCESS;
70000900:	2300      	movs	r3, #0
70000902:	60fb      	str	r3, [r7, #12]
  VOID *memory_ptr;

  if (tx_byte_pool_create(&tx_app_byte_pool, "Tx App memory pool", tx_byte_pool_buffer, TX_APP_MEM_POOL_SIZE) != TX_SUCCESS)
70000904:	2334      	movs	r3, #52	@ 0x34
70000906:	9300      	str	r3, [sp, #0]
70000908:	f44f 4300 	mov.w	r3, #32768	@ 0x8000
7000090c:	4a15      	ldr	r2, [pc, #84]	@ (70000964 <tx_application_define+0x6c>)
7000090e:	4916      	ldr	r1, [pc, #88]	@ (70000968 <tx_application_define+0x70>)
70000910:	4816      	ldr	r0, [pc, #88]	@ (7000096c <tx_application_define+0x74>)
70000912:	f005 fd8f 	bl	70006434 <_txe_byte_pool_create>
70000916:	4603      	mov	r3, r0
70000918:	2b00      	cmp	r3, #0
7000091a:	d11f      	bne.n	7000095c <tx_application_define+0x64>
  {
    /* USER CODE BEGIN TX_Byte_Pool_Success */

    /* USER CODE END TX_Byte_Pool_Success */

    memory_ptr = (VOID *)&tx_app_byte_pool;
7000091c:	4b13      	ldr	r3, [pc, #76]	@ (7000096c <tx_application_define+0x74>)
7000091e:	60bb      	str	r3, [r7, #8]
    status = App_ThreadX_Init(memory_ptr);
70000920:	68b8      	ldr	r0, [r7, #8]
70000922:	f000 f82d 	bl	70000980 <App_ThreadX_Init>
70000926:	60f8      	str	r0, [r7, #12]
    if (status != TX_SUCCESS)
70000928:	68fb      	ldr	r3, [r7, #12]
7000092a:	2b00      	cmp	r3, #0
7000092c:	d001      	beq.n	70000932 <tx_application_define+0x3a>
    {
      /* USER CODE BEGIN  App_ThreadX_Init_Error */
      while(1)
7000092e:	bf00      	nop
70000930:	e7fd      	b.n	7000092e <tx_application_define+0x36>
      }
      /* USER CODE END  App_ThreadX_Init_Error */
    }

    /* USER CODE BEGIN  App_ThreadX_Init_Success */
    tx_thread_create(&led_thread,
70000932:	23b0      	movs	r3, #176	@ 0xb0
70000934:	9306      	str	r3, [sp, #24]
70000936:	2301      	movs	r3, #1
70000938:	9305      	str	r3, [sp, #20]
7000093a:	2300      	movs	r3, #0
7000093c:	9304      	str	r3, [sp, #16]
7000093e:	230a      	movs	r3, #10
70000940:	9303      	str	r3, [sp, #12]
70000942:	230a      	movs	r3, #10
70000944:	9302      	str	r3, [sp, #8]
70000946:	f44f 7300 	mov.w	r3, #512	@ 0x200
7000094a:	9301      	str	r3, [sp, #4]
7000094c:	4b08      	ldr	r3, [pc, #32]	@ (70000970 <tx_application_define+0x78>)
7000094e:	9300      	str	r3, [sp, #0]
70000950:	2300      	movs	r3, #0
70000952:	4a08      	ldr	r2, [pc, #32]	@ (70000974 <tx_application_define+0x7c>)
70000954:	4908      	ldr	r1, [pc, #32]	@ (70000978 <tx_application_define+0x80>)
70000956:	4809      	ldr	r0, [pc, #36]	@ (7000097c <tx_application_define+0x84>)
70000958:	f005 fdfc 	bl	70006554 <_txe_thread_create>
  /* USER CODE BEGIN DYNAMIC_MEM_ALLOC */
  (void)first_unused_memory;
  /* USER CODE END DYNAMIC_MEM_ALLOC */
#endif

}
7000095c:	bf00      	nop
7000095e:	3710      	adds	r7, #16
70000960:	46bd      	mov	sp, r7
70000962:	bd80      	pop	{r7, pc}
70000964:	2400002c 	.word	0x2400002c
70000968:	70006788 	.word	0x70006788
7000096c:	2400802c 	.word	0x2400802c
70000970:	24008110 	.word	0x24008110
70000974:	700008c5 	.word	0x700008c5
70000978:	7000679c 	.word	0x7000679c
7000097c:	24008060 	.word	0x24008060

70000980 <App_ThreadX_Init>:
  * @brief  Application ThreadX Initialization.
  * @param memory_ptr: memory pointer
  * @retval int
  */
UINT App_ThreadX_Init(VOID *memory_ptr)
{
70000980:	b480      	push	{r7}
70000982:	b085      	sub	sp, #20
70000984:	af00      	add	r7, sp, #0
70000986:	6078      	str	r0, [r7, #4]
  UINT ret = TX_SUCCESS;
70000988:	2300      	movs	r3, #0
7000098a:	60fb      	str	r3, [r7, #12]

  /* USER CODE BEGIN App_ThreadX_Init */

  /* USER CODE END App_ThreadX_Init */

  return ret;
7000098c:	68fb      	ldr	r3, [r7, #12]
}
7000098e:	4618      	mov	r0, r3
70000990:	3714      	adds	r7, #20
70000992:	46bd      	mov	sp, r7
70000994:	f85d 7b04 	ldr.w	r7, [sp], #4
70000998:	4770      	bx	lr

7000099a <MX_ThreadX_Init>:
  * @brief  Function that implements the kernel's initialization.
  * @param  None
  * @retval None
  */
void MX_ThreadX_Init(void)
{
7000099a:	b580      	push	{r7, lr}
7000099c:	af00      	add	r7, sp, #0
  /* USER CODE BEGIN  Before_Kernel_Start */

  /* USER CODE END  Before_Kernel_Start */

  tx_kernel_enter();
7000099e:	f004 fbab 	bl	700050f8 <_tx_initialize_kernel_enter>

  /* USER CODE BEGIN  Kernel_Start_Error */

  /* USER CODE END  Kernel_Start_Error */
}
700009a2:	bf00      	nop
700009a4:	bd80      	pop	{r7, pc}

700009a6 <MX_FLASH_Init>:

/* USER CODE END 0 */

/* FLASH init function */
void MX_FLASH_Init(void)
{
700009a6:	b480      	push	{r7}
700009a8:	af00      	add	r7, sp, #0
  /* USER CODE END FLASH_Init 1 */
  /* USER CODE BEGIN FLASH_Init 2 */

  /* USER CODE END FLASH_Init 2 */

}
700009aa:	bf00      	nop
700009ac:	46bd      	mov	sp, r7
700009ae:	f85d 7b04 	ldr.w	r7, [sp], #4
700009b2:	4770      	bx	lr

700009b4 <MX_GPIO_Init>:
/* USER CODE END 1 */

/** Configure pins
*/
void MX_GPIO_Init(void)
{
700009b4:	b580      	push	{r7, lr}
700009b6:	b088      	sub	sp, #32
700009b8:	af00      	add	r7, sp, #0

  GPIO_InitTypeDef GPIO_InitStruct = {0};
700009ba:	f107 030c 	add.w	r3, r7, #12
700009be:	2200      	movs	r2, #0
700009c0:	601a      	str	r2, [r3, #0]
700009c2:	605a      	str	r2, [r3, #4]
700009c4:	609a      	str	r2, [r3, #8]
700009c6:	60da      	str	r2, [r3, #12]
700009c8:	611a      	str	r2, [r3, #16]

  /* GPIO Ports Clock Enable */
  __HAL_RCC_GPIOD_CLK_ENABLE();
700009ca:	4b22      	ldr	r3, [pc, #136]	@ (70000a54 <MX_GPIO_Init+0xa0>)
700009cc:	f8d3 3140 	ldr.w	r3, [r3, #320]	@ 0x140
700009d0:	4a20      	ldr	r2, [pc, #128]	@ (70000a54 <MX_GPIO_Init+0xa0>)
700009d2:	f043 0308 	orr.w	r3, r3, #8
700009d6:	f8c2 3140 	str.w	r3, [r2, #320]	@ 0x140
700009da:	4b1e      	ldr	r3, [pc, #120]	@ (70000a54 <MX_GPIO_Init+0xa0>)
700009dc:	f8d3 3140 	ldr.w	r3, [r3, #320]	@ 0x140
700009e0:	60bb      	str	r3, [r7, #8]
700009e2:	68bb      	ldr	r3, [r7, #8]
  __HAL_RCC_GPIOO_CLK_ENABLE();
700009e4:	4b1b      	ldr	r3, [pc, #108]	@ (70000a54 <MX_GPIO_Init+0xa0>)
700009e6:	f8d3 3140 	ldr.w	r3, [r3, #320]	@ 0x140
700009ea:	4a1a      	ldr	r2, [pc, #104]	@ (70000a54 <MX_GPIO_Init+0xa0>)
700009ec:	f443 4380 	orr.w	r3, r3, #16384	@ 0x4000
700009f0:	f8c2 3140 	str.w	r3, [r2, #320]	@ 0x140
700009f4:	4b17      	ldr	r3, [pc, #92]	@ (70000a54 <MX_GPIO_Init+0xa0>)
700009f6:	f8d3 3140 	ldr.w	r3, [r3, #320]	@ 0x140
700009fa:	607b      	str	r3, [r7, #4]
700009fc:	687b      	ldr	r3, [r7, #4]

  /*Configure GPIO pin Output Level */
  HAL_GPIO_WritePin(LED_RED_GPIO_Port, LED_RED_Pin, GPIO_PIN_RESET);
700009fe:	2200      	movs	r2, #0
70000a00:	2102      	movs	r1, #2
70000a02:	4815      	ldr	r0, [pc, #84]	@ (70000a58 <MX_GPIO_Init+0xa4>)
70000a04:	f001 f8ec 	bl	70001be0 <HAL_GPIO_WritePin>

  /*Configure GPIO pin Output Level */
  HAL_GPIO_WritePin(LED_BLUE_GPIO_Port, LED_BLUE_Pin, GPIO_PIN_SET);
70000a08:	2201      	movs	r2, #1
70000a0a:	2120      	movs	r1, #32
70000a0c:	4812      	ldr	r0, [pc, #72]	@ (70000a58 <MX_GPIO_Init+0xa4>)
70000a0e:	f001 f8e7 	bl	70001be0 <HAL_GPIO_WritePin>

  /*Configure GPIO pin : LED_RED_Pin */
  GPIO_InitStruct.Pin = LED_RED_Pin;
70000a12:	2302      	movs	r3, #2
70000a14:	60fb      	str	r3, [r7, #12]
  GPIO_InitStruct.Mode = GPIO_MODE_OUTPUT_PP;
70000a16:	2301      	movs	r3, #1
70000a18:	613b      	str	r3, [r7, #16]
  GPIO_InitStruct.Pull = GPIO_NOPULL;
70000a1a:	2300      	movs	r3, #0
70000a1c:	617b      	str	r3, [r7, #20]
  GPIO_InitStruct.Speed = GPIO_SPEED_FREQ_LOW;
70000a1e:	2300      	movs	r3, #0
70000a20:	61bb      	str	r3, [r7, #24]
  HAL_GPIO_Init(LED_RED_GPIO_Port, &GPIO_InitStruct);
70000a22:	f107 030c 	add.w	r3, r7, #12
70000a26:	4619      	mov	r1, r3
70000a28:	480b      	ldr	r0, [pc, #44]	@ (70000a58 <MX_GPIO_Init+0xa4>)
70000a2a:	f000 fe5d 	bl	700016e8 <HAL_GPIO_Init>

  /*Configure GPIO pin : LED_BLUE_Pin */
  GPIO_InitStruct.Pin = LED_BLUE_Pin;
70000a2e:	2320      	movs	r3, #32
70000a30:	60fb      	str	r3, [r7, #12]
  GPIO_InitStruct.Mode = GPIO_MODE_OUTPUT_OD;
70000a32:	2311      	movs	r3, #17
70000a34:	613b      	str	r3, [r7, #16]
  GPIO_InitStruct.Pull = GPIO_PULLUP;
70000a36:	2301      	movs	r3, #1
70000a38:	617b      	str	r3, [r7, #20]
  GPIO_InitStruct.Speed = GPIO_SPEED_FREQ_LOW;
70000a3a:	2300      	movs	r3, #0
70000a3c:	61bb      	str	r3, [r7, #24]
  HAL_GPIO_Init(LED_BLUE_GPIO_Port, &GPIO_InitStruct);
70000a3e:	f107 030c 	add.w	r3, r7, #12
70000a42:	4619      	mov	r1, r3
70000a44:	4804      	ldr	r0, [pc, #16]	@ (70000a58 <MX_GPIO_Init+0xa4>)
70000a46:	f000 fe4f 	bl	700016e8 <HAL_GPIO_Init>

}
70000a4a:	bf00      	nop
70000a4c:	3720      	adds	r7, #32
70000a4e:	46bd      	mov	sp, r7
70000a50:	bd80      	pop	{r7, pc}
70000a52:	bf00      	nop
70000a54:	58024400 	.word	0x58024400
70000a58:	58023800 	.word	0x58023800

70000a5c <main>:
/**
  * @brief  The application entry point.
  * @retval int
  */
int main(void)
{
70000a5c:	b580      	push	{r7, lr}
70000a5e:	b084      	sub	sp, #16
70000a60:	af00      	add	r7, sp, #0
  /* USER CODE BEGIN 1 */

  /* USER CODE END 1 */

  /* MPU Configuration--------------------------------------------------------*/
  MPU_Config();
70000a62:	f000 f873 	bl	70000b4c <MPU_Config>
  \details Turns on I-Cache
  */
__STATIC_FORCEINLINE void SCB_EnableICache (void)
{
  #if defined (__ICACHE_PRESENT) && (__ICACHE_PRESENT == 1U)
    if (SCB->CCR & SCB_CCR_IC_Msk) return;  /* return if ICache is already enabled */
70000a66:	4b38      	ldr	r3, [pc, #224]	@ (70000b48 <main+0xec>)
70000a68:	695b      	ldr	r3, [r3, #20]
70000a6a:	f403 3300 	and.w	r3, r3, #131072	@ 0x20000
70000a6e:	2b00      	cmp	r3, #0
70000a70:	d11b      	bne.n	70000aaa <main+0x4e>
  \details Acts as a special kind of Data Memory Barrier.
           It completes when all explicit memory accesses before this instruction complete.
 */
__STATIC_FORCEINLINE void __DSB(void)
{
  __ASM volatile ("dsb 0xF":::"memory");
70000a72:	f3bf 8f4f 	dsb	sy
}
70000a76:	bf00      	nop
  __ASM volatile ("isb 0xF":::"memory");
70000a78:	f3bf 8f6f 	isb	sy
}
70000a7c:	bf00      	nop

    __DSB();
    __ISB();
    SCB->ICIALLU = 0UL;                     /* invalidate I-Cache */
70000a7e:	4b32      	ldr	r3, [pc, #200]	@ (70000b48 <main+0xec>)
70000a80:	2200      	movs	r2, #0
70000a82:	f8c3 2250 	str.w	r2, [r3, #592]	@ 0x250
  __ASM volatile ("dsb 0xF":::"memory");
70000a86:	f3bf 8f4f 	dsb	sy
}
70000a8a:	bf00      	nop
  __ASM volatile ("isb 0xF":::"memory");
70000a8c:	f3bf 8f6f 	isb	sy
}
70000a90:	bf00      	nop
    __DSB();
    __ISB();
    SCB->CCR |=  (uint32_t)SCB_CCR_IC_Msk;  /* enable I-Cache */
70000a92:	4b2d      	ldr	r3, [pc, #180]	@ (70000b48 <main+0xec>)
70000a94:	695b      	ldr	r3, [r3, #20]
70000a96:	4a2c      	ldr	r2, [pc, #176]	@ (70000b48 <main+0xec>)
70000a98:	f443 3300 	orr.w	r3, r3, #131072	@ 0x20000
70000a9c:	6153      	str	r3, [r2, #20]
  __ASM volatile ("dsb 0xF":::"memory");
70000a9e:	f3bf 8f4f 	dsb	sy
}
70000aa2:	bf00      	nop
  __ASM volatile ("isb 0xF":::"memory");
70000aa4:	f3bf 8f6f 	isb	sy
}
70000aa8:	e000      	b.n	70000aac <main+0x50>
    if (SCB->CCR & SCB_CCR_IC_Msk) return;  /* return if ICache is already enabled */
70000aaa:	bf00      	nop
  #if defined (__DCACHE_PRESENT) && (__DCACHE_PRESENT == 1U)
    uint32_t ccsidr;
    uint32_t sets;
    uint32_t ways;

    if (SCB->CCR & SCB_CCR_DC_Msk) return;  /* return if DCache is already enabled */
70000aac:	4b26      	ldr	r3, [pc, #152]	@ (70000b48 <main+0xec>)
70000aae:	695b      	ldr	r3, [r3, #20]
70000ab0:	f403 3380 	and.w	r3, r3, #65536	@ 0x10000
70000ab4:	2b00      	cmp	r3, #0
70000ab6:	d138      	bne.n	70000b2a <main+0xce>

    SCB->CSSELR = 0U;                       /* select Level 1 data cache */
70000ab8:	4b23      	ldr	r3, [pc, #140]	@ (70000b48 <main+0xec>)
70000aba:	2200      	movs	r2, #0
70000abc:	f8c3 2084 	str.w	r2, [r3, #132]	@ 0x84
  __ASM volatile ("dsb 0xF":::"memory");
70000ac0:	f3bf 8f4f 	dsb	sy
}
70000ac4:	bf00      	nop
    __DSB();

    ccsidr = SCB->CCSIDR;
70000ac6:	4b20      	ldr	r3, [pc, #128]	@ (70000b48 <main+0xec>)
70000ac8:	f8d3 3080 	ldr.w	r3, [r3, #128]	@ 0x80
70000acc:	60fb      	str	r3, [r7, #12]

                                            /* invalidate D-Cache */
    sets = (uint32_t)(CCSIDR_SETS(ccsidr));
70000ace:	68fb      	ldr	r3, [r7, #12]
70000ad0:	0b5b      	lsrs	r3, r3, #13
70000ad2:	f3c3 030e 	ubfx	r3, r3, #0, #15
70000ad6:	60bb      	str	r3, [r7, #8]
    do {
      ways = (uint32_t)(CCSIDR_WAYS(ccsidr));
70000ad8:	68fb      	ldr	r3, [r7, #12]
70000ada:	08db      	lsrs	r3, r3, #3
70000adc:	f3c3 0309 	ubfx	r3, r3, #0, #10
70000ae0:	607b      	str	r3, [r7, #4]
      do {
        SCB->DCISW = (((sets << SCB_DCISW_SET_Pos) & SCB_DCISW_SET_Msk) |
70000ae2:	68bb      	ldr	r3, [r7, #8]
70000ae4:	015a      	lsls	r2, r3, #5
70000ae6:	f643 73e0 	movw	r3, #16352	@ 0x3fe0
70000aea:	4013      	ands	r3, r2
                      ((ways << SCB_DCISW_WAY_Pos) & SCB_DCISW_WAY_Msk)  );
70000aec:	687a      	ldr	r2, [r7, #4]
70000aee:	0792      	lsls	r2, r2, #30
        SCB->DCISW = (((sets << SCB_DCISW_SET_Pos) & SCB_DCISW_SET_Msk) |
70000af0:	4915      	ldr	r1, [pc, #84]	@ (70000b48 <main+0xec>)
70000af2:	4313      	orrs	r3, r2
70000af4:	f8c1 3260 	str.w	r3, [r1, #608]	@ 0x260
        #if defined ( __CC_ARM )
          __schedule_barrier();
        #endif
      } while (ways-- != 0U);
70000af8:	687b      	ldr	r3, [r7, #4]
70000afa:	1e5a      	subs	r2, r3, #1
70000afc:	607a      	str	r2, [r7, #4]
70000afe:	2b00      	cmp	r3, #0
70000b00:	d1ef      	bne.n	70000ae2 <main+0x86>
    } while(sets-- != 0U);
70000b02:	68bb      	ldr	r3, [r7, #8]
70000b04:	1e5a      	subs	r2, r3, #1
70000b06:	60ba      	str	r2, [r7, #8]
70000b08:	2b00      	cmp	r3, #0
70000b0a:	d1e5      	bne.n	70000ad8 <main+0x7c>
  __ASM volatile ("dsb 0xF":::"memory");
70000b0c:	f3bf 8f4f 	dsb	sy
}
70000b10:	bf00      	nop
    __DSB();

    SCB->CCR |=  (uint32_t)SCB_CCR_DC_Msk;  /* enable D-Cache */
70000b12:	4b0d      	ldr	r3, [pc, #52]	@ (70000b48 <main+0xec>)
70000b14:	695b      	ldr	r3, [r3, #20]
70000b16:	4a0c      	ldr	r2, [pc, #48]	@ (70000b48 <main+0xec>)
70000b18:	f443 3380 	orr.w	r3, r3, #65536	@ 0x10000
70000b1c:	6153      	str	r3, [r2, #20]
  __ASM volatile ("dsb 0xF":::"memory");
70000b1e:	f3bf 8f4f 	dsb	sy
}
70000b22:	bf00      	nop
  __ASM volatile ("isb 0xF":::"memory");
70000b24:	f3bf 8f6f 	isb	sy
}
70000b28:	e000      	b.n	70000b2c <main+0xd0>
    if (SCB->CCR & SCB_CCR_DC_Msk) return;  /* return if DCache is already enabled */
70000b2a:	bf00      	nop
  SCB_EnableDCache();

  /* MCU Configuration--------------------------------------------------------*/

  /* Update SystemCoreClock variable according to RCC registers values. */
  SystemCoreClockUpdate();
70000b2c:	f000 f8a8 	bl	70000c80 <SystemCoreClockUpdate>

  /* Reset of all peripherals, Initializes the Flash interface and the Systick. */
  HAL_Init();
70000b30:	f000 fab5 	bl	7000109e <HAL_Init>
  /* USER CODE BEGIN SysInit */

  /* USER CODE END SysInit */

  /* Initialize all configured peripherals */
  MX_GPIO_Init();
70000b34:	f7ff ff3e 	bl	700009b4 <MX_GPIO_Init>
  MX_UART4_Init();
70000b38:	f000 f9da 	bl	70000ef0 <MX_UART4_Init>
  MX_FLASH_Init();
70000b3c:	f7ff ff33 	bl	700009a6 <MX_FLASH_Init>
  /* USER CODE BEGIN 2 */

  /* USER CODE END 2 */

  MX_ThreadX_Init();
70000b40:	f7ff ff2b 	bl	7000099a <MX_ThreadX_Init>

  /* We should never get here as control is now taken by the scheduler */

  /* Infinite loop */
  /* USER CODE BEGIN WHILE */
  while (1)
70000b44:	bf00      	nop
70000b46:	e7fd      	b.n	70000b44 <main+0xe8>
70000b48:	e000ed00 	.word	0xe000ed00

70000b4c <MPU_Config>:
/* USER CODE END 4 */

 /* MPU Configuration */

static void MPU_Config(void)
{
70000b4c:	b580      	push	{r7, lr}
70000b4e:	b084      	sub	sp, #16
70000b50:	af00      	add	r7, sp, #0
  MPU_Region_InitTypeDef MPU_InitStruct = {0};
70000b52:	463b      	mov	r3, r7
70000b54:	2200      	movs	r2, #0
70000b56:	601a      	str	r2, [r3, #0]
70000b58:	605a      	str	r2, [r3, #4]
70000b5a:	609a      	str	r2, [r3, #8]
70000b5c:	60da      	str	r2, [r3, #12]

  /* Disables the MPU */
  HAL_MPU_Disable();
70000b5e:	f000 fc55 	bl	7000140c <HAL_MPU_Disable>

  /** Initializes and configures the Region and the memory to be protected
  */
  MPU_InitStruct.Enable = MPU_REGION_ENABLE;
70000b62:	2301      	movs	r3, #1
70000b64:	703b      	strb	r3, [r7, #0]
  MPU_InitStruct.Number = MPU_REGION_NUMBER0;
70000b66:	2300      	movs	r3, #0
70000b68:	707b      	strb	r3, [r7, #1]
  MPU_InitStruct.BaseAddress = 0x0;
70000b6a:	2300      	movs	r3, #0
70000b6c:	607b      	str	r3, [r7, #4]
  MPU_InitStruct.Size = MPU_REGION_SIZE_4GB;
70000b6e:	231f      	movs	r3, #31
70000b70:	723b      	strb	r3, [r7, #8]
  MPU_InitStruct.SubRegionDisable = 0x87;
70000b72:	2387      	movs	r3, #135	@ 0x87
70000b74:	727b      	strb	r3, [r7, #9]
  MPU_InitStruct.TypeExtField = MPU_TEX_LEVEL0;
70000b76:	2300      	movs	r3, #0
70000b78:	72bb      	strb	r3, [r7, #10]
  MPU_InitStruct.AccessPermission = MPU_REGION_NO_ACCESS;
70000b7a:	2300      	movs	r3, #0
70000b7c:	72fb      	strb	r3, [r7, #11]
  MPU_InitStruct.DisableExec = MPU_INSTRUCTION_ACCESS_DISABLE;
70000b7e:	2301      	movs	r3, #1
70000b80:	733b      	strb	r3, [r7, #12]
  MPU_InitStruct.IsShareable = MPU_ACCESS_SHAREABLE;
70000b82:	2301      	movs	r3, #1
70000b84:	737b      	strb	r3, [r7, #13]
  MPU_InitStruct.IsCacheable = MPU_ACCESS_NOT_CACHEABLE;
70000b86:	2300      	movs	r3, #0
70000b88:	73bb      	strb	r3, [r7, #14]
  MPU_InitStruct.IsBufferable = MPU_ACCESS_NOT_BUFFERABLE;
70000b8a:	2300      	movs	r3, #0
70000b8c:	73fb      	strb	r3, [r7, #15]

  HAL_MPU_ConfigRegion(&MPU_InitStruct);
70000b8e:	463b      	mov	r3, r7
70000b90:	4618      	mov	r0, r3
70000b92:	f000 fc59 	bl	70001448 <HAL_MPU_ConfigRegion>

  /** Initializes and configures the Region and the memory to be protected
  */
  MPU_InitStruct.Number = MPU_REGION_NUMBER1;
70000b96:	2301      	movs	r3, #1
70000b98:	707b      	strb	r3, [r7, #1]
  MPU_InitStruct.BaseAddress = 0x70000000;
70000b9a:	f04f 43e0 	mov.w	r3, #1879048192	@ 0x70000000
70000b9e:	607b      	str	r3, [r7, #4]
  MPU_InitStruct.Size = MPU_REGION_SIZE_64MB;
70000ba0:	2319      	movs	r3, #25
70000ba2:	723b      	strb	r3, [r7, #8]
  MPU_InitStruct.SubRegionDisable = 0x0;
70000ba4:	2300      	movs	r3, #0
70000ba6:	727b      	strb	r3, [r7, #9]
  MPU_InitStruct.TypeExtField = MPU_TEX_LEVEL1;
70000ba8:	2301      	movs	r3, #1
70000baa:	72bb      	strb	r3, [r7, #10]
  MPU_InitStruct.AccessPermission = MPU_REGION_PRIV_RO_URO;
70000bac:	2306      	movs	r3, #6
70000bae:	72fb      	strb	r3, [r7, #11]
  MPU_InitStruct.DisableExec = MPU_INSTRUCTION_ACCESS_ENABLE;
70000bb0:	2300      	movs	r3, #0
70000bb2:	733b      	strb	r3, [r7, #12]
  MPU_InitStruct.IsShareable = MPU_ACCESS_NOT_SHAREABLE;
70000bb4:	2300      	movs	r3, #0
70000bb6:	737b      	strb	r3, [r7, #13]
  MPU_InitStruct.IsCacheable = MPU_ACCESS_CACHEABLE;
70000bb8:	2301      	movs	r3, #1
70000bba:	73bb      	strb	r3, [r7, #14]

  HAL_MPU_ConfigRegion(&MPU_InitStruct);
70000bbc:	463b      	mov	r3, r7
70000bbe:	4618      	mov	r0, r3
70000bc0:	f000 fc42 	bl	70001448 <HAL_MPU_ConfigRegion>

  /** Initializes and configures the Region and the memory to be protected
  */
  MPU_InitStruct.Number = MPU_REGION_NUMBER2;
70000bc4:	2302      	movs	r3, #2
70000bc6:	707b      	strb	r3, [r7, #1]
  MPU_InitStruct.BaseAddress = 0x90000000;
70000bc8:	f04f 4310 	mov.w	r3, #2415919104	@ 0x90000000
70000bcc:	607b      	str	r3, [r7, #4]
  MPU_InitStruct.Size = MPU_REGION_SIZE_32MB;
70000bce:	2318      	movs	r3, #24
70000bd0:	723b      	strb	r3, [r7, #8]
  MPU_InitStruct.AccessPermission = MPU_REGION_FULL_ACCESS;
70000bd2:	2303      	movs	r3, #3
70000bd4:	72fb      	strb	r3, [r7, #11]
  MPU_InitStruct.IsCacheable = MPU_ACCESS_NOT_CACHEABLE;
70000bd6:	2300      	movs	r3, #0
70000bd8:	73bb      	strb	r3, [r7, #14]

  HAL_MPU_ConfigRegion(&MPU_InitStruct);
70000bda:	463b      	mov	r3, r7
70000bdc:	4618      	mov	r0, r3
70000bde:	f000 fc33 	bl	70001448 <HAL_MPU_ConfigRegion>
  /* Enables the MPU */
  HAL_MPU_Enable(MPU_HFNMI_PRIVDEF);
70000be2:	2006      	movs	r0, #6
70000be4:	f000 fbf0 	bl	700013c8 <HAL_MPU_Enable>

}
70000be8:	bf00      	nop
70000bea:	3710      	adds	r7, #16
70000bec:	46bd      	mov	sp, r7
70000bee:	bd80      	pop	{r7, pc}

70000bf0 <Error_Handler>:
/**
  * @brief  This function is executed in case of error occurrence.
  * @retval None
  */
void Error_Handler(void)
{
70000bf0:	b480      	push	{r7}
70000bf2:	af00      	add	r7, sp, #0
  \details Disables IRQ interrupts by setting special-purpose register PRIMASK.
           Can only be executed in Privileged modes.
 */
__STATIC_FORCEINLINE void __disable_irq(void)
{
  __ASM volatile ("cpsid i" : : : "memory");
70000bf4:	b672      	cpsid	i
}
70000bf6:	bf00      	nop
  /* USER CODE BEGIN Error_Handler_Debug */
  /* User can add his own implementation to report the HAL error return state */
  __disable_irq();
  while (1)
70000bf8:	bf00      	nop
70000bfa:	e7fd      	b.n	70000bf8 <Error_Handler+0x8>

70000bfc <assert_failed>:
  * @param  file: pointer to the source file name
  * @param  line: assert_param error line source number
  * @retval None
  */
void assert_failed(uint8_t *file, uint32_t line)
{
70000bfc:	b480      	push	{r7}
70000bfe:	b083      	sub	sp, #12
70000c00:	af00      	add	r7, sp, #0
70000c02:	6078      	str	r0, [r7, #4]
70000c04:	6039      	str	r1, [r7, #0]
  /* USER CODE BEGIN 6 */
  /* User can add his own implementation to report the file name and line number,
     ex: printf("Wrong parameters value: file %s on line %d\r\n", file, line) */
  /* USER CODE END 6 */
}
70000c06:	bf00      	nop
70000c08:	370c      	adds	r7, #12
70000c0a:	46bd      	mov	sp, r7
70000c0c:	f85d 7b04 	ldr.w	r7, [sp], #4
70000c10:	4770      	bx	lr

70000c12 <HAL_MspInit>:
/* USER CODE END 0 */
/**
  * Initializes the Global MSP.
  */
void HAL_MspInit(void)
{
70000c12:	b580      	push	{r7, lr}
70000c14:	af00      	add	r7, sp, #0
  /* USER CODE END MspInit 0 */

  /* System interrupt init*/

  /* Enable the XSPIM_P1 interface */
  HAL_PWREx_EnableXSPIM1();
70000c16:	f001 f80f 	bl	70001c38 <HAL_PWREx_EnableXSPIM1>

  /* USER CODE BEGIN MspInit 1 */

  /* USER CODE END MspInit 1 */
}
70000c1a:	bf00      	nop
70000c1c:	bd80      	pop	{r7, pc}

70000c1e <NMI_Handler>:
/******************************************************************************/
/**
  * @brief This function handles Non maskable interrupt.
  */
void NMI_Handler(void)
{
70000c1e:	b480      	push	{r7}
70000c20:	af00      	add	r7, sp, #0
  /* USER CODE BEGIN NonMaskableInt_IRQn 0 */

  /* USER CODE END NonMaskableInt_IRQn 0 */
  /* USER CODE BEGIN NonMaskableInt_IRQn 1 */
   while (1)
70000c22:	bf00      	nop
70000c24:	e7fd      	b.n	70000c22 <NMI_Handler+0x4>

70000c26 <HardFault_Handler>:

/**
  * @brief This function handles Hard fault interrupt.
  */
void HardFault_Handler(void)
{
70000c26:	b480      	push	{r7}
70000c28:	af00      	add	r7, sp, #0
  /* USER CODE BEGIN HardFault_IRQn 0 */

  /* USER CODE END HardFault_IRQn 0 */
  while (1)
70000c2a:	bf00      	nop
70000c2c:	e7fd      	b.n	70000c2a <HardFault_Handler+0x4>

70000c2e <MemManage_Handler>:

/**
  * @brief This function handles Memory management fault.
  */
void MemManage_Handler(void)
{
70000c2e:	b480      	push	{r7}
70000c30:	af00      	add	r7, sp, #0
  /* USER CODE BEGIN MemoryManagement_IRQn 0 */

  /* USER CODE END MemoryManagement_IRQn 0 */
  while (1)
70000c32:	bf00      	nop
70000c34:	e7fd      	b.n	70000c32 <MemManage_Handler+0x4>

70000c36 <BusFault_Handler>:

/**
  * @brief This function handles Pre-fetch fault, memory access fault.
  */
void BusFault_Handler(void)
{
70000c36:	b480      	push	{r7}
70000c38:	af00      	add	r7, sp, #0
  /* USER CODE BEGIN BusFault_IRQn 0 */

  /* USER CODE END BusFault_IRQn 0 */
  while (1)
70000c3a:	bf00      	nop
70000c3c:	e7fd      	b.n	70000c3a <BusFault_Handler+0x4>

70000c3e <UsageFault_Handler>:

/**
  * @brief This function handles Undefined instruction or illegal state.
  */
void UsageFault_Handler(void)
{
70000c3e:	b480      	push	{r7}
70000c40:	af00      	add	r7, sp, #0
  /* USER CODE BEGIN UsageFault_IRQn 0 */

  /* USER CODE END UsageFault_IRQn 0 */
  while (1)
70000c42:	bf00      	nop
70000c44:	e7fd      	b.n	70000c42 <UsageFault_Handler+0x4>

70000c46 <DebugMon_Handler>:

/**
  * @brief This function handles Debug monitor.
  */
void DebugMon_Handler(void)
{
70000c46:	b480      	push	{r7}
70000c48:	af00      	add	r7, sp, #0

  /* USER CODE END DebugMonitor_IRQn 0 */
  /* USER CODE BEGIN DebugMonitor_IRQn 1 */

  /* USER CODE END DebugMonitor_IRQn 1 */
}
70000c4a:	bf00      	nop
70000c4c:	46bd      	mov	sp, r7
70000c4e:	f85d 7b04 	ldr.w	r7, [sp], #4
70000c52:	4770      	bx	lr

70000c54 <SystemInit>:
  * @brief  Setup the microcontroller system.
  * @retval None
  */

void SystemInit(void)
{
70000c54:	b480      	push	{r7}
70000c56:	af00      	add	r7, sp, #0
  /* Configure the Vector Table location -------------------------------------*/
  SCB->VTOR = INTVECT_START;
70000c58:	4b07      	ldr	r3, [pc, #28]	@ (70000c78 <SystemInit+0x24>)
70000c5a:	4a08      	ldr	r2, [pc, #32]	@ (70000c7c <SystemInit+0x28>)
70000c5c:	609a      	str	r2, [r3, #8]

  /* FPU settings ------------------------------------------------------------*/
#if (__FPU_PRESENT == 1) && (__FPU_USED == 1)
  SCB->CPACR |= ((3UL << 20U)|(3UL << 22U));  /* set CP10 and CP11 Full Access */
70000c5e:	4b06      	ldr	r3, [pc, #24]	@ (70000c78 <SystemInit+0x24>)
70000c60:	f8d3 3088 	ldr.w	r3, [r3, #136]	@ 0x88
70000c64:	4a04      	ldr	r2, [pc, #16]	@ (70000c78 <SystemInit+0x24>)
70000c66:	f443 0370 	orr.w	r3, r3, #15728640	@ 0xf00000
70000c6a:	f8c2 3088 	str.w	r3, [r2, #136]	@ 0x88
#endif
}
70000c6e:	bf00      	nop
70000c70:	46bd      	mov	sp, r7
70000c72:	f85d 7b04 	ldr.w	r7, [sp], #4
70000c76:	4770      	bx	lr
70000c78:	e000ed00 	.word	0xe000ed00
70000c7c:	70000000 	.word	0x70000000

70000c80 <SystemCoreClockUpdate>:
  *           value for HSE crystal.
  *
  * @retval None
  */
void SystemCoreClockUpdate(void)
{
70000c80:	b480      	push	{r7}
70000c82:	b089      	sub	sp, #36	@ 0x24
70000c84:	af00      	add	r7, sp, #0
  uint32_t sysclk, hsivalue, pllsource, pllm, pllp, core_presc;
  float_t pllfracn, pllvco;

  /* Get SYSCLK source -------------------------------------------------------*/
  switch (RCC->CFGR & RCC_CFGR_SWS)
70000c86:	4b92      	ldr	r3, [pc, #584]	@ (70000ed0 <SystemCoreClockUpdate+0x250>)
70000c88:	691b      	ldr	r3, [r3, #16]
70000c8a:	f003 0338 	and.w	r3, r3, #56	@ 0x38
70000c8e:	2b18      	cmp	r3, #24
70000c90:	f200 80fb 	bhi.w	70000e8a <SystemCoreClockUpdate+0x20a>
70000c94:	a201      	add	r2, pc, #4	@ (adr r2, 70000c9c <SystemCoreClockUpdate+0x1c>)
70000c96:	f852 f023 	ldr.w	pc, [r2, r3, lsl #2]
70000c9a:	bf00      	nop
70000c9c:	70000d01 	.word	0x70000d01
70000ca0:	70000e8b 	.word	0x70000e8b
70000ca4:	70000e8b 	.word	0x70000e8b
70000ca8:	70000e8b 	.word	0x70000e8b
70000cac:	70000e8b 	.word	0x70000e8b
70000cb0:	70000e8b 	.word	0x70000e8b
70000cb4:	70000e8b 	.word	0x70000e8b
70000cb8:	70000e8b 	.word	0x70000e8b
70000cbc:	70000d15 	.word	0x70000d15
70000cc0:	70000e8b 	.word	0x70000e8b
70000cc4:	70000e8b 	.word	0x70000e8b
70000cc8:	70000e8b 	.word	0x70000e8b
70000ccc:	70000e8b 	.word	0x70000e8b
70000cd0:	70000e8b 	.word	0x70000e8b
70000cd4:	70000e8b 	.word	0x70000e8b
70000cd8:	70000e8b 	.word	0x70000e8b
70000cdc:	70000d1b 	.word	0x70000d1b
70000ce0:	70000e8b 	.word	0x70000e8b
70000ce4:	70000e8b 	.word	0x70000e8b
70000ce8:	70000e8b 	.word	0x70000e8b
70000cec:	70000e8b 	.word	0x70000e8b
70000cf0:	70000e8b 	.word	0x70000e8b
70000cf4:	70000e8b 	.word	0x70000e8b
70000cf8:	70000e8b 	.word	0x70000e8b
70000cfc:	70000d21 	.word	0x70000d21
  {
  case 0x00:  /* HSI used as system clock source (default after reset) */
    sysclk = (HSI_VALUE >> ((RCC->CR & RCC_CR_HSIDIV) >> RCC_CR_HSIDIV_Pos));
70000d00:	4b73      	ldr	r3, [pc, #460]	@ (70000ed0 <SystemCoreClockUpdate+0x250>)
70000d02:	681b      	ldr	r3, [r3, #0]
70000d04:	08db      	lsrs	r3, r3, #3
70000d06:	f003 0303 	and.w	r3, r3, #3
70000d0a:	4a72      	ldr	r2, [pc, #456]	@ (70000ed4 <SystemCoreClockUpdate+0x254>)
70000d0c:	fa22 f303 	lsr.w	r3, r2, r3
70000d10:	61fb      	str	r3, [r7, #28]
    break;
70000d12:	e0c4      	b.n	70000e9e <SystemCoreClockUpdate+0x21e>

  case 0x08:  /* CSI used as system clock source */
    sysclk = CSI_VALUE;
70000d14:	4b70      	ldr	r3, [pc, #448]	@ (70000ed8 <SystemCoreClockUpdate+0x258>)
70000d16:	61fb      	str	r3, [r7, #28]
    break;
70000d18:	e0c1      	b.n	70000e9e <SystemCoreClockUpdate+0x21e>

  case 0x10:  /* HSE used as system clock source */
    sysclk = HSE_VALUE;
70000d1a:	4b70      	ldr	r3, [pc, #448]	@ (70000edc <SystemCoreClockUpdate+0x25c>)
70000d1c:	61fb      	str	r3, [r7, #28]
    break;
70000d1e:	e0be      	b.n	70000e9e <SystemCoreClockUpdate+0x21e>

  case 0x18:  /* PLL1 used as system clock  source */
    /* PLL1_VCO = (HSE_VALUE or HSI_VALUE or CSI_VALUE/ PLLM) * PLLN
       SYSCLK = PLL1_VCO / PLL1R
       */
    pllsource = (RCC->PLLCKSELR & RCC_PLLCKSELR_PLLSRC);
70000d20:	4b6b      	ldr	r3, [pc, #428]	@ (70000ed0 <SystemCoreClockUpdate+0x250>)
70000d22:	6a9b      	ldr	r3, [r3, #40]	@ 0x28
70000d24:	f003 0303 	and.w	r3, r3, #3
70000d28:	613b      	str	r3, [r7, #16]
    pllm = ((RCC->PLLCKSELR & RCC_PLLCKSELR_DIVM1) >> RCC_PLLCKSELR_DIVM1_Pos)  ;
70000d2a:	4b69      	ldr	r3, [pc, #420]	@ (70000ed0 <SystemCoreClockUpdate+0x250>)
70000d2c:	6a9b      	ldr	r3, [r3, #40]	@ 0x28
70000d2e:	091b      	lsrs	r3, r3, #4
70000d30:	f003 033f 	and.w	r3, r3, #63	@ 0x3f
70000d34:	60fb      	str	r3, [r7, #12]
    if ((RCC->PLLCFGR & RCC_PLLCFGR_PLL1FRACEN) != 0U)
70000d36:	4b66      	ldr	r3, [pc, #408]	@ (70000ed0 <SystemCoreClockUpdate+0x250>)
70000d38:	6adb      	ldr	r3, [r3, #44]	@ 0x2c
70000d3a:	f003 0301 	and.w	r3, r3, #1
70000d3e:	2b00      	cmp	r3, #0
70000d40:	d00b      	beq.n	70000d5a <SystemCoreClockUpdate+0xda>
    {
      pllfracn = (float_t)(uint32_t)(((RCC->PLL1FRACR & RCC_PLL1FRACR_FRACN)>> RCC_PLL1FRACR_FRACN_Pos));
70000d42:	4b63      	ldr	r3, [pc, #396]	@ (70000ed0 <SystemCoreClockUpdate+0x250>)
70000d44:	6b5b      	ldr	r3, [r3, #52]	@ 0x34
70000d46:	08db      	lsrs	r3, r3, #3
70000d48:	f3c3 030c 	ubfx	r3, r3, #0, #13
70000d4c:	ee07 3a90 	vmov	s15, r3
70000d50:	eef8 7a67 	vcvt.f32.u32	s15, s15
70000d54:	edc7 7a06 	vstr	s15, [r7, #24]
70000d58:	e002      	b.n	70000d60 <SystemCoreClockUpdate+0xe0>
    }
    else
    {
      pllfracn = (float_t)0U;
70000d5a:	f04f 0300 	mov.w	r3, #0
70000d5e:	61bb      	str	r3, [r7, #24]
    }

    if (pllm != 0U)
70000d60:	68fb      	ldr	r3, [r7, #12]
70000d62:	2b00      	cmp	r3, #0
70000d64:	f000 808e 	beq.w	70000e84 <SystemCoreClockUpdate+0x204>
    {
      switch (pllsource)
70000d68:	693b      	ldr	r3, [r7, #16]
70000d6a:	2b01      	cmp	r3, #1
70000d6c:	d024      	beq.n	70000db8 <SystemCoreClockUpdate+0x138>
70000d6e:	693b      	ldr	r3, [r7, #16]
70000d70:	2b02      	cmp	r3, #2
70000d72:	d143      	bne.n	70000dfc <SystemCoreClockUpdate+0x17c>
      {
      case 0x02:  /* HSE used as PLL1 clock source */
        pllvco = ((float_t)HSE_VALUE / (float_t)pllm) * ((float_t)(uint32_t)(RCC->PLL1DIVR1 & RCC_PLL1DIVR1_DIVN) + (pllfracn/(float_t)0x2000) +(float_t)1 );
70000d74:	68fb      	ldr	r3, [r7, #12]
70000d76:	ee07 3a90 	vmov	s15, r3
70000d7a:	eef8 7a67 	vcvt.f32.u32	s15, s15
70000d7e:	eddf 6a58 	vldr	s13, [pc, #352]	@ 70000ee0 <SystemCoreClockUpdate+0x260>
70000d82:	ee86 7aa7 	vdiv.f32	s14, s13, s15
70000d86:	4b52      	ldr	r3, [pc, #328]	@ (70000ed0 <SystemCoreClockUpdate+0x250>)
70000d88:	6b1b      	ldr	r3, [r3, #48]	@ 0x30
70000d8a:	f3c3 0308 	ubfx	r3, r3, #0, #9
70000d8e:	ee07 3a90 	vmov	s15, r3
70000d92:	eef8 6a67 	vcvt.f32.u32	s13, s15
70000d96:	ed97 6a06 	vldr	s12, [r7, #24]
70000d9a:	eddf 5a52 	vldr	s11, [pc, #328]	@ 70000ee4 <SystemCoreClockUpdate+0x264>
70000d9e:	eec6 7a25 	vdiv.f32	s15, s12, s11
70000da2:	ee76 7aa7 	vadd.f32	s15, s13, s15
70000da6:	eef7 6a00 	vmov.f32	s13, #112	@ 0x3f800000  1.0
70000daa:	ee77 7aa6 	vadd.f32	s15, s15, s13
70000dae:	ee67 7a27 	vmul.f32	s15, s14, s15
70000db2:	edc7 7a05 	vstr	s15, [r7, #20]
        break;
70000db6:	e04f      	b.n	70000e58 <SystemCoreClockUpdate+0x1d8>

      case 0x01:  /* CSI used as PLL1 clock source */
        pllvco = ((float_t)CSI_VALUE / (float_t)pllm) * ((float_t)(uint32_t)(RCC->PLL1DIVR1 & RCC_PLL1DIVR1_DIVN) + (pllfracn/(float_t)0x2000) +(float_t)1 );
70000db8:	68fb      	ldr	r3, [r7, #12]
70000dba:	ee07 3a90 	vmov	s15, r3
70000dbe:	eef8 7a67 	vcvt.f32.u32	s15, s15
70000dc2:	eddf 6a49 	vldr	s13, [pc, #292]	@ 70000ee8 <SystemCoreClockUpdate+0x268>
70000dc6:	ee86 7aa7 	vdiv.f32	s14, s13, s15
70000dca:	4b41      	ldr	r3, [pc, #260]	@ (70000ed0 <SystemCoreClockUpdate+0x250>)
70000dcc:	6b1b      	ldr	r3, [r3, #48]	@ 0x30
70000dce:	f3c3 0308 	ubfx	r3, r3, #0, #9
70000dd2:	ee07 3a90 	vmov	s15, r3
70000dd6:	eef8 6a67 	vcvt.f32.u32	s13, s15
70000dda:	ed97 6a06 	vldr	s12, [r7, #24]
70000dde:	eddf 5a41 	vldr	s11, [pc, #260]	@ 70000ee4 <SystemCoreClockUpdate+0x264>
70000de2:	eec6 7a25 	vdiv.f32	s15, s12, s11
70000de6:	ee76 7aa7 	vadd.f32	s15, s13, s15
70000dea:	eef7 6a00 	vmov.f32	s13, #112	@ 0x3f800000  1.0
70000dee:	ee77 7aa6 	vadd.f32	s15, s15, s13
70000df2:	ee67 7a27 	vmul.f32	s15, s14, s15
70000df6:	edc7 7a05 	vstr	s15, [r7, #20]
        break;
70000dfa:	e02d      	b.n	70000e58 <SystemCoreClockUpdate+0x1d8>

      case 0x00:  /* HSI used as PLL1 clock source */
      default:
        hsivalue = (HSI_VALUE >> ((RCC->CR & RCC_CR_HSIDIV) >> RCC_CR_HSIDIV_Pos));
70000dfc:	4b34      	ldr	r3, [pc, #208]	@ (70000ed0 <SystemCoreClockUpdate+0x250>)
70000dfe:	681b      	ldr	r3, [r3, #0]
70000e00:	08db      	lsrs	r3, r3, #3
70000e02:	f003 0303 	and.w	r3, r3, #3
70000e06:	4a33      	ldr	r2, [pc, #204]	@ (70000ed4 <SystemCoreClockUpdate+0x254>)
70000e08:	fa22 f303 	lsr.w	r3, r2, r3
70000e0c:	60bb      	str	r3, [r7, #8]
        pllvco = ( (float_t)hsivalue / (float_t)pllm) * ((float_t)(uint32_t)(RCC->PLL1DIVR1 & RCC_PLL1DIVR1_DIVN) + (pllfracn/(float_t)0x2000) +(float_t)1 );
70000e0e:	68bb      	ldr	r3, [r7, #8]
70000e10:	ee07 3a90 	vmov	s15, r3
70000e14:	eef8 6a67 	vcvt.f32.u32	s13, s15
70000e18:	68fb      	ldr	r3, [r7, #12]
70000e1a:	ee07 3a90 	vmov	s15, r3
70000e1e:	eef8 7a67 	vcvt.f32.u32	s15, s15
70000e22:	ee86 7aa7 	vdiv.f32	s14, s13, s15
70000e26:	4b2a      	ldr	r3, [pc, #168]	@ (70000ed0 <SystemCoreClockUpdate+0x250>)
70000e28:	6b1b      	ldr	r3, [r3, #48]	@ 0x30
70000e2a:	f3c3 0308 	ubfx	r3, r3, #0, #9
70000e2e:	ee07 3a90 	vmov	s15, r3
70000e32:	eef8 6a67 	vcvt.f32.u32	s13, s15
70000e36:	ed97 6a06 	vldr	s12, [r7, #24]
70000e3a:	eddf 5a2a 	vldr	s11, [pc, #168]	@ 70000ee4 <SystemCoreClockUpdate+0x264>
70000e3e:	eec6 7a25 	vdiv.f32	s15, s12, s11
70000e42:	ee76 7aa7 	vadd.f32	s15, s13, s15
70000e46:	eef7 6a00 	vmov.f32	s13, #112	@ 0x3f800000  1.0
70000e4a:	ee77 7aa6 	vadd.f32	s15, s15, s13
70000e4e:	ee67 7a27 	vmul.f32	s15, s14, s15
70000e52:	edc7 7a05 	vstr	s15, [r7, #20]
        break;
70000e56:	bf00      	nop
      }
      pllp = (((RCC->PLL1DIVR1 & RCC_PLL1DIVR1_DIVP) >> RCC_PLL1DIVR1_DIVP_Pos) + 1U ) ;
70000e58:	4b1d      	ldr	r3, [pc, #116]	@ (70000ed0 <SystemCoreClockUpdate+0x250>)
70000e5a:	6b1b      	ldr	r3, [r3, #48]	@ 0x30
70000e5c:	0a5b      	lsrs	r3, r3, #9
70000e5e:	f003 037f 	and.w	r3, r3, #127	@ 0x7f
70000e62:	3301      	adds	r3, #1
70000e64:	607b      	str	r3, [r7, #4]
      sysclk =  (uint32_t)(float_t)(pllvco/(float_t)pllp);
70000e66:	687b      	ldr	r3, [r7, #4]
70000e68:	ee07 3a90 	vmov	s15, r3
70000e6c:	eeb8 7a67 	vcvt.f32.u32	s14, s15
70000e70:	edd7 6a05 	vldr	s13, [r7, #20]
70000e74:	eec6 7a87 	vdiv.f32	s15, s13, s14
70000e78:	eefc 7ae7 	vcvt.u32.f32	s15, s15
70000e7c:	ee17 3a90 	vmov	r3, s15
70000e80:	61fb      	str	r3, [r7, #28]
    }
    else
    {
      sysclk = 0U;
    }
    break;
70000e82:	e00c      	b.n	70000e9e <SystemCoreClockUpdate+0x21e>
      sysclk = 0U;
70000e84:	2300      	movs	r3, #0
70000e86:	61fb      	str	r3, [r7, #28]
    break;
70000e88:	e009      	b.n	70000e9e <SystemCoreClockUpdate+0x21e>

  default:  /* Unexpected, default to HSI used as system clock source (default after reset) */
    sysclk = (HSI_VALUE >> ((RCC->CR & RCC_CR_HSIDIV) >> RCC_CR_HSIDIV_Pos));
70000e8a:	4b11      	ldr	r3, [pc, #68]	@ (70000ed0 <SystemCoreClockUpdate+0x250>)
70000e8c:	681b      	ldr	r3, [r3, #0]
70000e8e:	08db      	lsrs	r3, r3, #3
70000e90:	f003 0303 	and.w	r3, r3, #3
70000e94:	4a0f      	ldr	r2, [pc, #60]	@ (70000ed4 <SystemCoreClockUpdate+0x254>)
70000e96:	fa22 f303 	lsr.w	r3, r2, r3
70000e9a:	61fb      	str	r3, [r7, #28]
    break;
70000e9c:	bf00      	nop
  }

  /* system clock frequency : CM7 CPU frequency  */
  core_presc = (RCC->CDCFGR & RCC_CDCFGR_CPRE);
70000e9e:	4b0c      	ldr	r3, [pc, #48]	@ (70000ed0 <SystemCoreClockUpdate+0x250>)
70000ea0:	699b      	ldr	r3, [r3, #24]
70000ea2:	f003 030f 	and.w	r3, r3, #15
70000ea6:	603b      	str	r3, [r7, #0]
  if (core_presc >= 8U)
70000ea8:	683b      	ldr	r3, [r7, #0]
70000eaa:	2b07      	cmp	r3, #7
70000eac:	d907      	bls.n	70000ebe <SystemCoreClockUpdate+0x23e>
  {
    SystemCoreClock = (sysclk >> (core_presc - RCC_CDCFGR_CPRE_3 + 1U));
70000eae:	683b      	ldr	r3, [r7, #0]
70000eb0:	3b07      	subs	r3, #7
70000eb2:	69fa      	ldr	r2, [r7, #28]
70000eb4:	fa22 f303 	lsr.w	r3, r2, r3
70000eb8:	4a0c      	ldr	r2, [pc, #48]	@ (70000eec <SystemCoreClockUpdate+0x26c>)
70000eba:	6013      	str	r3, [r2, #0]
  }
  else
  {
    SystemCoreClock = sysclk;
  }
}
70000ebc:	e002      	b.n	70000ec4 <SystemCoreClockUpdate+0x244>
    SystemCoreClock = sysclk;
70000ebe:	4a0b      	ldr	r2, [pc, #44]	@ (70000eec <SystemCoreClockUpdate+0x26c>)
70000ec0:	69fb      	ldr	r3, [r7, #28]
70000ec2:	6013      	str	r3, [r2, #0]
}
70000ec4:	bf00      	nop
70000ec6:	3724      	adds	r7, #36	@ 0x24
70000ec8:	46bd      	mov	sp, r7
70000eca:	f85d 7b04 	ldr.w	r7, [sp], #4
70000ece:	4770      	bx	lr
70000ed0:	58024400 	.word	0x58024400
70000ed4:	03d09000 	.word	0x03d09000
70000ed8:	003d0900 	.word	0x003d0900
70000edc:	016e3600 	.word	0x016e3600
70000ee0:	4bb71b00 	.word	0x4bb71b00
70000ee4:	46000000 	.word	0x46000000
70000ee8:	4a742400 	.word	0x4a742400
70000eec:	24000000 	.word	0x24000000

70000ef0 <MX_UART4_Init>:

UART_HandleTypeDef huart4;

/* UART4 init function */
void MX_UART4_Init(void)
{
70000ef0:	b580      	push	{r7, lr}
70000ef2:	af00      	add	r7, sp, #0
  /* USER CODE END UART4_Init 0 */

  /* USER CODE BEGIN UART4_Init 1 */

  /* USER CODE END UART4_Init 1 */
  huart4.Instance = UART4;
70000ef4:	4b22      	ldr	r3, [pc, #136]	@ (70000f80 <MX_UART4_Init+0x90>)
70000ef6:	4a23      	ldr	r2, [pc, #140]	@ (70000f84 <MX_UART4_Init+0x94>)
70000ef8:	601a      	str	r2, [r3, #0]
  huart4.Init.BaudRate = 115200;
70000efa:	4b21      	ldr	r3, [pc, #132]	@ (70000f80 <MX_UART4_Init+0x90>)
70000efc:	f44f 32e1 	mov.w	r2, #115200	@ 0x1c200
70000f00:	605a      	str	r2, [r3, #4]
  huart4.Init.WordLength = UART_WORDLENGTH_8B;
70000f02:	4b1f      	ldr	r3, [pc, #124]	@ (70000f80 <MX_UART4_Init+0x90>)
70000f04:	2200      	movs	r2, #0
70000f06:	609a      	str	r2, [r3, #8]
  huart4.Init.StopBits = UART_STOPBITS_1;
70000f08:	4b1d      	ldr	r3, [pc, #116]	@ (70000f80 <MX_UART4_Init+0x90>)
70000f0a:	2200      	movs	r2, #0
70000f0c:	60da      	str	r2, [r3, #12]
  huart4.Init.Parity = UART_PARITY_NONE;
70000f0e:	4b1c      	ldr	r3, [pc, #112]	@ (70000f80 <MX_UART4_Init+0x90>)
70000f10:	2200      	movs	r2, #0
70000f12:	611a      	str	r2, [r3, #16]
  huart4.Init.Mode = UART_MODE_TX_RX;
70000f14:	4b1a      	ldr	r3, [pc, #104]	@ (70000f80 <MX_UART4_Init+0x90>)
70000f16:	220c      	movs	r2, #12
70000f18:	615a      	str	r2, [r3, #20]
  huart4.Init.HwFlowCtl = UART_HWCONTROL_NONE;
70000f1a:	4b19      	ldr	r3, [pc, #100]	@ (70000f80 <MX_UART4_Init+0x90>)
70000f1c:	2200      	movs	r2, #0
70000f1e:	619a      	str	r2, [r3, #24]
  huart4.Init.OverSampling = UART_OVERSAMPLING_16;
70000f20:	4b17      	ldr	r3, [pc, #92]	@ (70000f80 <MX_UART4_Init+0x90>)
70000f22:	2200      	movs	r2, #0
70000f24:	61da      	str	r2, [r3, #28]
  huart4.Init.OneBitSampling = UART_ONE_BIT_SAMPLE_DISABLE;
70000f26:	4b16      	ldr	r3, [pc, #88]	@ (70000f80 <MX_UART4_Init+0x90>)
70000f28:	2200      	movs	r2, #0
70000f2a:	621a      	str	r2, [r3, #32]
  huart4.Init.ClockPrescaler = UART_PRESCALER_DIV1;
70000f2c:	4b14      	ldr	r3, [pc, #80]	@ (70000f80 <MX_UART4_Init+0x90>)
70000f2e:	2200      	movs	r2, #0
70000f30:	625a      	str	r2, [r3, #36]	@ 0x24
  huart4.AdvancedInit.AdvFeatureInit = UART_ADVFEATURE_NO_INIT;
70000f32:	4b13      	ldr	r3, [pc, #76]	@ (70000f80 <MX_UART4_Init+0x90>)
70000f34:	2200      	movs	r2, #0
70000f36:	629a      	str	r2, [r3, #40]	@ 0x28
  if (HAL_UART_Init(&huart4) != HAL_OK)
70000f38:	4811      	ldr	r0, [pc, #68]	@ (70000f80 <MX_UART4_Init+0x90>)
70000f3a:	f002 fdf7 	bl	70003b2c <HAL_UART_Init>
70000f3e:	4603      	mov	r3, r0
70000f40:	2b00      	cmp	r3, #0
70000f42:	d001      	beq.n	70000f48 <MX_UART4_Init+0x58>
  {
    Error_Handler();
70000f44:	f7ff fe54 	bl	70000bf0 <Error_Handler>
  }
  if (HAL_UARTEx_SetTxFifoThreshold(&huart4, UART_TXFIFO_THRESHOLD_1_8) != HAL_OK)
70000f48:	2100      	movs	r1, #0
70000f4a:	480d      	ldr	r0, [pc, #52]	@ (70000f80 <MX_UART4_Init+0x90>)
70000f4c:	f003 fe80 	bl	70004c50 <HAL_UARTEx_SetTxFifoThreshold>
70000f50:	4603      	mov	r3, r0
70000f52:	2b00      	cmp	r3, #0
70000f54:	d001      	beq.n	70000f5a <MX_UART4_Init+0x6a>
  {
    Error_Handler();
70000f56:	f7ff fe4b 	bl	70000bf0 <Error_Handler>
  }
  if (HAL_UARTEx_SetRxFifoThreshold(&huart4, UART_RXFIFO_THRESHOLD_1_8) != HAL_OK)
70000f5a:	2100      	movs	r1, #0
70000f5c:	4808      	ldr	r0, [pc, #32]	@ (70000f80 <MX_UART4_Init+0x90>)
70000f5e:	f003 ff11 	bl	70004d84 <HAL_UARTEx_SetRxFifoThreshold>
70000f62:	4603      	mov	r3, r0
70000f64:	2b00      	cmp	r3, #0
70000f66:	d001      	beq.n	70000f6c <MX_UART4_Init+0x7c>
  {
    Error_Handler();
70000f68:	f7ff fe42 	bl	70000bf0 <Error_Handler>
  }
  if (HAL_UARTEx_DisableFifoMode(&huart4) != HAL_OK)
70000f6c:	4804      	ldr	r0, [pc, #16]	@ (70000f80 <MX_UART4_Init+0x90>)
70000f6e:	f003 fdf9 	bl	70004b64 <HAL_UARTEx_DisableFifoMode>
70000f72:	4603      	mov	r3, r0
70000f74:	2b00      	cmp	r3, #0
70000f76:	d001      	beq.n	70000f7c <MX_UART4_Init+0x8c>
  {
    Error_Handler();
70000f78:	f7ff fe3a 	bl	70000bf0 <Error_Handler>
  }
  /* USER CODE BEGIN UART4_Init 2 */

  /* USER CODE END UART4_Init 2 */

}
70000f7c:	bf00      	nop
70000f7e:	bd80      	pop	{r7, pc}
70000f80:	24008310 	.word	0x24008310
70000f84:	40004c00 	.word	0x40004c00

70000f88 <HAL_UART_MspInit>:

void HAL_UART_MspInit(UART_HandleTypeDef* uartHandle)
{
70000f88:	b580      	push	{r7, lr}
70000f8a:	b0aa      	sub	sp, #168	@ 0xa8
70000f8c:	af00      	add	r7, sp, #0
70000f8e:	6078      	str	r0, [r7, #4]

  GPIO_InitTypeDef GPIO_InitStruct = {0};
70000f90:	f107 0394 	add.w	r3, r7, #148	@ 0x94
70000f94:	2200      	movs	r2, #0
70000f96:	601a      	str	r2, [r3, #0]
70000f98:	605a      	str	r2, [r3, #4]
70000f9a:	609a      	str	r2, [r3, #8]
70000f9c:	60da      	str	r2, [r3, #12]
70000f9e:	611a      	str	r2, [r3, #16]
  RCC_PeriphCLKInitTypeDef PeriphClkInit = {0};
70000fa0:	f107 0310 	add.w	r3, r7, #16
70000fa4:	2284      	movs	r2, #132	@ 0x84
70000fa6:	2100      	movs	r1, #0
70000fa8:	4618      	mov	r0, r3
70000faa:	f005 fbb5 	bl	70006718 <memset>
  if(uartHandle->Instance==UART4)
70000fae:	687b      	ldr	r3, [r7, #4]
70000fb0:	681b      	ldr	r3, [r3, #0]
70000fb2:	4a23      	ldr	r2, [pc, #140]	@ (70001040 <HAL_UART_MspInit+0xb8>)
70000fb4:	4293      	cmp	r3, r2
70000fb6:	d13e      	bne.n	70001036 <HAL_UART_MspInit+0xae>

  /* USER CODE END UART4_MspInit 0 */

  /** Initializes the peripherals clock
  */
    PeriphClkInit.PeriphClockSelection = RCC_PERIPHCLK_USART234578;
70000fb8:	f04f 5300 	mov.w	r3, #536870912	@ 0x20000000
70000fbc:	613b      	str	r3, [r7, #16]
    PeriphClkInit.Usart234578ClockSelection = RCC_USART234578CLKSOURCE_PCLK1;
70000fbe:	2300      	movs	r3, #0
70000fc0:	f8c7 3080 	str.w	r3, [r7, #128]	@ 0x80
    if (HAL_RCCEx_PeriphCLKConfig(&PeriphClkInit) != HAL_OK)
70000fc4:	f107 0310 	add.w	r3, r7, #16
70000fc8:	4618      	mov	r0, r3
70000fca:	f001 f95f 	bl	7000228c <HAL_RCCEx_PeriphCLKConfig>
70000fce:	4603      	mov	r3, r0
70000fd0:	2b00      	cmp	r3, #0
70000fd2:	d001      	beq.n	70000fd8 <HAL_UART_MspInit+0x50>
    {
      Error_Handler();
70000fd4:	f7ff fe0c 	bl	70000bf0 <Error_Handler>
    }

    /* UART4 clock enable */
    __HAL_RCC_UART4_CLK_ENABLE();
70000fd8:	4b1a      	ldr	r3, [pc, #104]	@ (70001044 <HAL_UART_MspInit+0xbc>)
70000fda:	f8d3 3148 	ldr.w	r3, [r3, #328]	@ 0x148
70000fde:	4a19      	ldr	r2, [pc, #100]	@ (70001044 <HAL_UART_MspInit+0xbc>)
70000fe0:	f443 2300 	orr.w	r3, r3, #524288	@ 0x80000
70000fe4:	f8c2 3148 	str.w	r3, [r2, #328]	@ 0x148
70000fe8:	4b16      	ldr	r3, [pc, #88]	@ (70001044 <HAL_UART_MspInit+0xbc>)
70000fea:	f8d3 3148 	ldr.w	r3, [r3, #328]	@ 0x148
70000fee:	60fb      	str	r3, [r7, #12]
70000ff0:	68fb      	ldr	r3, [r7, #12]

    __HAL_RCC_GPIOD_CLK_ENABLE();
70000ff2:	4b14      	ldr	r3, [pc, #80]	@ (70001044 <HAL_UART_MspInit+0xbc>)
70000ff4:	f8d3 3140 	ldr.w	r3, [r3, #320]	@ 0x140
70000ff8:	4a12      	ldr	r2, [pc, #72]	@ (70001044 <HAL_UART_MspInit+0xbc>)
70000ffa:	f043 0308 	orr.w	r3, r3, #8
70000ffe:	f8c2 3140 	str.w	r3, [r2, #320]	@ 0x140
70001002:	4b10      	ldr	r3, [pc, #64]	@ (70001044 <HAL_UART_MspInit+0xbc>)
70001004:	f8d3 3140 	ldr.w	r3, [r3, #320]	@ 0x140
70001008:	60bb      	str	r3, [r7, #8]
7000100a:	68bb      	ldr	r3, [r7, #8]
    /**UART4 GPIO Configuration
    PD1     ------> UART4_TX
    PD0     ------> UART4_RX
    */
    GPIO_InitStruct.Pin = GPIO_PIN_1|GPIO_PIN_0;
7000100c:	2303      	movs	r3, #3
7000100e:	f8c7 3094 	str.w	r3, [r7, #148]	@ 0x94
    GPIO_InitStruct.Mode = GPIO_MODE_AF_PP;
70001012:	2302      	movs	r3, #2
70001014:	f8c7 3098 	str.w	r3, [r7, #152]	@ 0x98
    GPIO_InitStruct.Pull = GPIO_NOPULL;
70001018:	2300      	movs	r3, #0
7000101a:	f8c7 309c 	str.w	r3, [r7, #156]	@ 0x9c
    GPIO_InitStruct.Speed = GPIO_SPEED_FREQ_LOW;
7000101e:	2300      	movs	r3, #0
70001020:	f8c7 30a0 	str.w	r3, [r7, #160]	@ 0xa0
    GPIO_InitStruct.Alternate = GPIO_AF8_UART4;
70001024:	2308      	movs	r3, #8
70001026:	f8c7 30a4 	str.w	r3, [r7, #164]	@ 0xa4
    HAL_GPIO_Init(GPIOD, &GPIO_InitStruct);
7000102a:	f107 0394 	add.w	r3, r7, #148	@ 0x94
7000102e:	4619      	mov	r1, r3
70001030:	4805      	ldr	r0, [pc, #20]	@ (70001048 <HAL_UART_MspInit+0xc0>)
70001032:	f000 fb59 	bl	700016e8 <HAL_GPIO_Init>

  /* USER CODE BEGIN UART4_MspInit 1 */

  /* USER CODE END UART4_MspInit 1 */
  }
}
70001036:	bf00      	nop
70001038:	37a8      	adds	r7, #168	@ 0xa8
7000103a:	46bd      	mov	sp, r7
7000103c:	bd80      	pop	{r7, pc}
7000103e:	bf00      	nop
70001040:	40004c00 	.word	0x40004c00
70001044:	58024400 	.word	0x58024400
70001048:	58020c00 	.word	0x58020c00

7000104c <Reset_Handler>:

    .section  .text.Reset_Handler
  .weak  Reset_Handler
  .type  Reset_Handler, %function
Reset_Handler:
  ldr   r0, =_estack
7000104c:	480d      	ldr	r0, [pc, #52]	@ (70001084 <LoopForever+0x2>)
  mov   sp, r0          /* set stack pointer */
7000104e:	4685      	mov	sp, r0
/* Call the clock system initialization function.*/
  bl  SystemInit
70001050:	f7ff fe00 	bl	70000c54 <SystemInit>

/* Copy the data segment initializers from flash to SRAM */
  ldr r0, =_sdata
70001054:	480c      	ldr	r0, [pc, #48]	@ (70001088 <LoopForever+0x6>)
  ldr r1, =_edata
70001056:	490d      	ldr	r1, [pc, #52]	@ (7000108c <LoopForever+0xa>)
  ldr r2, =_sidata
70001058:	4a0d      	ldr	r2, [pc, #52]	@ (70001090 <LoopForever+0xe>)
  movs r3, #0
7000105a:	2300      	movs	r3, #0
  b LoopCopyDataInit
7000105c:	e002      	b.n	70001064 <LoopCopyDataInit>

7000105e <CopyDataInit>:

CopyDataInit:
  ldr r4, [r2, r3]
7000105e:	58d4      	ldr	r4, [r2, r3]
  str r4, [r0, r3]
70001060:	50c4      	str	r4, [r0, r3]
  adds r3, r3, #4
70001062:	3304      	adds	r3, #4

70001064 <LoopCopyDataInit>:

LoopCopyDataInit:
  adds r4, r0, r3
70001064:	18c4      	adds	r4, r0, r3
  cmp r4, r1
70001066:	428c      	cmp	r4, r1
  bcc CopyDataInit
70001068:	d3f9      	bcc.n	7000105e <CopyDataInit>

/* Zero fill the bss segment. */
  ldr r2, =_sbss
7000106a:	4a0a      	ldr	r2, [pc, #40]	@ (70001094 <LoopForever+0x12>)
  ldr r4, =_ebss
7000106c:	4c0a      	ldr	r4, [pc, #40]	@ (70001098 <LoopForever+0x16>)
  movs r3, #0
7000106e:	2300      	movs	r3, #0
  b LoopFillZerobss
70001070:	e001      	b.n	70001076 <LoopFillZerobss>

70001072 <FillZerobss>:

FillZerobss:
  str  r3, [r2]
70001072:	6013      	str	r3, [r2, #0]
  adds r2, r2, #4
70001074:	3204      	adds	r2, #4

70001076 <LoopFillZerobss>:

LoopFillZerobss:
  cmp r2, r4
70001076:	42a2      	cmp	r2, r4
  bcc FillZerobss
70001078:	d3fb      	bcc.n	70001072 <FillZerobss>

/* Call static constructors */
    bl __libc_init_array
7000107a:	f005 fb55 	bl	70006728 <__libc_init_array>
/* Call the application's entry point.*/
  bl  main
7000107e:	f7ff fced 	bl	70000a5c <main>

70001082 <LoopForever>:

LoopForever:
  b LoopForever
70001082:	e7fe      	b.n	70001082 <LoopForever>
  ldr   r0, =_estack
70001084:	24071c00 	.word	0x24071c00
  ldr r0, =_sdata
70001088:	24000000 	.word	0x24000000
  ldr r1, =_edata
7000108c:	24000010 	.word	0x24000010
  ldr r2, =_sidata
70001090:	70006a7c 	.word	0x70006a7c
  ldr r2, =_sbss
70001094:	24000010 	.word	0x24000010
  ldr r4, =_ebss
70001098:	240089ec 	.word	0x240089ec

7000109c <ADC1_2_IRQHandler>:
 * @retval : None
*/
    .section  .text.Default_Handler,"ax",%progbits
Default_Handler:
Infinite_Loop:
  b  Infinite_Loop
7000109c:	e7fe      	b.n	7000109c <ADC1_2_IRQHandler>

7000109e <HAL_Init>:
  *         each 1ms in the SysTick_Handler() interrupt handler.
  *
  * @retval HAL status
  */
HAL_StatusTypeDef HAL_Init(void)
{
7000109e:	b580      	push	{r7, lr}
700010a0:	b082      	sub	sp, #8
700010a2:	af00      	add	r7, sp, #0
  HAL_StatusTypeDef  status = HAL_OK;
700010a4:	2300      	movs	r3, #0
700010a6:	71fb      	strb	r3, [r7, #7]

  /* Set Interrupt Group Priority */
  HAL_NVIC_SetPriorityGrouping(NVIC_PRIORITYGROUP_4);
700010a8:	2003      	movs	r0, #3
700010aa:	f000 f90b 	bl	700012c4 <HAL_NVIC_SetPriorityGrouping>

  /* Use SysTick as time base source and configure 1ms tick */
  if (HAL_InitTick(TICK_INT_PRIORITY) != HAL_OK)
700010ae:	2000      	movs	r0, #0
700010b0:	f000 f80e 	bl	700010d0 <HAL_InitTick>
700010b4:	4603      	mov	r3, r0
700010b6:	2b00      	cmp	r3, #0
700010b8:	d002      	beq.n	700010c0 <HAL_Init+0x22>
  {
    status = HAL_ERROR;
700010ba:	2301      	movs	r3, #1
700010bc:	71fb      	strb	r3, [r7, #7]
700010be:	e001      	b.n	700010c4 <HAL_Init+0x26>
  }
  else
  {
    /* Init the low level hardware */
    HAL_MspInit();
700010c0:	f7ff fda7 	bl	70000c12 <HAL_MspInit>
  }

  /* Return function status */
  return status;
700010c4:	79fb      	ldrb	r3, [r7, #7]
}
700010c6:	4618      	mov	r0, r3
700010c8:	3708      	adds	r7, #8
700010ca:	46bd      	mov	sp, r7
700010cc:	bd80      	pop	{r7, pc}
	...

700010d0 <HAL_InitTick>:
  *       implementation  in user file.
  * @param TickPriority  Tick interrupt priority.
  * @retval HAL status
  */
__weak HAL_StatusTypeDef HAL_InitTick(uint32_t TickPriority)
{
700010d0:	b580      	push	{r7, lr}
700010d2:	b084      	sub	sp, #16
700010d4:	af00      	add	r7, sp, #0
700010d6:	6078      	str	r0, [r7, #4]
  HAL_StatusTypeDef  status = HAL_OK;
700010d8:	2300      	movs	r3, #0
700010da:	73fb      	strb	r3, [r7, #15]

  /* Check uwTickFreq for MisraC 2012 (even if uwTickFreq is a enum type that doesn't take the value zero)*/
  if ((uint32_t)uwTickFreq != 0U)
700010dc:	4b17      	ldr	r3, [pc, #92]	@ (7000113c <HAL_InitTick+0x6c>)
700010de:	781b      	ldrb	r3, [r3, #0]
700010e0:	2b00      	cmp	r3, #0
700010e2:	d023      	beq.n	7000112c <HAL_InitTick+0x5c>
  {
    /*Configure the SysTick to have interrupt in 1ms time basis*/
    if (HAL_SYSTICK_Config(SystemCoreClock / (1000U / (uint32_t)uwTickFreq)) == 0U)
700010e4:	4b16      	ldr	r3, [pc, #88]	@ (70001140 <HAL_InitTick+0x70>)
700010e6:	681a      	ldr	r2, [r3, #0]
700010e8:	4b14      	ldr	r3, [pc, #80]	@ (7000113c <HAL_InitTick+0x6c>)
700010ea:	781b      	ldrb	r3, [r3, #0]
700010ec:	4619      	mov	r1, r3
700010ee:	f44f 737a 	mov.w	r3, #1000	@ 0x3e8
700010f2:	fbb3 f3f1 	udiv	r3, r3, r1
700010f6:	fbb2 f3f3 	udiv	r3, r2, r3
700010fa:	4618      	mov	r0, r3
700010fc:	f000 f958 	bl	700013b0 <HAL_SYSTICK_Config>
70001100:	4603      	mov	r3, r0
70001102:	2b00      	cmp	r3, #0
70001104:	d10f      	bne.n	70001126 <HAL_InitTick+0x56>
    {
      /* Configure the SysTick IRQ priority */
      if (TickPriority < (1UL << __NVIC_PRIO_BITS))
70001106:	687b      	ldr	r3, [r7, #4]
70001108:	2b0f      	cmp	r3, #15
7000110a:	d809      	bhi.n	70001120 <HAL_InitTick+0x50>
      {
        HAL_NVIC_SetPriority(SysTick_IRQn, TickPriority, 0U);
7000110c:	2200      	movs	r2, #0
7000110e:	6879      	ldr	r1, [r7, #4]
70001110:	f04f 30ff 	mov.w	r0, #4294967295
70001114:	f000 f8f6 	bl	70001304 <HAL_NVIC_SetPriority>
        uwTickPrio = TickPriority;
70001118:	4a0a      	ldr	r2, [pc, #40]	@ (70001144 <HAL_InitTick+0x74>)
7000111a:	687b      	ldr	r3, [r7, #4]
7000111c:	6013      	str	r3, [r2, #0]
7000111e:	e007      	b.n	70001130 <HAL_InitTick+0x60>
      }
      else
      {
        status = HAL_ERROR;
70001120:	2301      	movs	r3, #1
70001122:	73fb      	strb	r3, [r7, #15]
70001124:	e004      	b.n	70001130 <HAL_InitTick+0x60>
      }
    }
    else
    {
      status = HAL_ERROR;
70001126:	2301      	movs	r3, #1
70001128:	73fb      	strb	r3, [r7, #15]
7000112a:	e001      	b.n	70001130 <HAL_InitTick+0x60>
    }
  }
  else
  {
    status = HAL_ERROR;
7000112c:	2301      	movs	r3, #1
7000112e:	73fb      	strb	r3, [r7, #15]
  }

  /* Return function status */
  return status;
70001130:	7bfb      	ldrb	r3, [r7, #15]
}
70001132:	4618      	mov	r0, r3
70001134:	3710      	adds	r7, #16
70001136:	46bd      	mov	sp, r7
70001138:	bd80      	pop	{r7, pc}
7000113a:	bf00      	nop
7000113c:	24000008 	.word	0x24000008
70001140:	24000000 	.word	0x24000000
70001144:	24000004 	.word	0x24000004

70001148 <HAL_GetTick>:
  * @note This function is declared as __weak to be overwritten in case of other
  *       implementations in user file.
  * @retval tick value
  */
__weak uint32_t HAL_GetTick(void)
{
70001148:	b480      	push	{r7}
7000114a:	af00      	add	r7, sp, #0
  return uwTick;
7000114c:	4b03      	ldr	r3, [pc, #12]	@ (7000115c <HAL_GetTick+0x14>)
7000114e:	681b      	ldr	r3, [r3, #0]
}
70001150:	4618      	mov	r0, r3
70001152:	46bd      	mov	sp, r7
70001154:	f85d 7b04 	ldr.w	r7, [sp], #4
70001158:	4770      	bx	lr
7000115a:	bf00      	nop
7000115c:	240083a4 	.word	0x240083a4

70001160 <__NVIC_SetPriorityGrouping>:
           In case of a conflict between priority grouping and available
           priority bits (__NVIC_PRIO_BITS), the smallest possible priority group is set.
  \param [in]      PriorityGroup  Priority grouping field.
 */
__STATIC_INLINE void __NVIC_SetPriorityGrouping(uint32_t PriorityGroup)
{
70001160:	b480      	push	{r7}
70001162:	b085      	sub	sp, #20
70001164:	af00      	add	r7, sp, #0
70001166:	6078      	str	r0, [r7, #4]
  uint32_t reg_value;
  uint32_t PriorityGroupTmp = (PriorityGroup & (uint32_t)0x07UL);             /* only values 0..7 are used          */
70001168:	687b      	ldr	r3, [r7, #4]
7000116a:	f003 0307 	and.w	r3, r3, #7
7000116e:	60fb      	str	r3, [r7, #12]

  reg_value  =  SCB->AIRCR;                                                   /* read old register configuration    */
70001170:	4b0b      	ldr	r3, [pc, #44]	@ (700011a0 <__NVIC_SetPriorityGrouping+0x40>)
70001172:	68db      	ldr	r3, [r3, #12]
70001174:	60bb      	str	r3, [r7, #8]
  reg_value &= ~((uint32_t)(SCB_AIRCR_VECTKEY_Msk | SCB_AIRCR_PRIGROUP_Msk)); /* clear bits to change               */
70001176:	68ba      	ldr	r2, [r7, #8]
70001178:	f64f 03ff 	movw	r3, #63743	@ 0xf8ff
7000117c:	4013      	ands	r3, r2
7000117e:	60bb      	str	r3, [r7, #8]
  reg_value  =  (reg_value                                   |
                ((uint32_t)0x5FAUL << SCB_AIRCR_VECTKEY_Pos) |
                (PriorityGroupTmp << SCB_AIRCR_PRIGROUP_Pos)  );              /* Insert write key and priority group */
70001180:	68fb      	ldr	r3, [r7, #12]
70001182:	021a      	lsls	r2, r3, #8
                ((uint32_t)0x5FAUL << SCB_AIRCR_VECTKEY_Pos) |
70001184:	68bb      	ldr	r3, [r7, #8]
70001186:	431a      	orrs	r2, r3
  reg_value  =  (reg_value                                   |
70001188:	4b06      	ldr	r3, [pc, #24]	@ (700011a4 <__NVIC_SetPriorityGrouping+0x44>)
7000118a:	4313      	orrs	r3, r2
7000118c:	60bb      	str	r3, [r7, #8]
  SCB->AIRCR =  reg_value;
7000118e:	4a04      	ldr	r2, [pc, #16]	@ (700011a0 <__NVIC_SetPriorityGrouping+0x40>)
70001190:	68bb      	ldr	r3, [r7, #8]
70001192:	60d3      	str	r3, [r2, #12]
}
70001194:	bf00      	nop
70001196:	3714      	adds	r7, #20
70001198:	46bd      	mov	sp, r7
7000119a:	f85d 7b04 	ldr.w	r7, [sp], #4
7000119e:	4770      	bx	lr
700011a0:	e000ed00 	.word	0xe000ed00
700011a4:	05fa0000 	.word	0x05fa0000

700011a8 <__NVIC_GetPriorityGrouping>:
  \brief   Get Priority Grouping
  \details Reads the priority grouping field from the NVIC Interrupt Controller.
  \return                Priority grouping field (SCB->AIRCR [10:8] PRIGROUP field).
 */
__STATIC_INLINE uint32_t __NVIC_GetPriorityGrouping(void)
{
700011a8:	b480      	push	{r7}
700011aa:	af00      	add	r7, sp, #0
  return ((uint32_t)((SCB->AIRCR & SCB_AIRCR_PRIGROUP_Msk) >> SCB_AIRCR_PRIGROUP_Pos));
700011ac:	4b04      	ldr	r3, [pc, #16]	@ (700011c0 <__NVIC_GetPriorityGrouping+0x18>)
700011ae:	68db      	ldr	r3, [r3, #12]
700011b0:	0a1b      	lsrs	r3, r3, #8
700011b2:	f003 0307 	and.w	r3, r3, #7
}
700011b6:	4618      	mov	r0, r3
700011b8:	46bd      	mov	sp, r7
700011ba:	f85d 7b04 	ldr.w	r7, [sp], #4
700011be:	4770      	bx	lr
700011c0:	e000ed00 	.word	0xe000ed00

700011c4 <__NVIC_SetPriority>:
  \param [in]      IRQn  Interrupt number.
  \param [in]  priority  Priority to set.
  \note    The priority cannot be set for every processor exception.
 */
__STATIC_INLINE void __NVIC_SetPriority(IRQn_Type IRQn, uint32_t priority)
{
700011c4:	b480      	push	{r7}
700011c6:	b083      	sub	sp, #12
700011c8:	af00      	add	r7, sp, #0
700011ca:	4603      	mov	r3, r0
700011cc:	6039      	str	r1, [r7, #0]
700011ce:	80fb      	strh	r3, [r7, #6]
  if ((int32_t)(IRQn) >= 0)
700011d0:	f9b7 3006 	ldrsh.w	r3, [r7, #6]
700011d4:	2b00      	cmp	r3, #0
700011d6:	db0a      	blt.n	700011ee <__NVIC_SetPriority+0x2a>
  {
    NVIC->IP[((uint32_t)IRQn)]                = (uint8_t)((priority << (8U - __NVIC_PRIO_BITS)) & (uint32_t)0xFFUL);
700011d8:	683b      	ldr	r3, [r7, #0]
700011da:	b2da      	uxtb	r2, r3
700011dc:	490c      	ldr	r1, [pc, #48]	@ (70001210 <__NVIC_SetPriority+0x4c>)
700011de:	f9b7 3006 	ldrsh.w	r3, [r7, #6]
700011e2:	0112      	lsls	r2, r2, #4
700011e4:	b2d2      	uxtb	r2, r2
700011e6:	440b      	add	r3, r1
700011e8:	f883 2300 	strb.w	r2, [r3, #768]	@ 0x300
  }
  else
  {
    SCB->SHPR[(((uint32_t)IRQn) & 0xFUL)-4UL] = (uint8_t)((priority << (8U - __NVIC_PRIO_BITS)) & (uint32_t)0xFFUL);
  }
}
700011ec:	e00a      	b.n	70001204 <__NVIC_SetPriority+0x40>
    SCB->SHPR[(((uint32_t)IRQn) & 0xFUL)-4UL] = (uint8_t)((priority << (8U - __NVIC_PRIO_BITS)) & (uint32_t)0xFFUL);
700011ee:	683b      	ldr	r3, [r7, #0]
700011f0:	b2da      	uxtb	r2, r3
700011f2:	4908      	ldr	r1, [pc, #32]	@ (70001214 <__NVIC_SetPriority+0x50>)
700011f4:	88fb      	ldrh	r3, [r7, #6]
700011f6:	f003 030f 	and.w	r3, r3, #15
700011fa:	3b04      	subs	r3, #4
700011fc:	0112      	lsls	r2, r2, #4
700011fe:	b2d2      	uxtb	r2, r2
70001200:	440b      	add	r3, r1
70001202:	761a      	strb	r2, [r3, #24]
}
70001204:	bf00      	nop
70001206:	370c      	adds	r7, #12
70001208:	46bd      	mov	sp, r7
7000120a:	f85d 7b04 	ldr.w	r7, [sp], #4
7000120e:	4770      	bx	lr
70001210:	e000e100 	.word	0xe000e100
70001214:	e000ed00 	.word	0xe000ed00

70001218 <NVIC_EncodePriority>:
  \param [in]   PreemptPriority  Preemptive priority value (starting from 0).
  \param [in]       SubPriority  Subpriority value (starting from 0).
  \return                        Encoded priority. Value can be used in the function \ref NVIC_SetPriority().
 */
__STATIC_INLINE uint32_t NVIC_EncodePriority (uint32_t PriorityGroup, uint32_t PreemptPriority, uint32_t SubPriority)
{
70001218:	b480      	push	{r7}
7000121a:	b089      	sub	sp, #36	@ 0x24
7000121c:	af00      	add	r7, sp, #0
7000121e:	60f8      	str	r0, [r7, #12]
70001220:	60b9      	str	r1, [r7, #8]
70001222:	607a      	str	r2, [r7, #4]
  uint32_t PriorityGroupTmp = (PriorityGroup & (uint32_t)0x07UL);   /* only values 0..7 are used          */
70001224:	68fb      	ldr	r3, [r7, #12]
70001226:	f003 0307 	and.w	r3, r3, #7
7000122a:	61fb      	str	r3, [r7, #28]
  uint32_t PreemptPriorityBits;
  uint32_t SubPriorityBits;

  PreemptPriorityBits = ((7UL - PriorityGroupTmp) > (uint32_t)(__NVIC_PRIO_BITS)) ? (uint32_t)(__NVIC_PRIO_BITS) : (uint32_t)(7UL - PriorityGroupTmp);
7000122c:	69fb      	ldr	r3, [r7, #28]
7000122e:	f1c3 0307 	rsb	r3, r3, #7
70001232:	2b04      	cmp	r3, #4
70001234:	bf28      	it	cs
70001236:	2304      	movcs	r3, #4
70001238:	61bb      	str	r3, [r7, #24]
  SubPriorityBits     = ((PriorityGroupTmp + (uint32_t)(__NVIC_PRIO_BITS)) < (uint32_t)7UL) ? (uint32_t)0UL : (uint32_t)((PriorityGroupTmp - 7UL) + (uint32_t)(__NVIC_PRIO_BITS));
7000123a:	69fb      	ldr	r3, [r7, #28]
7000123c:	3304      	adds	r3, #4
7000123e:	2b06      	cmp	r3, #6
70001240:	d902      	bls.n	70001248 <NVIC_EncodePriority+0x30>
70001242:	69fb      	ldr	r3, [r7, #28]
70001244:	3b03      	subs	r3, #3
70001246:	e000      	b.n	7000124a <NVIC_EncodePriority+0x32>
70001248:	2300      	movs	r3, #0
7000124a:	617b      	str	r3, [r7, #20]

  return (
           ((PreemptPriority & (uint32_t)((1UL << (PreemptPriorityBits)) - 1UL)) << SubPriorityBits) |
7000124c:	f04f 32ff 	mov.w	r2, #4294967295
70001250:	69bb      	ldr	r3, [r7, #24]
70001252:	fa02 f303 	lsl.w	r3, r2, r3
70001256:	43da      	mvns	r2, r3
70001258:	68bb      	ldr	r3, [r7, #8]
7000125a:	401a      	ands	r2, r3
7000125c:	697b      	ldr	r3, [r7, #20]
7000125e:	409a      	lsls	r2, r3
           ((SubPriority     & (uint32_t)((1UL << (SubPriorityBits    )) - 1UL)))
70001260:	f04f 31ff 	mov.w	r1, #4294967295
70001264:	697b      	ldr	r3, [r7, #20]
70001266:	fa01 f303 	lsl.w	r3, r1, r3
7000126a:	43d9      	mvns	r1, r3
7000126c:	687b      	ldr	r3, [r7, #4]
7000126e:	400b      	ands	r3, r1
           ((PreemptPriority & (uint32_t)((1UL << (PreemptPriorityBits)) - 1UL)) << SubPriorityBits) |
70001270:	4313      	orrs	r3, r2
         );
}
70001272:	4618      	mov	r0, r3
70001274:	3724      	adds	r7, #36	@ 0x24
70001276:	46bd      	mov	sp, r7
70001278:	f85d 7b04 	ldr.w	r7, [sp], #4
7000127c:	4770      	bx	lr
	...

70001280 <SysTick_Config>:
  \note    When the variable <b>__Vendor_SysTickConfig</b> is set to 1, then the
           function <b>SysTick_Config</b> is not included. In this case, the file <b><i>device</i>.h</b>
           must contain a vendor-specific implementation of this function.
 */
__STATIC_INLINE uint32_t SysTick_Config(uint32_t ticks)
{
70001280:	b580      	push	{r7, lr}
70001282:	b082      	sub	sp, #8
70001284:	af00      	add	r7, sp, #0
70001286:	6078      	str	r0, [r7, #4]
  if ((ticks - 1UL) > SysTick_LOAD_RELOAD_Msk)
70001288:	687b      	ldr	r3, [r7, #4]
7000128a:	3b01      	subs	r3, #1
7000128c:	f1b3 7f80 	cmp.w	r3, #16777216	@ 0x1000000
70001290:	d301      	bcc.n	70001296 <SysTick_Config+0x16>
  {
    return (1UL);                                                   /* Reload value impossible */
70001292:	2301      	movs	r3, #1
70001294:	e00f      	b.n	700012b6 <SysTick_Config+0x36>
  }

  SysTick->LOAD  = (uint32_t)(ticks - 1UL);                         /* set reload register */
70001296:	4a0a      	ldr	r2, [pc, #40]	@ (700012c0 <SysTick_Config+0x40>)
70001298:	687b      	ldr	r3, [r7, #4]
7000129a:	3b01      	subs	r3, #1
7000129c:	6053      	str	r3, [r2, #4]
  NVIC_SetPriority (SysTick_IRQn, (1UL << __NVIC_PRIO_BITS) - 1UL); /* set Priority for Systick Interrupt */
7000129e:	210f      	movs	r1, #15
700012a0:	f04f 30ff 	mov.w	r0, #4294967295
700012a4:	f7ff ff8e 	bl	700011c4 <__NVIC_SetPriority>
  SysTick->VAL   = 0UL;                                             /* Load the SysTick Counter Value */
700012a8:	4b05      	ldr	r3, [pc, #20]	@ (700012c0 <SysTick_Config+0x40>)
700012aa:	2200      	movs	r2, #0
700012ac:	609a      	str	r2, [r3, #8]
  SysTick->CTRL  = SysTick_CTRL_CLKSOURCE_Msk |
700012ae:	4b04      	ldr	r3, [pc, #16]	@ (700012c0 <SysTick_Config+0x40>)
700012b0:	2207      	movs	r2, #7
700012b2:	601a      	str	r2, [r3, #0]
                   SysTick_CTRL_TICKINT_Msk   |
                   SysTick_CTRL_ENABLE_Msk;                         /* Enable SysTick IRQ and SysTick Timer */
  return (0UL);                                                     /* Function successful */
700012b4:	2300      	movs	r3, #0
}
700012b6:	4618      	mov	r0, r3
700012b8:	3708      	adds	r7, #8
700012ba:	46bd      	mov	sp, r7
700012bc:	bd80      	pop	{r7, pc}
700012be:	bf00      	nop
700012c0:	e000e010 	.word	0xe000e010

700012c4 <HAL_NVIC_SetPriorityGrouping>:
  * @note   When the NVIC_PriorityGroup_0 is selected, IRQ pre-emption is no more possible.
  *         The pending IRQ priority will be managed only by the subpriority.
  * @retval None
  */
void HAL_NVIC_SetPriorityGrouping(uint32_t PriorityGroup)
{
700012c4:	b580      	push	{r7, lr}
700012c6:	b082      	sub	sp, #8
700012c8:	af00      	add	r7, sp, #0
700012ca:	6078      	str	r0, [r7, #4]
  /* Check the parameters */
  assert_param(IS_NVIC_PRIORITY_GROUP(PriorityGroup));
700012cc:	687b      	ldr	r3, [r7, #4]
700012ce:	2b07      	cmp	r3, #7
700012d0:	d00f      	beq.n	700012f2 <HAL_NVIC_SetPriorityGrouping+0x2e>
700012d2:	687b      	ldr	r3, [r7, #4]
700012d4:	2b06      	cmp	r3, #6
700012d6:	d00c      	beq.n	700012f2 <HAL_NVIC_SetPriorityGrouping+0x2e>
700012d8:	687b      	ldr	r3, [r7, #4]
700012da:	2b05      	cmp	r3, #5
700012dc:	d009      	beq.n	700012f2 <HAL_NVIC_SetPriorityGrouping+0x2e>
700012de:	687b      	ldr	r3, [r7, #4]
700012e0:	2b04      	cmp	r3, #4
700012e2:	d006      	beq.n	700012f2 <HAL_NVIC_SetPriorityGrouping+0x2e>
700012e4:	687b      	ldr	r3, [r7, #4]
700012e6:	2b03      	cmp	r3, #3
700012e8:	d003      	beq.n	700012f2 <HAL_NVIC_SetPriorityGrouping+0x2e>
700012ea:	21a6      	movs	r1, #166	@ 0xa6
700012ec:	4804      	ldr	r0, [pc, #16]	@ (70001300 <HAL_NVIC_SetPriorityGrouping+0x3c>)
700012ee:	f7ff fc85 	bl	70000bfc <assert_failed>

  /* Set the PRIGROUP[10:8] bits according to the PriorityGroup parameter value */
  NVIC_SetPriorityGrouping(PriorityGroup);
700012f2:	6878      	ldr	r0, [r7, #4]
700012f4:	f7ff ff34 	bl	70001160 <__NVIC_SetPriorityGrouping>
}
700012f8:	bf00      	nop
700012fa:	3708      	adds	r7, #8
700012fc:	46bd      	mov	sp, r7
700012fe:	bd80      	pop	{r7, pc}
70001300:	700067a4 	.word	0x700067a4

70001304 <HAL_NVIC_SetPriority>:
  *         This parameter can be a value between 0 and 15
  *         A lower priority value indicates a higher priority.
  * @retval None
  */
void HAL_NVIC_SetPriority(IRQn_Type IRQn, uint32_t PreemptPriority, uint32_t SubPriority)
{
70001304:	b580      	push	{r7, lr}
70001306:	b086      	sub	sp, #24
70001308:	af00      	add	r7, sp, #0
7000130a:	4603      	mov	r3, r0
7000130c:	60b9      	str	r1, [r7, #8]
7000130e:	607a      	str	r2, [r7, #4]
70001310:	81fb      	strh	r3, [r7, #14]
  uint32_t prioritygroup;

  /* Check the parameters */
  assert_param(IS_NVIC_PRIO_INTERRUPT(IRQn));
70001312:	f9b7 300e 	ldrsh.w	r3, [r7, #14]
70001316:	f113 0f0c 	cmn.w	r3, #12
7000131a:	db04      	blt.n	70001326 <HAL_NVIC_SetPriority+0x22>
7000131c:	f9b7 300e 	ldrsh.w	r3, [r7, #14]
70001320:	f113 0f04 	cmn.w	r3, #4
70001324:	d103      	bne.n	7000132e <HAL_NVIC_SetPriority+0x2a>
70001326:	21bf      	movs	r1, #191	@ 0xbf
70001328:	4820      	ldr	r0, [pc, #128]	@ (700013ac <HAL_NVIC_SetPriority+0xa8>)
7000132a:	f7ff fc67 	bl	70000bfc <assert_failed>
  prioritygroup = NVIC_GetPriorityGrouping();
7000132e:	f7ff ff3b 	bl	700011a8 <__NVIC_GetPriorityGrouping>
70001332:	6178      	str	r0, [r7, #20]
  assert_param(IS_NVIC_SUB_PRIORITY(SubPriority, prioritygroup));
70001334:	697b      	ldr	r3, [r7, #20]
70001336:	2b02      	cmp	r3, #2
70001338:	d806      	bhi.n	70001348 <HAL_NVIC_SetPriority+0x44>
7000133a:	687b      	ldr	r3, [r7, #4]
7000133c:	2b00      	cmp	r3, #0
7000133e:	bf0c      	ite	eq
70001340:	2301      	moveq	r3, #1
70001342:	2300      	movne	r3, #0
70001344:	b2db      	uxtb	r3, r3
70001346:	e00a      	b.n	7000135e <HAL_NVIC_SetPriority+0x5a>
70001348:	697b      	ldr	r3, [r7, #20]
7000134a:	3b03      	subs	r3, #3
7000134c:	2201      	movs	r2, #1
7000134e:	fa02 f303 	lsl.w	r3, r2, r3
70001352:	687a      	ldr	r2, [r7, #4]
70001354:	429a      	cmp	r2, r3
70001356:	bf34      	ite	cc
70001358:	2301      	movcc	r3, #1
7000135a:	2300      	movcs	r3, #0
7000135c:	b2db      	uxtb	r3, r3
7000135e:	2b00      	cmp	r3, #0
70001360:	d103      	bne.n	7000136a <HAL_NVIC_SetPriority+0x66>
70001362:	21c1      	movs	r1, #193	@ 0xc1
70001364:	4811      	ldr	r0, [pc, #68]	@ (700013ac <HAL_NVIC_SetPriority+0xa8>)
70001366:	f7ff fc49 	bl	70000bfc <assert_failed>
  assert_param(IS_NVIC_PREEMPTION_PRIORITY(PreemptPriority, prioritygroup));
7000136a:	68bb      	ldr	r3, [r7, #8]
7000136c:	2b0f      	cmp	r3, #15
7000136e:	d808      	bhi.n	70001382 <HAL_NVIC_SetPriority+0x7e>
70001370:	697b      	ldr	r3, [r7, #20]
70001372:	f1c3 0307 	rsb	r3, r3, #7
70001376:	2201      	movs	r2, #1
70001378:	fa02 f303 	lsl.w	r3, r2, r3
7000137c:	68ba      	ldr	r2, [r7, #8]
7000137e:	429a      	cmp	r2, r3
70001380:	d303      	bcc.n	7000138a <HAL_NVIC_SetPriority+0x86>
70001382:	21c2      	movs	r1, #194	@ 0xc2
70001384:	4809      	ldr	r0, [pc, #36]	@ (700013ac <HAL_NVIC_SetPriority+0xa8>)
70001386:	f7ff fc39 	bl	70000bfc <assert_failed>

  NVIC_SetPriority(IRQn, NVIC_EncodePriority(prioritygroup, PreemptPriority, SubPriority));
7000138a:	687a      	ldr	r2, [r7, #4]
7000138c:	68b9      	ldr	r1, [r7, #8]
7000138e:	6978      	ldr	r0, [r7, #20]
70001390:	f7ff ff42 	bl	70001218 <NVIC_EncodePriority>
70001394:	4602      	mov	r2, r0
70001396:	f9b7 300e 	ldrsh.w	r3, [r7, #14]
7000139a:	4611      	mov	r1, r2
7000139c:	4618      	mov	r0, r3
7000139e:	f7ff ff11 	bl	700011c4 <__NVIC_SetPriority>
}
700013a2:	bf00      	nop
700013a4:	3718      	adds	r7, #24
700013a6:	46bd      	mov	sp, r7
700013a8:	bd80      	pop	{r7, pc}
700013aa:	bf00      	nop
700013ac:	700067a4 	.word	0x700067a4

700013b0 <HAL_SYSTICK_Config>:
  * @param  TicksNumb Specifies the ticks Number of ticks between two interrupts.
  * @retval status:  - 0  Function succeeded.
  *                  - 1  Function failed.
  */
uint32_t HAL_SYSTICK_Config(uint32_t TicksNumb)
{
700013b0:	b580      	push	{r7, lr}
700013b2:	b082      	sub	sp, #8
700013b4:	af00      	add	r7, sp, #0
700013b6:	6078      	str	r0, [r7, #4]
  return SysTick_Config(TicksNumb);
700013b8:	6878      	ldr	r0, [r7, #4]
700013ba:	f7ff ff61 	bl	70001280 <SysTick_Config>
700013be:	4603      	mov	r3, r0
}
700013c0:	4618      	mov	r0, r3
700013c2:	3708      	adds	r7, #8
700013c4:	46bd      	mov	sp, r7
700013c6:	bd80      	pop	{r7, pc}

700013c8 <HAL_MPU_Enable>:
  *            @arg MPU_PRIVILEGED_DEFAULT
  *            @arg MPU_HFNMI_PRIVDEF
  * @retval None
  */
void HAL_MPU_Enable(uint32_t MPU_Control)
{
700013c8:	b480      	push	{r7}
700013ca:	b083      	sub	sp, #12
700013cc:	af00      	add	r7, sp, #0
700013ce:	6078      	str	r0, [r7, #4]
  __ASM volatile ("dmb 0xF":::"memory");
700013d0:	f3bf 8f5f 	dmb	sy
}
700013d4:	bf00      	nop
  /* Force any outstanding transfers to complete before enabling MPU */
  __DMB();

  /* Enable the MPU */
  MPU->CTRL = (MPU_Control | MPU_CTRL_ENABLE_Msk);
700013d6:	4a0b      	ldr	r2, [pc, #44]	@ (70001404 <HAL_MPU_Enable+0x3c>)
700013d8:	687b      	ldr	r3, [r7, #4]
700013da:	f043 0301 	orr.w	r3, r3, #1
700013de:	6053      	str	r3, [r2, #4]

  /* Enable fault exceptions */
  SCB->SHCSR |= SCB_SHCSR_MEMFAULTENA_Msk;
700013e0:	4b09      	ldr	r3, [pc, #36]	@ (70001408 <HAL_MPU_Enable+0x40>)
700013e2:	6a5b      	ldr	r3, [r3, #36]	@ 0x24
700013e4:	4a08      	ldr	r2, [pc, #32]	@ (70001408 <HAL_MPU_Enable+0x40>)
700013e6:	f443 3380 	orr.w	r3, r3, #65536	@ 0x10000
700013ea:	6253      	str	r3, [r2, #36]	@ 0x24
  __ASM volatile ("dsb 0xF":::"memory");
700013ec:	f3bf 8f4f 	dsb	sy
}
700013f0:	bf00      	nop
  __ASM volatile ("isb 0xF":::"memory");
700013f2:	f3bf 8f6f 	isb	sy
}
700013f6:	bf00      	nop

  /* Ensure MPU setting take effects */
  __DSB();
  __ISB();
}
700013f8:	bf00      	nop
700013fa:	370c      	adds	r7, #12
700013fc:	46bd      	mov	sp, r7
700013fe:	f85d 7b04 	ldr.w	r7, [sp], #4
70001402:	4770      	bx	lr
70001404:	e000ed90 	.word	0xe000ed90
70001408:	e000ed00 	.word	0xe000ed00

7000140c <HAL_MPU_Disable>:
/**
  * @brief  Disable the MPU.
  * @retval None
  */
void HAL_MPU_Disable(void)
{
7000140c:	b480      	push	{r7}
7000140e:	af00      	add	r7, sp, #0
  __ASM volatile ("dmb 0xF":::"memory");
70001410:	f3bf 8f5f 	dmb	sy
}
70001414:	bf00      	nop
  /* Force any outstanding transfers to complete before disabling MPU */
  __DMB();

  /* Disable fault exceptions */
  SCB->SHCSR &= ~SCB_SHCSR_MEMFAULTENA_Msk;
70001416:	4b0a      	ldr	r3, [pc, #40]	@ (70001440 <HAL_MPU_Disable+0x34>)
70001418:	6a5b      	ldr	r3, [r3, #36]	@ 0x24
7000141a:	4a09      	ldr	r2, [pc, #36]	@ (70001440 <HAL_MPU_Disable+0x34>)
7000141c:	f423 3380 	bic.w	r3, r3, #65536	@ 0x10000
70001420:	6253      	str	r3, [r2, #36]	@ 0x24

  /* Disable the MPU and clear the control register */
  MPU->CTRL = 0U;
70001422:	4b08      	ldr	r3, [pc, #32]	@ (70001444 <HAL_MPU_Disable+0x38>)
70001424:	2200      	movs	r2, #0
70001426:	605a      	str	r2, [r3, #4]
  __ASM volatile ("dsb 0xF":::"memory");
70001428:	f3bf 8f4f 	dsb	sy
}
7000142c:	bf00      	nop
  __ASM volatile ("isb 0xF":::"memory");
7000142e:	f3bf 8f6f 	isb	sy
}
70001432:	bf00      	nop

  /* Ensure MPU setting take effects */
  __DSB();
  __ISB();
}
70001434:	bf00      	nop
70001436:	46bd      	mov	sp, r7
70001438:	f85d 7b04 	ldr.w	r7, [sp], #4
7000143c:	4770      	bx	lr
7000143e:	bf00      	nop
70001440:	e000ed00 	.word	0xe000ed00
70001444:	e000ed90 	.word	0xe000ed90

70001448 <HAL_MPU_ConfigRegion>:
  *                  the initialization and configuration information.
  * @note   The region base address must be aligned to the size of the region.
  * @retval None
  */
void HAL_MPU_ConfigRegion(const MPU_Region_InitTypeDef *pMPU_RegionInit)
{
70001448:	b580      	push	{r7, lr}
7000144a:	b082      	sub	sp, #8
7000144c:	af00      	add	r7, sp, #0
7000144e:	6078      	str	r0, [r7, #4]
  /* Check the parameters */
  assert_param(IS_MPU_REGION_NUMBER(pMPU_RegionInit->Number));
70001450:	687b      	ldr	r3, [r7, #4]
70001452:	785b      	ldrb	r3, [r3, #1]
70001454:	2b0f      	cmp	r3, #15
70001456:	d904      	bls.n	70001462 <HAL_MPU_ConfigRegion+0x1a>
70001458:	f240 11ff 	movw	r1, #511	@ 0x1ff
7000145c:	488c      	ldr	r0, [pc, #560]	@ (70001690 <HAL_MPU_ConfigRegion+0x248>)
7000145e:	f7ff fbcd 	bl	70000bfc <assert_failed>
  assert_param(IS_MPU_REGION_ENABLE(pMPU_RegionInit->Enable));
70001462:	687b      	ldr	r3, [r7, #4]
70001464:	781b      	ldrb	r3, [r3, #0]
70001466:	2b01      	cmp	r3, #1
70001468:	d008      	beq.n	7000147c <HAL_MPU_ConfigRegion+0x34>
7000146a:	687b      	ldr	r3, [r7, #4]
7000146c:	781b      	ldrb	r3, [r3, #0]
7000146e:	2b00      	cmp	r3, #0
70001470:	d004      	beq.n	7000147c <HAL_MPU_ConfigRegion+0x34>
70001472:	f44f 7100 	mov.w	r1, #512	@ 0x200
70001476:	4886      	ldr	r0, [pc, #536]	@ (70001690 <HAL_MPU_ConfigRegion+0x248>)
70001478:	f7ff fbc0 	bl	70000bfc <assert_failed>

  /* Set the Region number */
  MPU->RNR = pMPU_RegionInit->Number;
7000147c:	687b      	ldr	r3, [r7, #4]
7000147e:	785a      	ldrb	r2, [r3, #1]
70001480:	4b84      	ldr	r3, [pc, #528]	@ (70001694 <HAL_MPU_ConfigRegion+0x24c>)
70001482:	609a      	str	r2, [r3, #8]

  /* Check the parameters */
  assert_param(IS_MPU_INSTRUCTION_ACCESS(pMPU_RegionInit->DisableExec));
70001484:	687b      	ldr	r3, [r7, #4]
70001486:	7b1b      	ldrb	r3, [r3, #12]
70001488:	2b00      	cmp	r3, #0
7000148a:	d008      	beq.n	7000149e <HAL_MPU_ConfigRegion+0x56>
7000148c:	687b      	ldr	r3, [r7, #4]
7000148e:	7b1b      	ldrb	r3, [r3, #12]
70001490:	2b01      	cmp	r3, #1
70001492:	d004      	beq.n	7000149e <HAL_MPU_ConfigRegion+0x56>
70001494:	f240 2106 	movw	r1, #518	@ 0x206
70001498:	487d      	ldr	r0, [pc, #500]	@ (70001690 <HAL_MPU_ConfigRegion+0x248>)
7000149a:	f7ff fbaf 	bl	70000bfc <assert_failed>
  assert_param(IS_MPU_REGION_PERMISSION_ATTRIBUTE(pMPU_RegionInit->AccessPermission));
7000149e:	687b      	ldr	r3, [r7, #4]
700014a0:	7adb      	ldrb	r3, [r3, #11]
700014a2:	2b00      	cmp	r3, #0
700014a4:	d018      	beq.n	700014d8 <HAL_MPU_ConfigRegion+0x90>
700014a6:	687b      	ldr	r3, [r7, #4]
700014a8:	7adb      	ldrb	r3, [r3, #11]
700014aa:	2b01      	cmp	r3, #1
700014ac:	d014      	beq.n	700014d8 <HAL_MPU_ConfigRegion+0x90>
700014ae:	687b      	ldr	r3, [r7, #4]
700014b0:	7adb      	ldrb	r3, [r3, #11]
700014b2:	2b02      	cmp	r3, #2
700014b4:	d010      	beq.n	700014d8 <HAL_MPU_ConfigRegion+0x90>
700014b6:	687b      	ldr	r3, [r7, #4]
700014b8:	7adb      	ldrb	r3, [r3, #11]
700014ba:	2b03      	cmp	r3, #3
700014bc:	d00c      	beq.n	700014d8 <HAL_MPU_ConfigRegion+0x90>
700014be:	687b      	ldr	r3, [r7, #4]
700014c0:	7adb      	ldrb	r3, [r3, #11]
700014c2:	2b05      	cmp	r3, #5
700014c4:	d008      	beq.n	700014d8 <HAL_MPU_ConfigRegion+0x90>
700014c6:	687b      	ldr	r3, [r7, #4]
700014c8:	7adb      	ldrb	r3, [r3, #11]
700014ca:	2b06      	cmp	r3, #6
700014cc:	d004      	beq.n	700014d8 <HAL_MPU_ConfigRegion+0x90>
700014ce:	f240 2107 	movw	r1, #519	@ 0x207
700014d2:	486f      	ldr	r0, [pc, #444]	@ (70001690 <HAL_MPU_ConfigRegion+0x248>)
700014d4:	f7ff fb92 	bl	70000bfc <assert_failed>
  assert_param(IS_MPU_TEX_LEVEL(pMPU_RegionInit->TypeExtField));
700014d8:	687b      	ldr	r3, [r7, #4]
700014da:	7a9b      	ldrb	r3, [r3, #10]
700014dc:	2b00      	cmp	r3, #0
700014de:	d00c      	beq.n	700014fa <HAL_MPU_ConfigRegion+0xb2>
700014e0:	687b      	ldr	r3, [r7, #4]
700014e2:	7a9b      	ldrb	r3, [r3, #10]
700014e4:	2b01      	cmp	r3, #1
700014e6:	d008      	beq.n	700014fa <HAL_MPU_ConfigRegion+0xb2>
700014e8:	687b      	ldr	r3, [r7, #4]
700014ea:	7a9b      	ldrb	r3, [r3, #10]
700014ec:	2b02      	cmp	r3, #2
700014ee:	d004      	beq.n	700014fa <HAL_MPU_ConfigRegion+0xb2>
700014f0:	f44f 7102 	mov.w	r1, #520	@ 0x208
700014f4:	4866      	ldr	r0, [pc, #408]	@ (70001690 <HAL_MPU_ConfigRegion+0x248>)
700014f6:	f7ff fb81 	bl	70000bfc <assert_failed>
  assert_param(IS_MPU_ACCESS_SHAREABLE(pMPU_RegionInit->IsShareable));
700014fa:	687b      	ldr	r3, [r7, #4]
700014fc:	7b5b      	ldrb	r3, [r3, #13]
700014fe:	2b01      	cmp	r3, #1
70001500:	d008      	beq.n	70001514 <HAL_MPU_ConfigRegion+0xcc>
70001502:	687b      	ldr	r3, [r7, #4]
70001504:	7b5b      	ldrb	r3, [r3, #13]
70001506:	2b00      	cmp	r3, #0
70001508:	d004      	beq.n	70001514 <HAL_MPU_ConfigRegion+0xcc>
7000150a:	f240 2109 	movw	r1, #521	@ 0x209
7000150e:	4860      	ldr	r0, [pc, #384]	@ (70001690 <HAL_MPU_ConfigRegion+0x248>)
70001510:	f7ff fb74 	bl	70000bfc <assert_failed>
  assert_param(IS_MPU_ACCESS_CACHEABLE(pMPU_RegionInit->IsCacheable));
70001514:	687b      	ldr	r3, [r7, #4]
70001516:	7b9b      	ldrb	r3, [r3, #14]
70001518:	2b01      	cmp	r3, #1
7000151a:	d008      	beq.n	7000152e <HAL_MPU_ConfigRegion+0xe6>
7000151c:	687b      	ldr	r3, [r7, #4]
7000151e:	7b9b      	ldrb	r3, [r3, #14]
70001520:	2b00      	cmp	r3, #0
70001522:	d004      	beq.n	7000152e <HAL_MPU_ConfigRegion+0xe6>
70001524:	f240 210a 	movw	r1, #522	@ 0x20a
70001528:	4859      	ldr	r0, [pc, #356]	@ (70001690 <HAL_MPU_ConfigRegion+0x248>)
7000152a:	f7ff fb67 	bl	70000bfc <assert_failed>
  assert_param(IS_MPU_ACCESS_BUFFERABLE(pMPU_RegionInit->IsBufferable));
7000152e:	687b      	ldr	r3, [r7, #4]
70001530:	7bdb      	ldrb	r3, [r3, #15]
70001532:	2b01      	cmp	r3, #1
70001534:	d008      	beq.n	70001548 <HAL_MPU_ConfigRegion+0x100>
70001536:	687b      	ldr	r3, [r7, #4]
70001538:	7bdb      	ldrb	r3, [r3, #15]
7000153a:	2b00      	cmp	r3, #0
7000153c:	d004      	beq.n	70001548 <HAL_MPU_ConfigRegion+0x100>
7000153e:	f240 210b 	movw	r1, #523	@ 0x20b
70001542:	4853      	ldr	r0, [pc, #332]	@ (70001690 <HAL_MPU_ConfigRegion+0x248>)
70001544:	f7ff fb5a 	bl	70000bfc <assert_failed>
  assert_param(IS_MPU_SUB_REGION_DISABLE(pMPU_RegionInit->SubRegionDisable));
70001548:	687b      	ldr	r3, [r7, #4]
7000154a:	7a5b      	ldrb	r3, [r3, #9]
7000154c:	2bff      	cmp	r3, #255	@ 0xff
7000154e:	d104      	bne.n	7000155a <HAL_MPU_ConfigRegion+0x112>
70001550:	f44f 7103 	mov.w	r1, #524	@ 0x20c
70001554:	484e      	ldr	r0, [pc, #312]	@ (70001690 <HAL_MPU_ConfigRegion+0x248>)
70001556:	f7ff fb51 	bl	70000bfc <assert_failed>
  assert_param(IS_MPU_REGION_SIZE(pMPU_RegionInit->Size));
7000155a:	687b      	ldr	r3, [r7, #4]
7000155c:	7a1b      	ldrb	r3, [r3, #8]
7000155e:	2b04      	cmp	r3, #4
70001560:	d070      	beq.n	70001644 <HAL_MPU_ConfigRegion+0x1fc>
70001562:	687b      	ldr	r3, [r7, #4]
70001564:	7a1b      	ldrb	r3, [r3, #8]
70001566:	2b05      	cmp	r3, #5
70001568:	d06c      	beq.n	70001644 <HAL_MPU_ConfigRegion+0x1fc>
7000156a:	687b      	ldr	r3, [r7, #4]
7000156c:	7a1b      	ldrb	r3, [r3, #8]
7000156e:	2b06      	cmp	r3, #6
70001570:	d068      	beq.n	70001644 <HAL_MPU_ConfigRegion+0x1fc>
70001572:	687b      	ldr	r3, [r7, #4]
70001574:	7a1b      	ldrb	r3, [r3, #8]
70001576:	2b07      	cmp	r3, #7
70001578:	d064      	beq.n	70001644 <HAL_MPU_ConfigRegion+0x1fc>
7000157a:	687b      	ldr	r3, [r7, #4]
7000157c:	7a1b      	ldrb	r3, [r3, #8]
7000157e:	2b08      	cmp	r3, #8
70001580:	d060      	beq.n	70001644 <HAL_MPU_ConfigRegion+0x1fc>
70001582:	687b      	ldr	r3, [r7, #4]
70001584:	7a1b      	ldrb	r3, [r3, #8]
70001586:	2b09      	cmp	r3, #9
70001588:	d05c      	beq.n	70001644 <HAL_MPU_ConfigRegion+0x1fc>
7000158a:	687b      	ldr	r3, [r7, #4]
7000158c:	7a1b      	ldrb	r3, [r3, #8]
7000158e:	2b0a      	cmp	r3, #10
70001590:	d058      	beq.n	70001644 <HAL_MPU_ConfigRegion+0x1fc>
70001592:	687b      	ldr	r3, [r7, #4]
70001594:	7a1b      	ldrb	r3, [r3, #8]
70001596:	2b0b      	cmp	r3, #11
70001598:	d054      	beq.n	70001644 <HAL_MPU_ConfigRegion+0x1fc>
7000159a:	687b      	ldr	r3, [r7, #4]
7000159c:	7a1b      	ldrb	r3, [r3, #8]
7000159e:	2b0c      	cmp	r3, #12
700015a0:	d050      	beq.n	70001644 <HAL_MPU_ConfigRegion+0x1fc>
700015a2:	687b      	ldr	r3, [r7, #4]
700015a4:	7a1b      	ldrb	r3, [r3, #8]
700015a6:	2b0d      	cmp	r3, #13
700015a8:	d04c      	beq.n	70001644 <HAL_MPU_ConfigRegion+0x1fc>
700015aa:	687b      	ldr	r3, [r7, #4]
700015ac:	7a1b      	ldrb	r3, [r3, #8]
700015ae:	2b0e      	cmp	r3, #14
700015b0:	d048      	beq.n	70001644 <HAL_MPU_ConfigRegion+0x1fc>
700015b2:	687b      	ldr	r3, [r7, #4]
700015b4:	7a1b      	ldrb	r3, [r3, #8]
700015b6:	2b0f      	cmp	r3, #15
700015b8:	d044      	beq.n	70001644 <HAL_MPU_ConfigRegion+0x1fc>
700015ba:	687b      	ldr	r3, [r7, #4]
700015bc:	7a1b      	ldrb	r3, [r3, #8]
700015be:	2b10      	cmp	r3, #16
700015c0:	d040      	beq.n	70001644 <HAL_MPU_ConfigRegion+0x1fc>
700015c2:	687b      	ldr	r3, [r7, #4]
700015c4:	7a1b      	ldrb	r3, [r3, #8]
700015c6:	2b11      	cmp	r3, #17
700015c8:	d03c      	beq.n	70001644 <HAL_MPU_ConfigRegion+0x1fc>
700015ca:	687b      	ldr	r3, [r7, #4]
700015cc:	7a1b      	ldrb	r3, [r3, #8]
700015ce:	2b12      	cmp	r3, #18
700015d0:	d038      	beq.n	70001644 <HAL_MPU_ConfigRegion+0x1fc>
700015d2:	687b      	ldr	r3, [r7, #4]
700015d4:	7a1b      	ldrb	r3, [r3, #8]
700015d6:	2b13      	cmp	r3, #19
700015d8:	d034      	beq.n	70001644 <HAL_MPU_ConfigRegion+0x1fc>
700015da:	687b      	ldr	r3, [r7, #4]
700015dc:	7a1b      	ldrb	r3, [r3, #8]
700015de:	2b14      	cmp	r3, #20
700015e0:	d030      	beq.n	70001644 <HAL_MPU_ConfigRegion+0x1fc>
700015e2:	687b      	ldr	r3, [r7, #4]
700015e4:	7a1b      	ldrb	r3, [r3, #8]
700015e6:	2b15      	cmp	r3, #21
700015e8:	d02c      	beq.n	70001644 <HAL_MPU_ConfigRegion+0x1fc>
700015ea:	687b      	ldr	r3, [r7, #4]
700015ec:	7a1b      	ldrb	r3, [r3, #8]
700015ee:	2b16      	cmp	r3, #22
700015f0:	d028      	beq.n	70001644 <HAL_MPU_ConfigRegion+0x1fc>
700015f2:	687b      	ldr	r3, [r7, #4]
700015f4:	7a1b      	ldrb	r3, [r3, #8]
700015f6:	2b17      	cmp	r3, #23
700015f8:	d024      	beq.n	70001644 <HAL_MPU_ConfigRegion+0x1fc>
700015fa:	687b      	ldr	r3, [r7, #4]
700015fc:	7a1b      	ldrb	r3, [r3, #8]
700015fe:	2b18      	cmp	r3, #24
70001600:	d020      	beq.n	70001644 <HAL_MPU_ConfigRegion+0x1fc>
70001602:	687b      	ldr	r3, [r7, #4]
70001604:	7a1b      	ldrb	r3, [r3, #8]
70001606:	2b19      	cmp	r3, #25
70001608:	d01c      	beq.n	70001644 <HAL_MPU_ConfigRegion+0x1fc>
7000160a:	687b      	ldr	r3, [r7, #4]
7000160c:	7a1b      	ldrb	r3, [r3, #8]
7000160e:	2b1a      	cmp	r3, #26
70001610:	d018      	beq.n	70001644 <HAL_MPU_ConfigRegion+0x1fc>
70001612:	687b      	ldr	r3, [r7, #4]
70001614:	7a1b      	ldrb	r3, [r3, #8]
70001616:	2b1b      	cmp	r3, #27
70001618:	d014      	beq.n	70001644 <HAL_MPU_ConfigRegion+0x1fc>
7000161a:	687b      	ldr	r3, [r7, #4]
7000161c:	7a1b      	ldrb	r3, [r3, #8]
7000161e:	2b1c      	cmp	r3, #28
70001620:	d010      	beq.n	70001644 <HAL_MPU_ConfigRegion+0x1fc>
70001622:	687b      	ldr	r3, [r7, #4]
70001624:	7a1b      	ldrb	r3, [r3, #8]
70001626:	2b1d      	cmp	r3, #29
70001628:	d00c      	beq.n	70001644 <HAL_MPU_ConfigRegion+0x1fc>
7000162a:	687b      	ldr	r3, [r7, #4]
7000162c:	7a1b      	ldrb	r3, [r3, #8]
7000162e:	2b1e      	cmp	r3, #30
70001630:	d008      	beq.n	70001644 <HAL_MPU_ConfigRegion+0x1fc>
70001632:	687b      	ldr	r3, [r7, #4]
70001634:	7a1b      	ldrb	r3, [r3, #8]
70001636:	2b1f      	cmp	r3, #31
70001638:	d004      	beq.n	70001644 <HAL_MPU_ConfigRegion+0x1fc>
7000163a:	f240 210d 	movw	r1, #525	@ 0x20d
7000163e:	4814      	ldr	r0, [pc, #80]	@ (70001690 <HAL_MPU_ConfigRegion+0x248>)
70001640:	f7ff fadc 	bl	70000bfc <assert_failed>
  assert_param(IS_MPU_ADDRESS_MULTIPLE_SIZE(pMPU_RegionInit->BaseAddress, pMPU_RegionInit->Size));
70001644:	687b      	ldr	r3, [r7, #4]
70001646:	685a      	ldr	r2, [r3, #4]
70001648:	687b      	ldr	r3, [r7, #4]
7000164a:	7a1b      	ldrb	r3, [r3, #8]
7000164c:	3301      	adds	r3, #1
7000164e:	2101      	movs	r1, #1
70001650:	fa01 f303 	lsl.w	r3, r1, r3
70001654:	3b01      	subs	r3, #1
70001656:	4013      	ands	r3, r2
70001658:	2b00      	cmp	r3, #0
7000165a:	d004      	beq.n	70001666 <HAL_MPU_ConfigRegion+0x21e>
7000165c:	f240 210e 	movw	r1, #526	@ 0x20e
70001660:	480b      	ldr	r0, [pc, #44]	@ (70001690 <HAL_MPU_ConfigRegion+0x248>)
70001662:	f7ff facb 	bl	70000bfc <assert_failed>

  /* Disable the Region */
  CLEAR_BIT(MPU->RASR, MPU_RASR_ENABLE_Msk);
70001666:	4b0b      	ldr	r3, [pc, #44]	@ (70001694 <HAL_MPU_ConfigRegion+0x24c>)
70001668:	691b      	ldr	r3, [r3, #16]
7000166a:	4a0a      	ldr	r2, [pc, #40]	@ (70001694 <HAL_MPU_ConfigRegion+0x24c>)
7000166c:	f023 0301 	bic.w	r3, r3, #1
70001670:	6113      	str	r3, [r2, #16]

  /* Disable the Region */
  CLEAR_BIT(MPU->RASR, MPU_RASR_ENABLE_Msk);
70001672:	4b08      	ldr	r3, [pc, #32]	@ (70001694 <HAL_MPU_ConfigRegion+0x24c>)
70001674:	691b      	ldr	r3, [r3, #16]
70001676:	4a07      	ldr	r2, [pc, #28]	@ (70001694 <HAL_MPU_ConfigRegion+0x24c>)
70001678:	f023 0301 	bic.w	r3, r3, #1
7000167c:	6113      	str	r3, [r2, #16]
  MPU->RBAR = pMPU_RegionInit->BaseAddress;
7000167e:	4a05      	ldr	r2, [pc, #20]	@ (70001694 <HAL_MPU_ConfigRegion+0x24c>)
70001680:	687b      	ldr	r3, [r7, #4]
70001682:	685b      	ldr	r3, [r3, #4]
70001684:	60d3      	str	r3, [r2, #12]
  MPU->RASR = ((uint32_t)pMPU_RegionInit->DisableExec      << MPU_RASR_XN_Pos)   |
70001686:	687b      	ldr	r3, [r7, #4]
70001688:	7b1b      	ldrb	r3, [r3, #12]
7000168a:	071a      	lsls	r2, r3, #28
7000168c:	e004      	b.n	70001698 <HAL_MPU_ConfigRegion+0x250>
7000168e:	bf00      	nop
70001690:	700067a4 	.word	0x700067a4
70001694:	e000ed90 	.word	0xe000ed90
              ((uint32_t)pMPU_RegionInit->AccessPermission << MPU_RASR_AP_Pos)   |
70001698:	687b      	ldr	r3, [r7, #4]
7000169a:	7adb      	ldrb	r3, [r3, #11]
7000169c:	061b      	lsls	r3, r3, #24
  MPU->RASR = ((uint32_t)pMPU_RegionInit->DisableExec      << MPU_RASR_XN_Pos)   |
7000169e:	431a      	orrs	r2, r3
              ((uint32_t)pMPU_RegionInit->TypeExtField     << MPU_RASR_TEX_Pos)  |
700016a0:	687b      	ldr	r3, [r7, #4]
700016a2:	7a9b      	ldrb	r3, [r3, #10]
700016a4:	04db      	lsls	r3, r3, #19
              ((uint32_t)pMPU_RegionInit->AccessPermission << MPU_RASR_AP_Pos)   |
700016a6:	431a      	orrs	r2, r3
              ((uint32_t)pMPU_RegionInit->IsShareable      << MPU_RASR_S_Pos)    |
700016a8:	687b      	ldr	r3, [r7, #4]
700016aa:	7b5b      	ldrb	r3, [r3, #13]
700016ac:	049b      	lsls	r3, r3, #18
              ((uint32_t)pMPU_RegionInit->TypeExtField     << MPU_RASR_TEX_Pos)  |
700016ae:	431a      	orrs	r2, r3
              ((uint32_t)pMPU_RegionInit->IsCacheable      << MPU_RASR_C_Pos)    |
700016b0:	687b      	ldr	r3, [r7, #4]
700016b2:	7b9b      	ldrb	r3, [r3, #14]
700016b4:	045b      	lsls	r3, r3, #17
              ((uint32_t)pMPU_RegionInit->IsShareable      << MPU_RASR_S_Pos)    |
700016b6:	431a      	orrs	r2, r3
              ((uint32_t)pMPU_RegionInit->IsBufferable     << MPU_RASR_B_Pos)    |
700016b8:	687b      	ldr	r3, [r7, #4]
700016ba:	7bdb      	ldrb	r3, [r3, #15]
700016bc:	041b      	lsls	r3, r3, #16
              ((uint32_t)pMPU_RegionInit->IsCacheable      << MPU_RASR_C_Pos)    |
700016be:	431a      	orrs	r2, r3
              ((uint32_t)pMPU_RegionInit->SubRegionDisable << MPU_RASR_SRD_Pos)  |
700016c0:	687b      	ldr	r3, [r7, #4]
700016c2:	7a5b      	ldrb	r3, [r3, #9]
700016c4:	021b      	lsls	r3, r3, #8
              ((uint32_t)pMPU_RegionInit->IsBufferable     << MPU_RASR_B_Pos)    |
700016c6:	431a      	orrs	r2, r3
              ((uint32_t)pMPU_RegionInit->Size             << MPU_RASR_SIZE_Pos) |
700016c8:	687b      	ldr	r3, [r7, #4]
700016ca:	7a1b      	ldrb	r3, [r3, #8]
700016cc:	005b      	lsls	r3, r3, #1
              ((uint32_t)pMPU_RegionInit->SubRegionDisable << MPU_RASR_SRD_Pos)  |
700016ce:	4313      	orrs	r3, r2
              ((uint32_t)pMPU_RegionInit->Enable           << MPU_RASR_ENABLE_Pos);
700016d0:	687a      	ldr	r2, [r7, #4]
700016d2:	7812      	ldrb	r2, [r2, #0]
700016d4:	4611      	mov	r1, r2
  MPU->RASR = ((uint32_t)pMPU_RegionInit->DisableExec      << MPU_RASR_XN_Pos)   |
700016d6:	4a03      	ldr	r2, [pc, #12]	@ (700016e4 <HAL_MPU_ConfigRegion+0x29c>)
              ((uint32_t)pMPU_RegionInit->Size             << MPU_RASR_SIZE_Pos) |
700016d8:	430b      	orrs	r3, r1
  MPU->RASR = ((uint32_t)pMPU_RegionInit->DisableExec      << MPU_RASR_XN_Pos)   |
700016da:	6113      	str	r3, [r2, #16]
}
700016dc:	bf00      	nop
700016de:	3708      	adds	r7, #8
700016e0:	46bd      	mov	sp, r7
700016e2:	bd80      	pop	{r7, pc}
700016e4:	e000ed90 	.word	0xe000ed90

700016e8 <HAL_GPIO_Init>:
  * @param  GPIO_Init pointer to a GPIO_InitTypeDef structure that contains
  *         the configuration information for the specified GPIO peripheral.
  * @retval None
  */
void HAL_GPIO_Init(GPIO_TypeDef  *GPIOx, const GPIO_InitTypeDef *GPIO_Init)
{
700016e8:	b580      	push	{r7, lr}
700016ea:	b086      	sub	sp, #24
700016ec:	af00      	add	r7, sp, #0
700016ee:	6078      	str	r0, [r7, #4]
700016f0:	6039      	str	r1, [r7, #0]
  uint32_t position = 0x00u;
700016f2:	2300      	movs	r3, #0
700016f4:	617b      	str	r3, [r7, #20]
  uint32_t iocurrent;
  uint32_t temp;

  /* Check the parameters */
  assert_param(IS_GPIO_ALL_INSTANCE(GPIOx));
700016f6:	687b      	ldr	r3, [r7, #4]
700016f8:	4a43      	ldr	r2, [pc, #268]	@ (70001808 <HAL_GPIO_Init+0x120>)
700016fa:	4293      	cmp	r3, r2
700016fc:	d02f      	beq.n	7000175e <HAL_GPIO_Init+0x76>
700016fe:	687b      	ldr	r3, [r7, #4]
70001700:	4a42      	ldr	r2, [pc, #264]	@ (7000180c <HAL_GPIO_Init+0x124>)
70001702:	4293      	cmp	r3, r2
70001704:	d02b      	beq.n	7000175e <HAL_GPIO_Init+0x76>
70001706:	687b      	ldr	r3, [r7, #4]
70001708:	4a41      	ldr	r2, [pc, #260]	@ (70001810 <HAL_GPIO_Init+0x128>)
7000170a:	4293      	cmp	r3, r2
7000170c:	d027      	beq.n	7000175e <HAL_GPIO_Init+0x76>
7000170e:	687b      	ldr	r3, [r7, #4]
70001710:	4a40      	ldr	r2, [pc, #256]	@ (70001814 <HAL_GPIO_Init+0x12c>)
70001712:	4293      	cmp	r3, r2
70001714:	d023      	beq.n	7000175e <HAL_GPIO_Init+0x76>
70001716:	687b      	ldr	r3, [r7, #4]
70001718:	4a3f      	ldr	r2, [pc, #252]	@ (70001818 <HAL_GPIO_Init+0x130>)
7000171a:	4293      	cmp	r3, r2
7000171c:	d01f      	beq.n	7000175e <HAL_GPIO_Init+0x76>
7000171e:	687b      	ldr	r3, [r7, #4]
70001720:	4a3e      	ldr	r2, [pc, #248]	@ (7000181c <HAL_GPIO_Init+0x134>)
70001722:	4293      	cmp	r3, r2
70001724:	d01b      	beq.n	7000175e <HAL_GPIO_Init+0x76>
70001726:	687b      	ldr	r3, [r7, #4]
70001728:	4a3d      	ldr	r2, [pc, #244]	@ (70001820 <HAL_GPIO_Init+0x138>)
7000172a:	4293      	cmp	r3, r2
7000172c:	d017      	beq.n	7000175e <HAL_GPIO_Init+0x76>
7000172e:	687b      	ldr	r3, [r7, #4]
70001730:	4a3c      	ldr	r2, [pc, #240]	@ (70001824 <HAL_GPIO_Init+0x13c>)
70001732:	4293      	cmp	r3, r2
70001734:	d013      	beq.n	7000175e <HAL_GPIO_Init+0x76>
70001736:	687b      	ldr	r3, [r7, #4]
70001738:	4a3b      	ldr	r2, [pc, #236]	@ (70001828 <HAL_GPIO_Init+0x140>)
7000173a:	4293      	cmp	r3, r2
7000173c:	d00f      	beq.n	7000175e <HAL_GPIO_Init+0x76>
7000173e:	687b      	ldr	r3, [r7, #4]
70001740:	4a3a      	ldr	r2, [pc, #232]	@ (7000182c <HAL_GPIO_Init+0x144>)
70001742:	4293      	cmp	r3, r2
70001744:	d00b      	beq.n	7000175e <HAL_GPIO_Init+0x76>
70001746:	687b      	ldr	r3, [r7, #4]
70001748:	4a39      	ldr	r2, [pc, #228]	@ (70001830 <HAL_GPIO_Init+0x148>)
7000174a:	4293      	cmp	r3, r2
7000174c:	d007      	beq.n	7000175e <HAL_GPIO_Init+0x76>
7000174e:	687b      	ldr	r3, [r7, #4]
70001750:	4a38      	ldr	r2, [pc, #224]	@ (70001834 <HAL_GPIO_Init+0x14c>)
70001752:	4293      	cmp	r3, r2
70001754:	d003      	beq.n	7000175e <HAL_GPIO_Init+0x76>
70001756:	21ab      	movs	r1, #171	@ 0xab
70001758:	4837      	ldr	r0, [pc, #220]	@ (70001838 <HAL_GPIO_Init+0x150>)
7000175a:	f7ff fa4f 	bl	70000bfc <assert_failed>
  assert_param(IS_GPIO_PIN(GPIO_Init->Pin));
7000175e:	683b      	ldr	r3, [r7, #0]
70001760:	681b      	ldr	r3, [r3, #0]
70001762:	b29b      	uxth	r3, r3
70001764:	2b00      	cmp	r3, #0
70001766:	d004      	beq.n	70001772 <HAL_GPIO_Init+0x8a>
70001768:	683b      	ldr	r3, [r7, #0]
7000176a:	681b      	ldr	r3, [r3, #0]
7000176c:	f5b3 3f80 	cmp.w	r3, #65536	@ 0x10000
70001770:	d303      	bcc.n	7000177a <HAL_GPIO_Init+0x92>
70001772:	21ac      	movs	r1, #172	@ 0xac
70001774:	4830      	ldr	r0, [pc, #192]	@ (70001838 <HAL_GPIO_Init+0x150>)
70001776:	f7ff fa41 	bl	70000bfc <assert_failed>
  assert_param(IS_GPIO_MODE(GPIO_Init->Mode));
7000177a:	683b      	ldr	r3, [r7, #0]
7000177c:	685b      	ldr	r3, [r3, #4]
7000177e:	2b00      	cmp	r3, #0
70001780:	f000 8220 	beq.w	70001bc4 <HAL_GPIO_Init+0x4dc>
70001784:	683b      	ldr	r3, [r7, #0]
70001786:	685b      	ldr	r3, [r3, #4]
70001788:	2b01      	cmp	r3, #1
7000178a:	f000 821b 	beq.w	70001bc4 <HAL_GPIO_Init+0x4dc>
7000178e:	683b      	ldr	r3, [r7, #0]
70001790:	685b      	ldr	r3, [r3, #4]
70001792:	2b11      	cmp	r3, #17
70001794:	f000 8216 	beq.w	70001bc4 <HAL_GPIO_Init+0x4dc>
70001798:	683b      	ldr	r3, [r7, #0]
7000179a:	685b      	ldr	r3, [r3, #4]
7000179c:	2b02      	cmp	r3, #2
7000179e:	f000 8211 	beq.w	70001bc4 <HAL_GPIO_Init+0x4dc>
700017a2:	683b      	ldr	r3, [r7, #0]
700017a4:	685b      	ldr	r3, [r3, #4]
700017a6:	2b12      	cmp	r3, #18
700017a8:	f000 820c 	beq.w	70001bc4 <HAL_GPIO_Init+0x4dc>
700017ac:	683b      	ldr	r3, [r7, #0]
700017ae:	685b      	ldr	r3, [r3, #4]
700017b0:	f5b3 1f88 	cmp.w	r3, #1114112	@ 0x110000
700017b4:	f000 8206 	beq.w	70001bc4 <HAL_GPIO_Init+0x4dc>
700017b8:	683b      	ldr	r3, [r7, #0]
700017ba:	685b      	ldr	r3, [r3, #4]
700017bc:	f5b3 1f04 	cmp.w	r3, #2162688	@ 0x210000
700017c0:	f000 8200 	beq.w	70001bc4 <HAL_GPIO_Init+0x4dc>
700017c4:	683b      	ldr	r3, [r7, #0]
700017c6:	685b      	ldr	r3, [r3, #4]
700017c8:	f5b3 1f44 	cmp.w	r3, #3211264	@ 0x310000
700017cc:	f000 81fa 	beq.w	70001bc4 <HAL_GPIO_Init+0x4dc>
700017d0:	683b      	ldr	r3, [r7, #0]
700017d2:	685b      	ldr	r3, [r3, #4]
700017d4:	f5b3 1f90 	cmp.w	r3, #1179648	@ 0x120000
700017d8:	f000 81f4 	beq.w	70001bc4 <HAL_GPIO_Init+0x4dc>
700017dc:	683b      	ldr	r3, [r7, #0]
700017de:	685b      	ldr	r3, [r3, #4]
700017e0:	f5b3 1f08 	cmp.w	r3, #2228224	@ 0x220000
700017e4:	f000 81ee 	beq.w	70001bc4 <HAL_GPIO_Init+0x4dc>
700017e8:	683b      	ldr	r3, [r7, #0]
700017ea:	685b      	ldr	r3, [r3, #4]
700017ec:	f5b3 1f48 	cmp.w	r3, #3276800	@ 0x320000
700017f0:	f000 81e8 	beq.w	70001bc4 <HAL_GPIO_Init+0x4dc>
700017f4:	683b      	ldr	r3, [r7, #0]
700017f6:	685b      	ldr	r3, [r3, #4]
700017f8:	2b03      	cmp	r3, #3
700017fa:	f000 81e3 	beq.w	70001bc4 <HAL_GPIO_Init+0x4dc>
700017fe:	21ad      	movs	r1, #173	@ 0xad
70001800:	480d      	ldr	r0, [pc, #52]	@ (70001838 <HAL_GPIO_Init+0x150>)
70001802:	f7ff f9fb 	bl	70000bfc <assert_failed>

  /* Configure the port pins */
  while (((GPIO_Init->Pin) >> position) != 0x00u)
70001806:	e1dd      	b.n	70001bc4 <HAL_GPIO_Init+0x4dc>
70001808:	58020000 	.word	0x58020000
7000180c:	58020400 	.word	0x58020400
70001810:	58020800 	.word	0x58020800
70001814:	58020c00 	.word	0x58020c00
70001818:	58021000 	.word	0x58021000
7000181c:	58021400 	.word	0x58021400
70001820:	58021800 	.word	0x58021800
70001824:	58021c00 	.word	0x58021c00
70001828:	58023000 	.word	0x58023000
7000182c:	58023400 	.word	0x58023400
70001830:	58023800 	.word	0x58023800
70001834:	58023c00 	.word	0x58023c00
70001838:	70006810 	.word	0x70006810
  {
    /* Get current io position */
    iocurrent = (GPIO_Init->Pin) & (1uL << position);
7000183c:	683b      	ldr	r3, [r7, #0]
7000183e:	681a      	ldr	r2, [r3, #0]
70001840:	2101      	movs	r1, #1
70001842:	697b      	ldr	r3, [r7, #20]
70001844:	fa01 f303 	lsl.w	r3, r1, r3
70001848:	4013      	ands	r3, r2
7000184a:	60fb      	str	r3, [r7, #12]

    if (iocurrent != 0x00u)
7000184c:	68fb      	ldr	r3, [r7, #12]
7000184e:	2b00      	cmp	r3, #0
70001850:	f000 81b5 	beq.w	70001bbe <HAL_GPIO_Init+0x4d6>
    {
      /*--------------------- GPIO Mode Configuration ------------------------*/
      /* In case of Output or Alternate function mode selection */
      if (((GPIO_Init->Mode & GPIO_MODE) == MODE_OUTPUT) || ((GPIO_Init->Mode & GPIO_MODE) == MODE_AF))
70001854:	683b      	ldr	r3, [r7, #0]
70001856:	685b      	ldr	r3, [r3, #4]
70001858:	f003 0303 	and.w	r3, r3, #3
7000185c:	2b01      	cmp	r3, #1
7000185e:	d005      	beq.n	7000186c <HAL_GPIO_Init+0x184>
70001860:	683b      	ldr	r3, [r7, #0]
70001862:	685b      	ldr	r3, [r3, #4]
70001864:	f003 0303 	and.w	r3, r3, #3
70001868:	2b02      	cmp	r3, #2
7000186a:	d144      	bne.n	700018f6 <HAL_GPIO_Init+0x20e>
      {
        /* Check the Speed parameter */
        assert_param(IS_GPIO_SPEED(GPIO_Init->Speed));
7000186c:	683b      	ldr	r3, [r7, #0]
7000186e:	68db      	ldr	r3, [r3, #12]
70001870:	2b00      	cmp	r3, #0
70001872:	d00f      	beq.n	70001894 <HAL_GPIO_Init+0x1ac>
70001874:	683b      	ldr	r3, [r7, #0]
70001876:	68db      	ldr	r3, [r3, #12]
70001878:	2b01      	cmp	r3, #1
7000187a:	d00b      	beq.n	70001894 <HAL_GPIO_Init+0x1ac>
7000187c:	683b      	ldr	r3, [r7, #0]
7000187e:	68db      	ldr	r3, [r3, #12]
70001880:	2b02      	cmp	r3, #2
70001882:	d007      	beq.n	70001894 <HAL_GPIO_Init+0x1ac>
70001884:	683b      	ldr	r3, [r7, #0]
70001886:	68db      	ldr	r3, [r3, #12]
70001888:	2b03      	cmp	r3, #3
7000188a:	d003      	beq.n	70001894 <HAL_GPIO_Init+0x1ac>
7000188c:	21bc      	movs	r1, #188	@ 0xbc
7000188e:	4896      	ldr	r0, [pc, #600]	@ (70001ae8 <HAL_GPIO_Init+0x400>)
70001890:	f7ff f9b4 	bl	70000bfc <assert_failed>

        /* Configure the IO Speed */
        temp = GPIOx->OSPEEDR;
70001894:	687b      	ldr	r3, [r7, #4]
70001896:	689b      	ldr	r3, [r3, #8]
70001898:	613b      	str	r3, [r7, #16]
        temp &= ~(GPIO_OSPEEDR_OSPEED0 << (position * GPIO_OSPEEDR_OSPEED1_Pos));
7000189a:	697b      	ldr	r3, [r7, #20]
7000189c:	005b      	lsls	r3, r3, #1
7000189e:	2203      	movs	r2, #3
700018a0:	fa02 f303 	lsl.w	r3, r2, r3
700018a4:	43db      	mvns	r3, r3
700018a6:	693a      	ldr	r2, [r7, #16]
700018a8:	4013      	ands	r3, r2
700018aa:	613b      	str	r3, [r7, #16]
        temp |= (GPIO_Init->Speed << (position * GPIO_OSPEEDR_OSPEED1_Pos));
700018ac:	683b      	ldr	r3, [r7, #0]
700018ae:	68da      	ldr	r2, [r3, #12]
700018b0:	697b      	ldr	r3, [r7, #20]
700018b2:	005b      	lsls	r3, r3, #1
700018b4:	fa02 f303 	lsl.w	r3, r2, r3
700018b8:	693a      	ldr	r2, [r7, #16]
700018ba:	4313      	orrs	r3, r2
700018bc:	613b      	str	r3, [r7, #16]
        GPIOx->OSPEEDR = temp;
700018be:	687b      	ldr	r3, [r7, #4]
700018c0:	693a      	ldr	r2, [r7, #16]
700018c2:	609a      	str	r2, [r3, #8]

        /* Configure the IO Output Type */
        temp = GPIOx->OTYPER;
700018c4:	687b      	ldr	r3, [r7, #4]
700018c6:	685b      	ldr	r3, [r3, #4]
700018c8:	613b      	str	r3, [r7, #16]
        temp &= ~(GPIO_OTYPER_OT0 << position) ;
700018ca:	2201      	movs	r2, #1
700018cc:	697b      	ldr	r3, [r7, #20]
700018ce:	fa02 f303 	lsl.w	r3, r2, r3
700018d2:	43db      	mvns	r3, r3
700018d4:	693a      	ldr	r2, [r7, #16]
700018d6:	4013      	ands	r3, r2
700018d8:	613b      	str	r3, [r7, #16]
        temp |= (((GPIO_Init->Mode & OUTPUT_TYPE) >> OUTPUT_TYPE_Pos) << position);
700018da:	683b      	ldr	r3, [r7, #0]
700018dc:	685b      	ldr	r3, [r3, #4]
700018de:	091b      	lsrs	r3, r3, #4
700018e0:	f003 0201 	and.w	r2, r3, #1
700018e4:	697b      	ldr	r3, [r7, #20]
700018e6:	fa02 f303 	lsl.w	r3, r2, r3
700018ea:	693a      	ldr	r2, [r7, #16]
700018ec:	4313      	orrs	r3, r2
700018ee:	613b      	str	r3, [r7, #16]
        GPIOx->OTYPER = temp;
700018f0:	687b      	ldr	r3, [r7, #4]
700018f2:	693a      	ldr	r2, [r7, #16]
700018f4:	605a      	str	r2, [r3, #4]
      }

      if (((GPIO_Init->Mode & GPIO_MODE) != MODE_ANALOG) ||
700018f6:	683b      	ldr	r3, [r7, #0]
700018f8:	685b      	ldr	r3, [r3, #4]
700018fa:	f003 0303 	and.w	r3, r3, #3
700018fe:	2b03      	cmp	r3, #3
70001900:	d109      	bne.n	70001916 <HAL_GPIO_Init+0x22e>
          (((GPIO_Init->Mode & GPIO_MODE) == MODE_ANALOG) && (GPIO_Init->Pull != GPIO_PULLUP)))
70001902:	683b      	ldr	r3, [r7, #0]
70001904:	685b      	ldr	r3, [r3, #4]
70001906:	f003 0303 	and.w	r3, r3, #3
      if (((GPIO_Init->Mode & GPIO_MODE) != MODE_ANALOG) ||
7000190a:	2b03      	cmp	r3, #3
7000190c:	d12b      	bne.n	70001966 <HAL_GPIO_Init+0x27e>
          (((GPIO_Init->Mode & GPIO_MODE) == MODE_ANALOG) && (GPIO_Init->Pull != GPIO_PULLUP)))
7000190e:	683b      	ldr	r3, [r7, #0]
70001910:	689b      	ldr	r3, [r3, #8]
70001912:	2b01      	cmp	r3, #1
70001914:	d027      	beq.n	70001966 <HAL_GPIO_Init+0x27e>
      {
        /* Check the Pull parameter */
        assert_param(IS_GPIO_PULL(GPIO_Init->Pull));
70001916:	683b      	ldr	r3, [r7, #0]
70001918:	689b      	ldr	r3, [r3, #8]
7000191a:	2b00      	cmp	r3, #0
7000191c:	d00b      	beq.n	70001936 <HAL_GPIO_Init+0x24e>
7000191e:	683b      	ldr	r3, [r7, #0]
70001920:	689b      	ldr	r3, [r3, #8]
70001922:	2b01      	cmp	r3, #1
70001924:	d007      	beq.n	70001936 <HAL_GPIO_Init+0x24e>
70001926:	683b      	ldr	r3, [r7, #0]
70001928:	689b      	ldr	r3, [r3, #8]
7000192a:	2b02      	cmp	r3, #2
7000192c:	d003      	beq.n	70001936 <HAL_GPIO_Init+0x24e>
7000192e:	21cf      	movs	r1, #207	@ 0xcf
70001930:	486d      	ldr	r0, [pc, #436]	@ (70001ae8 <HAL_GPIO_Init+0x400>)
70001932:	f7ff f963 	bl	70000bfc <assert_failed>

        /* Activate the Pull-up or Pull down resistor for the current IO */
        temp = GPIOx->PUPDR;
70001936:	687b      	ldr	r3, [r7, #4]
70001938:	68db      	ldr	r3, [r3, #12]
7000193a:	613b      	str	r3, [r7, #16]
        temp &= ~(GPIO_PUPDR_PUPD0 << (position * GPIO_PUPDR_PUPD1_Pos));
7000193c:	697b      	ldr	r3, [r7, #20]
7000193e:	005b      	lsls	r3, r3, #1
70001940:	2203      	movs	r2, #3
70001942:	fa02 f303 	lsl.w	r3, r2, r3
70001946:	43db      	mvns	r3, r3
70001948:	693a      	ldr	r2, [r7, #16]
7000194a:	4013      	ands	r3, r2
7000194c:	613b      	str	r3, [r7, #16]
        temp |= ((GPIO_Init->Pull) << (position * GPIO_PUPDR_PUPD1_Pos));
7000194e:	683b      	ldr	r3, [r7, #0]
70001950:	689a      	ldr	r2, [r3, #8]
70001952:	697b      	ldr	r3, [r7, #20]
70001954:	005b      	lsls	r3, r3, #1
70001956:	fa02 f303 	lsl.w	r3, r2, r3
7000195a:	693a      	ldr	r2, [r7, #16]
7000195c:	4313      	orrs	r3, r2
7000195e:	613b      	str	r3, [r7, #16]
        GPIOx->PUPDR = temp;
70001960:	687b      	ldr	r3, [r7, #4]
70001962:	693a      	ldr	r2, [r7, #16]
70001964:	60da      	str	r2, [r3, #12]
      }

      /* In case of Alternate function mode selection */
      if ((GPIO_Init->Mode & GPIO_MODE) == MODE_AF)
70001966:	683b      	ldr	r3, [r7, #0]
70001968:	685b      	ldr	r3, [r3, #4]
7000196a:	f003 0303 	and.w	r3, r3, #3
7000196e:	2b02      	cmp	r3, #2
70001970:	d15f      	bne.n	70001a32 <HAL_GPIO_Init+0x34a>
      {
        /* Check the Alternate function parameters */
        assert_param(IS_GPIO_AF_INSTANCE(GPIOx));
70001972:	687b      	ldr	r3, [r7, #4]
70001974:	4a5d      	ldr	r2, [pc, #372]	@ (70001aec <HAL_GPIO_Init+0x404>)
70001976:	4293      	cmp	r3, r2
70001978:	d02f      	beq.n	700019da <HAL_GPIO_Init+0x2f2>
7000197a:	687b      	ldr	r3, [r7, #4]
7000197c:	4a5c      	ldr	r2, [pc, #368]	@ (70001af0 <HAL_GPIO_Init+0x408>)
7000197e:	4293      	cmp	r3, r2
70001980:	d02b      	beq.n	700019da <HAL_GPIO_Init+0x2f2>
70001982:	687b      	ldr	r3, [r7, #4]
70001984:	4a5b      	ldr	r2, [pc, #364]	@ (70001af4 <HAL_GPIO_Init+0x40c>)
70001986:	4293      	cmp	r3, r2
70001988:	d027      	beq.n	700019da <HAL_GPIO_Init+0x2f2>
7000198a:	687b      	ldr	r3, [r7, #4]
7000198c:	4a5a      	ldr	r2, [pc, #360]	@ (70001af8 <HAL_GPIO_Init+0x410>)
7000198e:	4293      	cmp	r3, r2
70001990:	d023      	beq.n	700019da <HAL_GPIO_Init+0x2f2>
70001992:	687b      	ldr	r3, [r7, #4]
70001994:	4a59      	ldr	r2, [pc, #356]	@ (70001afc <HAL_GPIO_Init+0x414>)
70001996:	4293      	cmp	r3, r2
70001998:	d01f      	beq.n	700019da <HAL_GPIO_Init+0x2f2>
7000199a:	687b      	ldr	r3, [r7, #4]
7000199c:	4a58      	ldr	r2, [pc, #352]	@ (70001b00 <HAL_GPIO_Init+0x418>)
7000199e:	4293      	cmp	r3, r2
700019a0:	d01b      	beq.n	700019da <HAL_GPIO_Init+0x2f2>
700019a2:	687b      	ldr	r3, [r7, #4]
700019a4:	4a57      	ldr	r2, [pc, #348]	@ (70001b04 <HAL_GPIO_Init+0x41c>)
700019a6:	4293      	cmp	r3, r2
700019a8:	d017      	beq.n	700019da <HAL_GPIO_Init+0x2f2>
700019aa:	687b      	ldr	r3, [r7, #4]
700019ac:	4a56      	ldr	r2, [pc, #344]	@ (70001b08 <HAL_GPIO_Init+0x420>)
700019ae:	4293      	cmp	r3, r2
700019b0:	d013      	beq.n	700019da <HAL_GPIO_Init+0x2f2>
700019b2:	687b      	ldr	r3, [r7, #4]
700019b4:	4a55      	ldr	r2, [pc, #340]	@ (70001b0c <HAL_GPIO_Init+0x424>)
700019b6:	4293      	cmp	r3, r2
700019b8:	d00f      	beq.n	700019da <HAL_GPIO_Init+0x2f2>
700019ba:	687b      	ldr	r3, [r7, #4]
700019bc:	4a54      	ldr	r2, [pc, #336]	@ (70001b10 <HAL_GPIO_Init+0x428>)
700019be:	4293      	cmp	r3, r2
700019c0:	d00b      	beq.n	700019da <HAL_GPIO_Init+0x2f2>
700019c2:	687b      	ldr	r3, [r7, #4]
700019c4:	4a53      	ldr	r2, [pc, #332]	@ (70001b14 <HAL_GPIO_Init+0x42c>)
700019c6:	4293      	cmp	r3, r2
700019c8:	d007      	beq.n	700019da <HAL_GPIO_Init+0x2f2>
700019ca:	687b      	ldr	r3, [r7, #4]
700019cc:	4a52      	ldr	r2, [pc, #328]	@ (70001b18 <HAL_GPIO_Init+0x430>)
700019ce:	4293      	cmp	r3, r2
700019d0:	d003      	beq.n	700019da <HAL_GPIO_Init+0x2f2>
700019d2:	21dc      	movs	r1, #220	@ 0xdc
700019d4:	4844      	ldr	r0, [pc, #272]	@ (70001ae8 <HAL_GPIO_Init+0x400>)
700019d6:	f7ff f911 	bl	70000bfc <assert_failed>
        assert_param(IS_GPIO_AF(GPIO_Init->Alternate));
700019da:	683b      	ldr	r3, [r7, #0]
700019dc:	691b      	ldr	r3, [r3, #16]
700019de:	2b0f      	cmp	r3, #15
700019e0:	d903      	bls.n	700019ea <HAL_GPIO_Init+0x302>
700019e2:	21dd      	movs	r1, #221	@ 0xdd
700019e4:	4840      	ldr	r0, [pc, #256]	@ (70001ae8 <HAL_GPIO_Init+0x400>)
700019e6:	f7ff f909 	bl	70000bfc <assert_failed>

        /* Configure Alternate function mapped with the current IO */
        temp = GPIOx->AFR[position >> 3u];
700019ea:	697b      	ldr	r3, [r7, #20]
700019ec:	08da      	lsrs	r2, r3, #3
700019ee:	687b      	ldr	r3, [r7, #4]
700019f0:	3208      	adds	r2, #8
700019f2:	f853 3022 	ldr.w	r3, [r3, r2, lsl #2]
700019f6:	613b      	str	r3, [r7, #16]
        temp &= ~(0xFu << ((position & 0x07u) * GPIO_AFRL_AFSEL1_Pos));
700019f8:	697b      	ldr	r3, [r7, #20]
700019fa:	f003 0307 	and.w	r3, r3, #7
700019fe:	009b      	lsls	r3, r3, #2
70001a00:	220f      	movs	r2, #15
70001a02:	fa02 f303 	lsl.w	r3, r2, r3
70001a06:	43db      	mvns	r3, r3
70001a08:	693a      	ldr	r2, [r7, #16]
70001a0a:	4013      	ands	r3, r2
70001a0c:	613b      	str	r3, [r7, #16]
        temp |= ((GPIO_Init->Alternate) << ((position & 0x07u) * GPIO_AFRL_AFSEL1_Pos));
70001a0e:	683b      	ldr	r3, [r7, #0]
70001a10:	691a      	ldr	r2, [r3, #16]
70001a12:	697b      	ldr	r3, [r7, #20]
70001a14:	f003 0307 	and.w	r3, r3, #7
70001a18:	009b      	lsls	r3, r3, #2
70001a1a:	fa02 f303 	lsl.w	r3, r2, r3
70001a1e:	693a      	ldr	r2, [r7, #16]
70001a20:	4313      	orrs	r3, r2
70001a22:	613b      	str	r3, [r7, #16]
        GPIOx->AFR[position >> 3u] = temp;
70001a24:	697b      	ldr	r3, [r7, #20]
70001a26:	08da      	lsrs	r2, r3, #3
70001a28:	687b      	ldr	r3, [r7, #4]
70001a2a:	3208      	adds	r2, #8
70001a2c:	6939      	ldr	r1, [r7, #16]
70001a2e:	f843 1022 	str.w	r1, [r3, r2, lsl #2]
      }

      /* Configure IO Direction mode (Input, Output, Alternate or Analog) */
      temp = GPIOx->MODER;
70001a32:	687b      	ldr	r3, [r7, #4]
70001a34:	681b      	ldr	r3, [r3, #0]
70001a36:	613b      	str	r3, [r7, #16]
      temp &= ~(GPIO_MODER_MODE0 << (position * GPIO_MODER_MODE1_Pos));
70001a38:	697b      	ldr	r3, [r7, #20]
70001a3a:	005b      	lsls	r3, r3, #1
70001a3c:	2203      	movs	r2, #3
70001a3e:	fa02 f303 	lsl.w	r3, r2, r3
70001a42:	43db      	mvns	r3, r3
70001a44:	693a      	ldr	r2, [r7, #16]
70001a46:	4013      	ands	r3, r2
70001a48:	613b      	str	r3, [r7, #16]
      temp |= ((GPIO_Init->Mode & GPIO_MODE) << (position * GPIO_MODER_MODE1_Pos));
70001a4a:	683b      	ldr	r3, [r7, #0]
70001a4c:	685b      	ldr	r3, [r3, #4]
70001a4e:	f003 0203 	and.w	r2, r3, #3
70001a52:	697b      	ldr	r3, [r7, #20]
70001a54:	005b      	lsls	r3, r3, #1
70001a56:	fa02 f303 	lsl.w	r3, r2, r3
70001a5a:	693a      	ldr	r2, [r7, #16]
70001a5c:	4313      	orrs	r3, r2
70001a5e:	613b      	str	r3, [r7, #16]
      GPIOx->MODER = temp;
70001a60:	687b      	ldr	r3, [r7, #4]
70001a62:	693a      	ldr	r2, [r7, #16]
70001a64:	601a      	str	r2, [r3, #0]

      /*--------------------- EXTI Mode Configuration ------------------------*/
      /* Configure the External Interrupt or event for the current IO */
      if ((GPIO_Init->Mode & EXTI_MODE) != 0x00u)
70001a66:	683b      	ldr	r3, [r7, #0]
70001a68:	685b      	ldr	r3, [r3, #4]
70001a6a:	f403 3340 	and.w	r3, r3, #196608	@ 0x30000
70001a6e:	2b00      	cmp	r3, #0
70001a70:	f000 80a5 	beq.w	70001bbe <HAL_GPIO_Init+0x4d6>
      {
        temp = SBS->EXTICR[position >> 2u];
70001a74:	4a29      	ldr	r2, [pc, #164]	@ (70001b1c <HAL_GPIO_Init+0x434>)
70001a76:	697b      	ldr	r3, [r7, #20]
70001a78:	089b      	lsrs	r3, r3, #2
70001a7a:	334c      	adds	r3, #76	@ 0x4c
70001a7c:	f852 3023 	ldr.w	r3, [r2, r3, lsl #2]
70001a80:	613b      	str	r3, [r7, #16]
        temp &= ~(0x0FuL << ((position & 0x03u) * SBS_EXTICR1_PC_EXTI1_Pos));
70001a82:	697b      	ldr	r3, [r7, #20]
70001a84:	f003 0303 	and.w	r3, r3, #3
70001a88:	009b      	lsls	r3, r3, #2
70001a8a:	220f      	movs	r2, #15
70001a8c:	fa02 f303 	lsl.w	r3, r2, r3
70001a90:	43db      	mvns	r3, r3
70001a92:	693a      	ldr	r2, [r7, #16]
70001a94:	4013      	ands	r3, r2
70001a96:	613b      	str	r3, [r7, #16]
        temp |= (GPIO_GET_INDEX(GPIOx) << ((position & 0x03u) * SBS_EXTICR1_PC_EXTI1_Pos));
70001a98:	687b      	ldr	r3, [r7, #4]
70001a9a:	0a9a      	lsrs	r2, r3, #10
70001a9c:	4b20      	ldr	r3, [pc, #128]	@ (70001b20 <HAL_GPIO_Init+0x438>)
70001a9e:	4013      	ands	r3, r2
70001aa0:	697a      	ldr	r2, [r7, #20]
70001aa2:	f002 0203 	and.w	r2, r2, #3
70001aa6:	0092      	lsls	r2, r2, #2
70001aa8:	4093      	lsls	r3, r2
70001aaa:	693a      	ldr	r2, [r7, #16]
70001aac:	4313      	orrs	r3, r2
70001aae:	613b      	str	r3, [r7, #16]
        SBS->EXTICR[position >> 2u] = temp;
70001ab0:	491a      	ldr	r1, [pc, #104]	@ (70001b1c <HAL_GPIO_Init+0x434>)
70001ab2:	697b      	ldr	r3, [r7, #20]
70001ab4:	089b      	lsrs	r3, r3, #2
70001ab6:	334c      	adds	r3, #76	@ 0x4c
70001ab8:	693a      	ldr	r2, [r7, #16]
70001aba:	f841 2023 	str.w	r2, [r1, r3, lsl #2]

        /* Clear Rising Falling edge configuration */
        temp = EXTI->RTSR1;
70001abe:	f04f 43b0 	mov.w	r3, #1476395008	@ 0x58000000
70001ac2:	681b      	ldr	r3, [r3, #0]
70001ac4:	613b      	str	r3, [r7, #16]
        temp &= ~(iocurrent);
70001ac6:	68fb      	ldr	r3, [r7, #12]
70001ac8:	43db      	mvns	r3, r3
70001aca:	693a      	ldr	r2, [r7, #16]
70001acc:	4013      	ands	r3, r2
70001ace:	613b      	str	r3, [r7, #16]
        if ((GPIO_Init->Mode & TRIGGER_RISING) != 0x00u)
70001ad0:	683b      	ldr	r3, [r7, #0]
70001ad2:	685b      	ldr	r3, [r3, #4]
70001ad4:	f403 1380 	and.w	r3, r3, #1048576	@ 0x100000
70001ad8:	2b00      	cmp	r3, #0
70001ada:	d023      	beq.n	70001b24 <HAL_GPIO_Init+0x43c>
        {
          temp |= iocurrent;
70001adc:	693a      	ldr	r2, [r7, #16]
70001ade:	68fb      	ldr	r3, [r7, #12]
70001ae0:	4313      	orrs	r3, r2
70001ae2:	613b      	str	r3, [r7, #16]
70001ae4:	e01e      	b.n	70001b24 <HAL_GPIO_Init+0x43c>
70001ae6:	bf00      	nop
70001ae8:	70006810 	.word	0x70006810
70001aec:	58020000 	.word	0x58020000
70001af0:	58020400 	.word	0x58020400
70001af4:	58020800 	.word	0x58020800
70001af8:	58020c00 	.word	0x58020c00
70001afc:	58021000 	.word	0x58021000
70001b00:	58021400 	.word	0x58021400
70001b04:	58021800 	.word	0x58021800
70001b08:	58021c00 	.word	0x58021c00
70001b0c:	58023000 	.word	0x58023000
70001b10:	58023400 	.word	0x58023400
70001b14:	58023800 	.word	0x58023800
70001b18:	58023c00 	.word	0x58023c00
70001b1c:	58000400 	.word	0x58000400
70001b20:	0029ff7f 	.word	0x0029ff7f
        }
        EXTI->RTSR1 = temp;
70001b24:	f04f 42b0 	mov.w	r2, #1476395008	@ 0x58000000
70001b28:	693b      	ldr	r3, [r7, #16]
70001b2a:	6013      	str	r3, [r2, #0]

        temp = EXTI->FTSR1;
70001b2c:	f04f 43b0 	mov.w	r3, #1476395008	@ 0x58000000
70001b30:	685b      	ldr	r3, [r3, #4]
70001b32:	613b      	str	r3, [r7, #16]
        temp &= ~(iocurrent);
70001b34:	68fb      	ldr	r3, [r7, #12]
70001b36:	43db      	mvns	r3, r3
70001b38:	693a      	ldr	r2, [r7, #16]
70001b3a:	4013      	ands	r3, r2
70001b3c:	613b      	str	r3, [r7, #16]
        if ((GPIO_Init->Mode & TRIGGER_FALLING) != 0x00u)
70001b3e:	683b      	ldr	r3, [r7, #0]
70001b40:	685b      	ldr	r3, [r3, #4]
70001b42:	f403 1300 	and.w	r3, r3, #2097152	@ 0x200000
70001b46:	2b00      	cmp	r3, #0
70001b48:	d003      	beq.n	70001b52 <HAL_GPIO_Init+0x46a>
        {
          temp |= iocurrent;
70001b4a:	693a      	ldr	r2, [r7, #16]
70001b4c:	68fb      	ldr	r3, [r7, #12]
70001b4e:	4313      	orrs	r3, r2
70001b50:	613b      	str	r3, [r7, #16]
        }
        EXTI->FTSR1 = temp;
70001b52:	f04f 42b0 	mov.w	r2, #1476395008	@ 0x58000000
70001b56:	693b      	ldr	r3, [r7, #16]
70001b58:	6053      	str	r3, [r2, #4]

        /* Clear EXTI line configuration */
        temp = EXTI->EMR1;
70001b5a:	f04f 43b0 	mov.w	r3, #1476395008	@ 0x58000000
70001b5e:	f8d3 3084 	ldr.w	r3, [r3, #132]	@ 0x84
70001b62:	613b      	str	r3, [r7, #16]
        temp &= ~(iocurrent);
70001b64:	68fb      	ldr	r3, [r7, #12]
70001b66:	43db      	mvns	r3, r3
70001b68:	693a      	ldr	r2, [r7, #16]
70001b6a:	4013      	ands	r3, r2
70001b6c:	613b      	str	r3, [r7, #16]
        if ((GPIO_Init->Mode & EXTI_EVT) != 0x00u)
70001b6e:	683b      	ldr	r3, [r7, #0]
70001b70:	685b      	ldr	r3, [r3, #4]
70001b72:	f403 3300 	and.w	r3, r3, #131072	@ 0x20000
70001b76:	2b00      	cmp	r3, #0
70001b78:	d003      	beq.n	70001b82 <HAL_GPIO_Init+0x49a>
        {
          temp |= iocurrent;
70001b7a:	693a      	ldr	r2, [r7, #16]
70001b7c:	68fb      	ldr	r3, [r7, #12]
70001b7e:	4313      	orrs	r3, r2
70001b80:	613b      	str	r3, [r7, #16]
        }
        EXTI->EMR1 = temp;
70001b82:	f04f 42b0 	mov.w	r2, #1476395008	@ 0x58000000
70001b86:	693b      	ldr	r3, [r7, #16]
70001b88:	f8c2 3084 	str.w	r3, [r2, #132]	@ 0x84

        temp = EXTI->IMR1;
70001b8c:	f04f 43b0 	mov.w	r3, #1476395008	@ 0x58000000
70001b90:	f8d3 3080 	ldr.w	r3, [r3, #128]	@ 0x80
70001b94:	613b      	str	r3, [r7, #16]
        temp &= ~(iocurrent);
70001b96:	68fb      	ldr	r3, [r7, #12]
70001b98:	43db      	mvns	r3, r3
70001b9a:	693a      	ldr	r2, [r7, #16]
70001b9c:	4013      	ands	r3, r2
70001b9e:	613b      	str	r3, [r7, #16]
        if ((GPIO_Init->Mode & EXTI_IT) != 0x00u)
70001ba0:	683b      	ldr	r3, [r7, #0]
70001ba2:	685b      	ldr	r3, [r3, #4]
70001ba4:	f403 3380 	and.w	r3, r3, #65536	@ 0x10000
70001ba8:	2b00      	cmp	r3, #0
70001baa:	d003      	beq.n	70001bb4 <HAL_GPIO_Init+0x4cc>
        {
          temp |= iocurrent;
70001bac:	693a      	ldr	r2, [r7, #16]
70001bae:	68fb      	ldr	r3, [r7, #12]
70001bb0:	4313      	orrs	r3, r2
70001bb2:	613b      	str	r3, [r7, #16]
        }
        EXTI->IMR1 = temp;
70001bb4:	f04f 42b0 	mov.w	r2, #1476395008	@ 0x58000000
70001bb8:	693b      	ldr	r3, [r7, #16]
70001bba:	f8c2 3080 	str.w	r3, [r2, #128]	@ 0x80
      }
    }

    position++;
70001bbe:	697b      	ldr	r3, [r7, #20]
70001bc0:	3301      	adds	r3, #1
70001bc2:	617b      	str	r3, [r7, #20]
  while (((GPIO_Init->Pin) >> position) != 0x00u)
70001bc4:	683b      	ldr	r3, [r7, #0]
70001bc6:	681a      	ldr	r2, [r3, #0]
70001bc8:	697b      	ldr	r3, [r7, #20]
70001bca:	fa22 f303 	lsr.w	r3, r2, r3
70001bce:	2b00      	cmp	r3, #0
70001bd0:	f47f ae34 	bne.w	7000183c <HAL_GPIO_Init+0x154>
  }
}
70001bd4:	bf00      	nop
70001bd6:	bf00      	nop
70001bd8:	3718      	adds	r7, #24
70001bda:	46bd      	mov	sp, r7
70001bdc:	bd80      	pop	{r7, pc}
70001bde:	bf00      	nop

70001be0 <HAL_GPIO_WritePin>:
  *            @arg GPIO_PIN_RESET: to clear the port pin
  *            @arg GPIO_PIN_SET: to set the port pin
  * @retval None
  */
void HAL_GPIO_WritePin(GPIO_TypeDef *GPIOx, uint16_t GPIO_Pin, GPIO_PinState PinState)
{
70001be0:	b580      	push	{r7, lr}
70001be2:	b082      	sub	sp, #8
70001be4:	af00      	add	r7, sp, #0
70001be6:	6078      	str	r0, [r7, #4]
70001be8:	460b      	mov	r3, r1
70001bea:	807b      	strh	r3, [r7, #2]
70001bec:	4613      	mov	r3, r2
70001bee:	707b      	strb	r3, [r7, #1]
  /* Check the parameters */
  assert_param(IS_GPIO_PIN(GPIO_Pin));
70001bf0:	887b      	ldrh	r3, [r7, #2]
70001bf2:	2b00      	cmp	r3, #0
70001bf4:	d104      	bne.n	70001c00 <HAL_GPIO_WritePin+0x20>
70001bf6:	f240 1199 	movw	r1, #409	@ 0x199
70001bfa:	480e      	ldr	r0, [pc, #56]	@ (70001c34 <HAL_GPIO_WritePin+0x54>)
70001bfc:	f7fe fffe 	bl	70000bfc <assert_failed>
  assert_param(IS_GPIO_PIN_ACTION(PinState));
70001c00:	787b      	ldrb	r3, [r7, #1]
70001c02:	2b00      	cmp	r3, #0
70001c04:	d007      	beq.n	70001c16 <HAL_GPIO_WritePin+0x36>
70001c06:	787b      	ldrb	r3, [r7, #1]
70001c08:	2b01      	cmp	r3, #1
70001c0a:	d004      	beq.n	70001c16 <HAL_GPIO_WritePin+0x36>
70001c0c:	f44f 71cd 	mov.w	r1, #410	@ 0x19a
70001c10:	4808      	ldr	r0, [pc, #32]	@ (70001c34 <HAL_GPIO_WritePin+0x54>)
70001c12:	f7fe fff3 	bl	70000bfc <assert_failed>

  if (PinState != GPIO_PIN_RESET)
70001c16:	787b      	ldrb	r3, [r7, #1]
70001c18:	2b00      	cmp	r3, #0
70001c1a:	d003      	beq.n	70001c24 <HAL_GPIO_WritePin+0x44>
  {
    GPIOx->BSRR = (uint32_t)GPIO_Pin;
70001c1c:	887a      	ldrh	r2, [r7, #2]
70001c1e:	687b      	ldr	r3, [r7, #4]
70001c20:	619a      	str	r2, [r3, #24]
  }
  else
  {
    GPIOx->BRR = (uint32_t)GPIO_Pin;
  }
}
70001c22:	e002      	b.n	70001c2a <HAL_GPIO_WritePin+0x4a>
    GPIOx->BRR = (uint32_t)GPIO_Pin;
70001c24:	887a      	ldrh	r2, [r7, #2]
70001c26:	687b      	ldr	r3, [r7, #4]
70001c28:	629a      	str	r2, [r3, #40]	@ 0x28
}
70001c2a:	bf00      	nop
70001c2c:	3708      	adds	r7, #8
70001c2e:	46bd      	mov	sp, r7
70001c30:	bd80      	pop	{r7, pc}
70001c32:	bf00      	nop
70001c34:	70006810 	.word	0x70006810

70001c38 <HAL_PWREx_EnableXSPIM1>:
  * @note   The XSPIM_P1 supply must be stable prior to setting
            this bit.
  * @retval None.
  */
void HAL_PWREx_EnableXSPIM1(void)
{
70001c38:	b480      	push	{r7}
70001c3a:	af00      	add	r7, sp, #0
  SET_BIT(PWR->CSR2, PWR_CSR2_EN_XSPIM1);
70001c3c:	4b05      	ldr	r3, [pc, #20]	@ (70001c54 <HAL_PWREx_EnableXSPIM1+0x1c>)
70001c3e:	68db      	ldr	r3, [r3, #12]
70001c40:	4a04      	ldr	r2, [pc, #16]	@ (70001c54 <HAL_PWREx_EnableXSPIM1+0x1c>)
70001c42:	f443 4380 	orr.w	r3, r3, #16384	@ 0x4000
70001c46:	60d3      	str	r3, [r2, #12]
}
70001c48:	bf00      	nop
70001c4a:	46bd      	mov	sp, r7
70001c4c:	f85d 7b04 	ldr.w	r7, [sp], #4
70001c50:	4770      	bx	lr
70001c52:	bf00      	nop
70001c54:	58024800 	.word	0x58024800

70001c58 <HAL_RCC_GetSysClockFreq>:
  *
  *
  * @retval SYSCLK frequency
  */
uint32_t HAL_RCC_GetSysClockFreq(void)
{
70001c58:	b480      	push	{r7}
70001c5a:	b08b      	sub	sp, #44	@ 0x2c
70001c5c:	af00      	add	r7, sp, #0
  uint32_t sysclockfreq;
  uint32_t prescaler;

  /* Get SYSCLK source -------------------------------------------------------*/

  switch (RCC->CFGR & RCC_CFGR_SWS)
70001c5e:	4baa      	ldr	r3, [pc, #680]	@ (70001f08 <HAL_RCC_GetSysClockFreq+0x2b0>)
70001c60:	691b      	ldr	r3, [r3, #16]
70001c62:	f003 0338 	and.w	r3, r3, #56	@ 0x38
70001c66:	2b18      	cmp	r3, #24
70001c68:	f200 8136 	bhi.w	70001ed8 <HAL_RCC_GetSysClockFreq+0x280>
70001c6c:	a201      	add	r2, pc, #4	@ (adr r2, 70001c74 <HAL_RCC_GetSysClockFreq+0x1c>)
70001c6e:	f852 f023 	ldr.w	pc, [r2, r3, lsl #2]
70001c72:	bf00      	nop
70001c74:	70001cd9 	.word	0x70001cd9
70001c78:	70001ed9 	.word	0x70001ed9
70001c7c:	70001ed9 	.word	0x70001ed9
70001c80:	70001ed9 	.word	0x70001ed9
70001c84:	70001ed9 	.word	0x70001ed9
70001c88:	70001ed9 	.word	0x70001ed9
70001c8c:	70001ed9 	.word	0x70001ed9
70001c90:	70001ed9 	.word	0x70001ed9
70001c94:	70001cff 	.word	0x70001cff
70001c98:	70001ed9 	.word	0x70001ed9
70001c9c:	70001ed9 	.word	0x70001ed9
70001ca0:	70001ed9 	.word	0x70001ed9
70001ca4:	70001ed9 	.word	0x70001ed9
70001ca8:	70001ed9 	.word	0x70001ed9
70001cac:	70001ed9 	.word	0x70001ed9
70001cb0:	70001ed9 	.word	0x70001ed9
70001cb4:	70001d05 	.word	0x70001d05
70001cb8:	70001ed9 	.word	0x70001ed9
70001cbc:	70001ed9 	.word	0x70001ed9
70001cc0:	70001ed9 	.word	0x70001ed9
70001cc4:	70001ed9 	.word	0x70001ed9
70001cc8:	70001ed9 	.word	0x70001ed9
70001ccc:	70001ed9 	.word	0x70001ed9
70001cd0:	70001ed9 	.word	0x70001ed9
70001cd4:	70001d0b 	.word	0x70001d0b
  {
    case RCC_SYSCLKSOURCE_STATUS_HSI:  /* HSI used as system clock source */

      if (READ_BIT(RCC->CR, RCC_CR_HSIDIVF) != 0U)
70001cd8:	4b8b      	ldr	r3, [pc, #556]	@ (70001f08 <HAL_RCC_GetSysClockFreq+0x2b0>)
70001cda:	681b      	ldr	r3, [r3, #0]
70001cdc:	f003 0320 	and.w	r3, r3, #32
70001ce0:	2b00      	cmp	r3, #0
70001ce2:	d009      	beq.n	70001cf8 <HAL_RCC_GetSysClockFreq+0xa0>
      {
        sysclockfreq = (uint32_t)(HSI_VALUE >> (__HAL_RCC_GET_HSI_DIVIDER() >> RCC_CR_HSIDIV_Pos));
70001ce4:	4b88      	ldr	r3, [pc, #544]	@ (70001f08 <HAL_RCC_GetSysClockFreq+0x2b0>)
70001ce6:	681b      	ldr	r3, [r3, #0]
70001ce8:	08db      	lsrs	r3, r3, #3
70001cea:	f003 0303 	and.w	r3, r3, #3
70001cee:	4a87      	ldr	r2, [pc, #540]	@ (70001f0c <HAL_RCC_GetSysClockFreq+0x2b4>)
70001cf0:	fa22 f303 	lsr.w	r3, r2, r3
70001cf4:	623b      	str	r3, [r7, #32]
      {
        /* Can't retrieve HSIDIV value */
        sysclockfreq = 0U;
      }

      break;
70001cf6:	e0f2      	b.n	70001ede <HAL_RCC_GetSysClockFreq+0x286>
        sysclockfreq = 0U;
70001cf8:	2300      	movs	r3, #0
70001cfa:	623b      	str	r3, [r7, #32]
      break;
70001cfc:	e0ef      	b.n	70001ede <HAL_RCC_GetSysClockFreq+0x286>

    case RCC_SYSCLKSOURCE_STATUS_CSI:  /* CSI used as system clock  source */
      sysclockfreq = CSI_VALUE;
70001cfe:	4b84      	ldr	r3, [pc, #528]	@ (70001f10 <HAL_RCC_GetSysClockFreq+0x2b8>)
70001d00:	623b      	str	r3, [r7, #32]
      break;
70001d02:	e0ec      	b.n	70001ede <HAL_RCC_GetSysClockFreq+0x286>

    case RCC_SYSCLKSOURCE_STATUS_HSE:  /* HSE used as system clock  source */
      sysclockfreq = HSE_VALUE;
70001d04:	4b83      	ldr	r3, [pc, #524]	@ (70001f14 <HAL_RCC_GetSysClockFreq+0x2bc>)
70001d06:	623b      	str	r3, [r7, #32]
      break;
70001d08:	e0e9      	b.n	70001ede <HAL_RCC_GetSysClockFreq+0x286>
    case RCC_SYSCLKSOURCE_STATUS_PLLCLK:  /* PLL1 used as system clock  source */

      /* PLL_VCO = (HSE_VALUE or HSI_VALUE or CSI_VALUE/ PLLM) * PLLN
      SYSCLK = PLL_VCO / PLLR
      */
      pllsource = (RCC->PLLCKSELR & RCC_PLLCKSELR_PLLSRC);
70001d0a:	4b7f      	ldr	r3, [pc, #508]	@ (70001f08 <HAL_RCC_GetSysClockFreq+0x2b0>)
70001d0c:	6a9b      	ldr	r3, [r3, #40]	@ 0x28
70001d0e:	f003 0303 	and.w	r3, r3, #3
70001d12:	61fb      	str	r3, [r7, #28]
      pllm = ((RCC->PLLCKSELR & RCC_PLLCKSELR_DIVM1) >> RCC_PLLCKSELR_DIVM1_Pos)  ;
70001d14:	4b7c      	ldr	r3, [pc, #496]	@ (70001f08 <HAL_RCC_GetSysClockFreq+0x2b0>)
70001d16:	6a9b      	ldr	r3, [r3, #40]	@ 0x28
70001d18:	091b      	lsrs	r3, r3, #4
70001d1a:	f003 033f 	and.w	r3, r3, #63	@ 0x3f
70001d1e:	61bb      	str	r3, [r7, #24]
      pllfracen = ((RCC-> PLLCFGR & RCC_PLLCFGR_PLL1FRACEN) >> RCC_PLLCFGR_PLL1FRACEN_Pos);
70001d20:	4b79      	ldr	r3, [pc, #484]	@ (70001f08 <HAL_RCC_GetSysClockFreq+0x2b0>)
70001d22:	6adb      	ldr	r3, [r3, #44]	@ 0x2c
70001d24:	f003 0301 	and.w	r3, r3, #1
70001d28:	617b      	str	r3, [r7, #20]
      fracn1 = (float_t)(uint32_t)(pllfracen * ((RCC->PLL1FRACR & RCC_PLL1FRACR_FRACN) >> 3));
70001d2a:	4b77      	ldr	r3, [pc, #476]	@ (70001f08 <HAL_RCC_GetSysClockFreq+0x2b0>)
70001d2c:	6b5b      	ldr	r3, [r3, #52]	@ 0x34
70001d2e:	08db      	lsrs	r3, r3, #3
70001d30:	f3c3 030c 	ubfx	r3, r3, #0, #13
70001d34:	697a      	ldr	r2, [r7, #20]
70001d36:	fb02 f303 	mul.w	r3, r2, r3
70001d3a:	ee07 3a90 	vmov	s15, r3
70001d3e:	eef8 7a67 	vcvt.f32.u32	s15, s15
70001d42:	edc7 7a04 	vstr	s15, [r7, #16]

      if (pllm != 0U)
70001d46:	69bb      	ldr	r3, [r7, #24]
70001d48:	2b00      	cmp	r3, #0
70001d4a:	f000 80c2 	beq.w	70001ed2 <HAL_RCC_GetSysClockFreq+0x27a>
      {
        switch (pllsource)
70001d4e:	69fb      	ldr	r3, [r7, #28]
70001d50:	2b02      	cmp	r3, #2
70001d52:	d064      	beq.n	70001e1e <HAL_RCC_GetSysClockFreq+0x1c6>
70001d54:	69fb      	ldr	r3, [r7, #28]
70001d56:	2b02      	cmp	r3, #2
70001d58:	f200 8083 	bhi.w	70001e62 <HAL_RCC_GetSysClockFreq+0x20a>
70001d5c:	69fb      	ldr	r3, [r7, #28]
70001d5e:	2b00      	cmp	r3, #0
70001d60:	d003      	beq.n	70001d6a <HAL_RCC_GetSysClockFreq+0x112>
70001d62:	69fb      	ldr	r3, [r7, #28]
70001d64:	2b01      	cmp	r3, #1
70001d66:	d038      	beq.n	70001dda <HAL_RCC_GetSysClockFreq+0x182>
70001d68:	e07b      	b.n	70001e62 <HAL_RCC_GetSysClockFreq+0x20a>
        {
          case RCC_PLLSOURCE_HSI:  /* HSI used as PLL clock source */

            if (READ_BIT(RCC->CR, RCC_CR_HSIDIVF) != 0U)
70001d6a:	4b67      	ldr	r3, [pc, #412]	@ (70001f08 <HAL_RCC_GetSysClockFreq+0x2b0>)
70001d6c:	681b      	ldr	r3, [r3, #0]
70001d6e:	f003 0320 	and.w	r3, r3, #32
70001d72:	2b00      	cmp	r3, #0
70001d74:	d02d      	beq.n	70001dd2 <HAL_RCC_GetSysClockFreq+0x17a>
            {
              hsivalue = (HSI_VALUE >> (__HAL_RCC_GET_HSI_DIVIDER() >> RCC_CR_HSIDIV_Pos));
70001d76:	4b64      	ldr	r3, [pc, #400]	@ (70001f08 <HAL_RCC_GetSysClockFreq+0x2b0>)
70001d78:	681b      	ldr	r3, [r3, #0]
70001d7a:	08db      	lsrs	r3, r3, #3
70001d7c:	f003 0303 	and.w	r3, r3, #3
70001d80:	4a62      	ldr	r2, [pc, #392]	@ (70001f0c <HAL_RCC_GetSysClockFreq+0x2b4>)
70001d82:	fa22 f303 	lsr.w	r3, r2, r3
70001d86:	60fb      	str	r3, [r7, #12]
              pllvco = ((float_t)hsivalue / (float_t)pllm) * ((float_t)(uint32_t)(RCC->PLL1DIVR1 & RCC_PLL1DIVR1_DIVN) + (fracn1 / (float_t)0x2000) + (float_t)1);
70001d88:	68fb      	ldr	r3, [r7, #12]
70001d8a:	ee07 3a90 	vmov	s15, r3
70001d8e:	eef8 6a67 	vcvt.f32.u32	s13, s15
70001d92:	69bb      	ldr	r3, [r7, #24]
70001d94:	ee07 3a90 	vmov	s15, r3
70001d98:	eef8 7a67 	vcvt.f32.u32	s15, s15
70001d9c:	ee86 7aa7 	vdiv.f32	s14, s13, s15
70001da0:	4b59      	ldr	r3, [pc, #356]	@ (70001f08 <HAL_RCC_GetSysClockFreq+0x2b0>)
70001da2:	6b1b      	ldr	r3, [r3, #48]	@ 0x30
70001da4:	f3c3 0308 	ubfx	r3, r3, #0, #9
70001da8:	ee07 3a90 	vmov	s15, r3
70001dac:	eef8 6a67 	vcvt.f32.u32	s13, s15
70001db0:	ed97 6a04 	vldr	s12, [r7, #16]
70001db4:	eddf 5a58 	vldr	s11, [pc, #352]	@ 70001f18 <HAL_RCC_GetSysClockFreq+0x2c0>
70001db8:	eec6 7a25 	vdiv.f32	s15, s12, s11
70001dbc:	ee76 7aa7 	vadd.f32	s15, s13, s15
70001dc0:	eef7 6a00 	vmov.f32	s13, #112	@ 0x3f800000  1.0
70001dc4:	ee77 7aa6 	vadd.f32	s15, s15, s13
70001dc8:	ee67 7a27 	vmul.f32	s15, s14, s15
70001dcc:	edc7 7a09 	vstr	s15, [r7, #36]	@ 0x24
            else
            {
              /* Can't retrieve HSIDIV value */
              pllvco = (float_t)0;
            }
            break;
70001dd0:	e069      	b.n	70001ea6 <HAL_RCC_GetSysClockFreq+0x24e>
              pllvco = (float_t)0;
70001dd2:	f04f 0300 	mov.w	r3, #0
70001dd6:	627b      	str	r3, [r7, #36]	@ 0x24
            break;
70001dd8:	e065      	b.n	70001ea6 <HAL_RCC_GetSysClockFreq+0x24e>

          case RCC_PLLSOURCE_CSI:  /* CSI used as PLL clock source */
            pllvco = ((float_t)CSI_VALUE / (float_t)pllm) * ((float_t)(uint32_t)(RCC->PLL1DIVR1 & RCC_PLL1DIVR1_DIVN) + (fracn1 / (float_t)0x2000) + (float_t)1);
70001dda:	69bb      	ldr	r3, [r7, #24]
70001ddc:	ee07 3a90 	vmov	s15, r3
70001de0:	eef8 7a67 	vcvt.f32.u32	s15, s15
70001de4:	eddf 6a4d 	vldr	s13, [pc, #308]	@ 70001f1c <HAL_RCC_GetSysClockFreq+0x2c4>
70001de8:	ee86 7aa7 	vdiv.f32	s14, s13, s15
70001dec:	4b46      	ldr	r3, [pc, #280]	@ (70001f08 <HAL_RCC_GetSysClockFreq+0x2b0>)
70001dee:	6b1b      	ldr	r3, [r3, #48]	@ 0x30
70001df0:	f3c3 0308 	ubfx	r3, r3, #0, #9
70001df4:	ee07 3a90 	vmov	s15, r3
70001df8:	eef8 6a67 	vcvt.f32.u32	s13, s15
70001dfc:	ed97 6a04 	vldr	s12, [r7, #16]
70001e00:	eddf 5a45 	vldr	s11, [pc, #276]	@ 70001f18 <HAL_RCC_GetSysClockFreq+0x2c0>
70001e04:	eec6 7a25 	vdiv.f32	s15, s12, s11
70001e08:	ee76 7aa7 	vadd.f32	s15, s13, s15
70001e0c:	eef7 6a00 	vmov.f32	s13, #112	@ 0x3f800000  1.0
70001e10:	ee77 7aa6 	vadd.f32	s15, s15, s13
70001e14:	ee67 7a27 	vmul.f32	s15, s14, s15
70001e18:	edc7 7a09 	vstr	s15, [r7, #36]	@ 0x24
            break;
70001e1c:	e043      	b.n	70001ea6 <HAL_RCC_GetSysClockFreq+0x24e>

          case RCC_PLLSOURCE_HSE:  /* HSE used as PLL clock source */
            pllvco = ((float_t)HSE_VALUE / (float_t)pllm) * ((float_t)(uint32_t)(RCC->PLL1DIVR1 & RCC_PLL1DIVR1_DIVN) + (fracn1 / (float_t)0x2000) + (float_t)1);
70001e1e:	69bb      	ldr	r3, [r7, #24]
70001e20:	ee07 3a90 	vmov	s15, r3
70001e24:	eef8 7a67 	vcvt.f32.u32	s15, s15
70001e28:	eddf 6a3d 	vldr	s13, [pc, #244]	@ 70001f20 <HAL_RCC_GetSysClockFreq+0x2c8>
70001e2c:	ee86 7aa7 	vdiv.f32	s14, s13, s15
70001e30:	4b35      	ldr	r3, [pc, #212]	@ (70001f08 <HAL_RCC_GetSysClockFreq+0x2b0>)
70001e32:	6b1b      	ldr	r3, [r3, #48]	@ 0x30
70001e34:	f3c3 0308 	ubfx	r3, r3, #0, #9
70001e38:	ee07 3a90 	vmov	s15, r3
70001e3c:	eef8 6a67 	vcvt.f32.u32	s13, s15
70001e40:	ed97 6a04 	vldr	s12, [r7, #16]
70001e44:	eddf 5a34 	vldr	s11, [pc, #208]	@ 70001f18 <HAL_RCC_GetSysClockFreq+0x2c0>
70001e48:	eec6 7a25 	vdiv.f32	s15, s12, s11
70001e4c:	ee76 7aa7 	vadd.f32	s15, s13, s15
70001e50:	eef7 6a00 	vmov.f32	s13, #112	@ 0x3f800000  1.0
70001e54:	ee77 7aa6 	vadd.f32	s15, s15, s13
70001e58:	ee67 7a27 	vmul.f32	s15, s14, s15
70001e5c:	edc7 7a09 	vstr	s15, [r7, #36]	@ 0x24
            break;
70001e60:	e021      	b.n	70001ea6 <HAL_RCC_GetSysClockFreq+0x24e>

          default:
            pllvco = ((float_t)CSI_VALUE / (float_t)pllm) * ((float_t)(uint32_t)(RCC->PLL1DIVR1 & RCC_PLL1DIVR1_DIVN) + (fracn1 / (float_t)0x2000) + (float_t)1);
70001e62:	69bb      	ldr	r3, [r7, #24]
70001e64:	ee07 3a90 	vmov	s15, r3
70001e68:	eef8 7a67 	vcvt.f32.u32	s15, s15
70001e6c:	eddf 6a2b 	vldr	s13, [pc, #172]	@ 70001f1c <HAL_RCC_GetSysClockFreq+0x2c4>
70001e70:	ee86 7aa7 	vdiv.f32	s14, s13, s15
70001e74:	4b24      	ldr	r3, [pc, #144]	@ (70001f08 <HAL_RCC_GetSysClockFreq+0x2b0>)
70001e76:	6b1b      	ldr	r3, [r3, #48]	@ 0x30
70001e78:	f3c3 0308 	ubfx	r3, r3, #0, #9
70001e7c:	ee07 3a90 	vmov	s15, r3
70001e80:	eef8 6a67 	vcvt.f32.u32	s13, s15
70001e84:	ed97 6a04 	vldr	s12, [r7, #16]
70001e88:	eddf 5a23 	vldr	s11, [pc, #140]	@ 70001f18 <HAL_RCC_GetSysClockFreq+0x2c0>
70001e8c:	eec6 7a25 	vdiv.f32	s15, s12, s11
70001e90:	ee76 7aa7 	vadd.f32	s15, s13, s15
70001e94:	eef7 6a00 	vmov.f32	s13, #112	@ 0x3f800000  1.0
70001e98:	ee77 7aa6 	vadd.f32	s15, s15, s13
70001e9c:	ee67 7a27 	vmul.f32	s15, s14, s15
70001ea0:	edc7 7a09 	vstr	s15, [r7, #36]	@ 0x24
            break;
70001ea4:	bf00      	nop
        }
        pllp = (((RCC->PLL1DIVR1 & RCC_PLL1DIVR1_DIVP) >> RCC_PLL1DIVR1_DIVP_Pos) + 1U) ;
70001ea6:	4b18      	ldr	r3, [pc, #96]	@ (70001f08 <HAL_RCC_GetSysClockFreq+0x2b0>)
70001ea8:	6b1b      	ldr	r3, [r3, #48]	@ 0x30
70001eaa:	0a5b      	lsrs	r3, r3, #9
70001eac:	f003 037f 	and.w	r3, r3, #127	@ 0x7f
70001eb0:	3301      	adds	r3, #1
70001eb2:	60bb      	str	r3, [r7, #8]
        sysclockfreq = (uint32_t)(float_t)(pllvco / (float_t)pllp);
70001eb4:	68bb      	ldr	r3, [r7, #8]
70001eb6:	ee07 3a90 	vmov	s15, r3
70001eba:	eeb8 7a67 	vcvt.f32.u32	s14, s15
70001ebe:	edd7 6a09 	vldr	s13, [r7, #36]	@ 0x24
70001ec2:	eec6 7a87 	vdiv.f32	s15, s13, s14
70001ec6:	eefc 7ae7 	vcvt.u32.f32	s15, s15
70001eca:	ee17 3a90 	vmov	r3, s15
70001ece:	623b      	str	r3, [r7, #32]
      }
      else
      {
        sysclockfreq = 0U;
      }
      break;
70001ed0:	e005      	b.n	70001ede <HAL_RCC_GetSysClockFreq+0x286>
        sysclockfreq = 0U;
70001ed2:	2300      	movs	r3, #0
70001ed4:	623b      	str	r3, [r7, #32]
      break;
70001ed6:	e002      	b.n	70001ede <HAL_RCC_GetSysClockFreq+0x286>

    default:
      sysclockfreq = CSI_VALUE;
70001ed8:	4b0d      	ldr	r3, [pc, #52]	@ (70001f10 <HAL_RCC_GetSysClockFreq+0x2b8>)
70001eda:	623b      	str	r3, [r7, #32]
      break;
70001edc:	bf00      	nop
  }

  prescaler = RCC->CDCFGR & RCC_CDCFGR_CPRE;
70001ede:	4b0a      	ldr	r3, [pc, #40]	@ (70001f08 <HAL_RCC_GetSysClockFreq+0x2b0>)
70001ee0:	699b      	ldr	r3, [r3, #24]
70001ee2:	f003 030f 	and.w	r3, r3, #15
70001ee6:	607b      	str	r3, [r7, #4]
  if (prescaler >= 8U)
70001ee8:	687b      	ldr	r3, [r7, #4]
70001eea:	2b07      	cmp	r3, #7
70001eec:	d905      	bls.n	70001efa <HAL_RCC_GetSysClockFreq+0x2a2>
  {
    sysclockfreq = sysclockfreq >> (prescaler - RCC_CDCFGR_CPRE_3 + 1U);
70001eee:	687b      	ldr	r3, [r7, #4]
70001ef0:	3b07      	subs	r3, #7
70001ef2:	6a3a      	ldr	r2, [r7, #32]
70001ef4:	fa22 f303 	lsr.w	r3, r2, r3
70001ef8:	623b      	str	r3, [r7, #32]
  }

  return sysclockfreq;
70001efa:	6a3b      	ldr	r3, [r7, #32]
}
70001efc:	4618      	mov	r0, r3
70001efe:	372c      	adds	r7, #44	@ 0x2c
70001f00:	46bd      	mov	sp, r7
70001f02:	f85d 7b04 	ldr.w	r7, [sp], #4
70001f06:	4770      	bx	lr
70001f08:	58024400 	.word	0x58024400
70001f0c:	03d09000 	.word	0x03d09000
70001f10:	003d0900 	.word	0x003d0900
70001f14:	016e3600 	.word	0x016e3600
70001f18:	46000000 	.word	0x46000000
70001f1c:	4a742400 	.word	0x4a742400
70001f20:	4bb71b00 	.word	0x4bb71b00

70001f24 <HAL_RCC_GetHCLKFreq>:
/**
  * @brief  Return the HCLK frequency.
  * @retval HCLK frequency in Hz
  */
uint32_t HAL_RCC_GetHCLKFreq(void)
{
70001f24:	b580      	push	{r7, lr}
70001f26:	b084      	sub	sp, #16
70001f28:	af00      	add	r7, sp, #0
  uint32_t clock;
  uint32_t prescaler;
  const uint8_t AHBPrescTable[8] = {1U, 2U, 3U, 4U, 6U, 7U, 8U, 9U};
70001f2a:	4a10      	ldr	r2, [pc, #64]	@ (70001f6c <HAL_RCC_GetHCLKFreq+0x48>)
70001f2c:	463b      	mov	r3, r7
70001f2e:	e892 0003 	ldmia.w	r2, {r0, r1}
70001f32:	e883 0003 	stmia.w	r3, {r0, r1}

  /* SysClk */
  clock = HAL_RCC_GetSysClockFreq();
70001f36:	f7ff fe8f 	bl	70001c58 <HAL_RCC_GetSysClockFreq>
70001f3a:	60f8      	str	r0, [r7, #12]
  /* Bus matrix divider */
  prescaler = (RCC->BMCFGR & RCC_BMCFGR_BMPRE) >> RCC_BMCFGR_BMPRE_Pos;
70001f3c:	4b0c      	ldr	r3, [pc, #48]	@ (70001f70 <HAL_RCC_GetHCLKFreq+0x4c>)
70001f3e:	69db      	ldr	r3, [r3, #28]
70001f40:	f003 030f 	and.w	r3, r3, #15
70001f44:	60bb      	str	r3, [r7, #8]
  if (prescaler >= 8U)
70001f46:	68bb      	ldr	r3, [r7, #8]
70001f48:	2b07      	cmp	r3, #7
70001f4a:	d909      	bls.n	70001f60 <HAL_RCC_GetHCLKFreq+0x3c>
  {
    clock = clock >> AHBPrescTable[prescaler - 8U];
70001f4c:	68bb      	ldr	r3, [r7, #8]
70001f4e:	3b08      	subs	r3, #8
70001f50:	3310      	adds	r3, #16
70001f52:	443b      	add	r3, r7
70001f54:	f813 3c10 	ldrb.w	r3, [r3, #-16]
70001f58:	461a      	mov	r2, r3
70001f5a:	68fb      	ldr	r3, [r7, #12]
70001f5c:	40d3      	lsrs	r3, r2
70001f5e:	60fb      	str	r3, [r7, #12]
  }
  return (clock);
70001f60:	68fb      	ldr	r3, [r7, #12]
}
70001f62:	4618      	mov	r0, r3
70001f64:	3710      	adds	r7, #16
70001f66:	46bd      	mov	sp, r7
70001f68:	bd80      	pop	{r7, pc}
70001f6a:	bf00      	nop
70001f6c:	700068e4 	.word	0x700068e4
70001f70:	58024400 	.word	0x58024400

70001f74 <HAL_RCC_GetPCLK1Freq>:
  * @note   Each time PCLK1 changes, this function must be called to update the
  *         right PCLK1 value. Otherwise, any configuration based on this function will be incorrect.
  * @retval PCLK1 frequency in Hz
  */
uint32_t HAL_RCC_GetPCLK1Freq(void)
{
70001f74:	b580      	push	{r7, lr}
70001f76:	b082      	sub	sp, #8
70001f78:	af00      	add	r7, sp, #0
  uint32_t clock;
  uint32_t prescaler;
  /* Get HCLK source and compute PCLK1 frequency ---------------------------*/
  clock = HAL_RCC_GetHCLKFreq();
70001f7a:	f7ff ffd3 	bl	70001f24 <HAL_RCC_GetHCLKFreq>
70001f7e:	6078      	str	r0, [r7, #4]
  /* APB1 prescaler */
  prescaler = (RCC->APBCFGR & RCC_APBCFGR_PPRE1) >> RCC_APBCFGR_PPRE1_Pos;
70001f80:	4b09      	ldr	r3, [pc, #36]	@ (70001fa8 <HAL_RCC_GetPCLK1Freq+0x34>)
70001f82:	6a1b      	ldr	r3, [r3, #32]
70001f84:	f003 0307 	and.w	r3, r3, #7
70001f88:	603b      	str	r3, [r7, #0]
  if (prescaler >= 4U)
70001f8a:	683b      	ldr	r3, [r7, #0]
70001f8c:	2b03      	cmp	r3, #3
70001f8e:	d905      	bls.n	70001f9c <HAL_RCC_GetPCLK1Freq+0x28>
  {
    clock = clock >> (prescaler - 3U);
70001f90:	683b      	ldr	r3, [r7, #0]
70001f92:	3b03      	subs	r3, #3
70001f94:	687a      	ldr	r2, [r7, #4]
70001f96:	fa22 f303 	lsr.w	r3, r2, r3
70001f9a:	607b      	str	r3, [r7, #4]
  }
  return (clock);
70001f9c:	687b      	ldr	r3, [r7, #4]
}
70001f9e:	4618      	mov	r0, r3
70001fa0:	3708      	adds	r7, #8
70001fa2:	46bd      	mov	sp, r7
70001fa4:	bd80      	pop	{r7, pc}
70001fa6:	bf00      	nop
70001fa8:	58024400 	.word	0x58024400

70001fac <HAL_RCC_GetPCLK2Freq>:
  * @note   Each time PCLK2 changes, this function must be called to update the
  *         right PCLK2 value. Otherwise, any configuration based on this function will be incorrect.
  * @retval PCLK2 frequency in Hz
  */
uint32_t HAL_RCC_GetPCLK2Freq(void)
{
70001fac:	b580      	push	{r7, lr}
70001fae:	b082      	sub	sp, #8
70001fb0:	af00      	add	r7, sp, #0
  uint32_t clock;
  uint32_t prescaler;
  /* Get HCLK source and compute PCLK2 frequency ---------------------------*/
  clock = HAL_RCC_GetHCLKFreq();
70001fb2:	f7ff ffb7 	bl	70001f24 <HAL_RCC_GetHCLKFreq>
70001fb6:	6078      	str	r0, [r7, #4]
  /* APB2 prescaler */
  prescaler = (RCC->APBCFGR & RCC_APBCFGR_PPRE2) >> RCC_APBCFGR_PPRE2_Pos;
70001fb8:	4b09      	ldr	r3, [pc, #36]	@ (70001fe0 <HAL_RCC_GetPCLK2Freq+0x34>)
70001fba:	6a1b      	ldr	r3, [r3, #32]
70001fbc:	091b      	lsrs	r3, r3, #4
70001fbe:	f003 0307 	and.w	r3, r3, #7
70001fc2:	603b      	str	r3, [r7, #0]
  if (prescaler >= 4U)
70001fc4:	683b      	ldr	r3, [r7, #0]
70001fc6:	2b03      	cmp	r3, #3
70001fc8:	d905      	bls.n	70001fd6 <HAL_RCC_GetPCLK2Freq+0x2a>
  {
    clock = clock >> (prescaler - 3U);
70001fca:	683b      	ldr	r3, [r7, #0]
70001fcc:	3b03      	subs	r3, #3
70001fce:	687a      	ldr	r2, [r7, #4]
70001fd0:	fa22 f303 	lsr.w	r3, r2, r3
70001fd4:	607b      	str	r3, [r7, #4]
  }
  return (clock);
70001fd6:	687b      	ldr	r3, [r7, #4]
}
70001fd8:	4618      	mov	r0, r3
70001fda:	3708      	adds	r7, #8
70001fdc:	46bd      	mov	sp, r7
70001fde:	bd80      	pop	{r7, pc}
70001fe0:	58024400 	.word	0x58024400

70001fe4 <HAL_RCC_GetPCLK4Freq>:
  * @note   Each time PCLK4 changes, this function must be called to update the
  *         right PCLK4 value. Otherwise, any configuration based on this function will be incorrect.
  * @retval PCLK4 frequency in Hz
  */
uint32_t HAL_RCC_GetPCLK4Freq(void)
{
70001fe4:	b580      	push	{r7, lr}
70001fe6:	b082      	sub	sp, #8
70001fe8:	af00      	add	r7, sp, #0
  uint32_t clock;
  uint32_t prescaler;
  /* Get HCLK source and compute PCLK4 frequency ---------------------------*/
  clock = HAL_RCC_GetHCLKFreq();
70001fea:	f7ff ff9b 	bl	70001f24 <HAL_RCC_GetHCLKFreq>
70001fee:	6078      	str	r0, [r7, #4]
  /* APB4 prescaler */
  prescaler = (RCC->APBCFGR & RCC_APBCFGR_PPRE4) >> RCC_APBCFGR_PPRE4_Pos;
70001ff0:	4b09      	ldr	r3, [pc, #36]	@ (70002018 <HAL_RCC_GetPCLK4Freq+0x34>)
70001ff2:	6a1b      	ldr	r3, [r3, #32]
70001ff4:	0a1b      	lsrs	r3, r3, #8
70001ff6:	f003 0307 	and.w	r3, r3, #7
70001ffa:	603b      	str	r3, [r7, #0]
  if (prescaler >= 4U)
70001ffc:	683b      	ldr	r3, [r7, #0]
70001ffe:	2b03      	cmp	r3, #3
70002000:	d905      	bls.n	7000200e <HAL_RCC_GetPCLK4Freq+0x2a>
  {
    clock = clock >> (prescaler - 3U);
70002002:	683b      	ldr	r3, [r7, #0]
70002004:	3b03      	subs	r3, #3
70002006:	687a      	ldr	r2, [r7, #4]
70002008:	fa22 f303 	lsr.w	r3, r2, r3
7000200c:	607b      	str	r3, [r7, #4]
  }
  return (clock);
7000200e:	687b      	ldr	r3, [r7, #4]
}
70002010:	4618      	mov	r0, r3
70002012:	3708      	adds	r7, #8
70002014:	46bd      	mov	sp, r7
70002016:	bd80      	pop	{r7, pc}
70002018:	58024400 	.word	0x58024400

7000201c <HAL_RCC_GetPLL2QFreq>:
/**
  * @brief  Return the PLL2Q frequency.
  * @retval PLL2Q frequency in Hz
  */
uint32_t HAL_RCC_GetPLL2QFreq(void)
{
7000201c:	b580      	push	{r7, lr}
7000201e:	b082      	sub	sp, #8
70002020:	af00      	add	r7, sp, #0
  uint32_t pllq;

  /* PLL2Q divider */
  pllq = ((RCC->PLL2DIVR1 & RCC_PLL2DIVR1_DIVQ) >> RCC_PLL2DIVR1_DIVQ_Pos) + 1U;
70002022:	4b08      	ldr	r3, [pc, #32]	@ (70002044 <HAL_RCC_GetPLL2QFreq+0x28>)
70002024:	6b9b      	ldr	r3, [r3, #56]	@ 0x38
70002026:	0c1b      	lsrs	r3, r3, #16
70002028:	f003 037f 	and.w	r3, r3, #127	@ 0x7f
7000202c:	3301      	adds	r3, #1
7000202e:	607b      	str	r3, [r7, #4]

  /* Compute VCO output frequency and return PLL2Q one */
  return ((uint32_t)RCC_PLL2_GetVCOOutputFreq() / pllq);
70002030:	f000 f820 	bl	70002074 <RCC_PLL2_GetVCOOutputFreq>
70002034:	4602      	mov	r2, r0
70002036:	687b      	ldr	r3, [r7, #4]
70002038:	fbb2 f3f3 	udiv	r3, r2, r3
}
7000203c:	4618      	mov	r0, r3
7000203e:	3708      	adds	r7, #8
70002040:	46bd      	mov	sp, r7
70002042:	bd80      	pop	{r7, pc}
70002044:	58024400 	.word	0x58024400

70002048 <HAL_RCC_GetPLL3QFreq>:
/**
  * @brief  Return the PLL3Q frequency.
  * @retval PLL3Q frequency in Hz
  */
uint32_t HAL_RCC_GetPLL3QFreq(void)
{
70002048:	b580      	push	{r7, lr}
7000204a:	b082      	sub	sp, #8
7000204c:	af00      	add	r7, sp, #0
  uint32_t pllq;

  /* PLL3Q divider */
  pllq = ((RCC->PLL3DIVR1 & RCC_PLL3DIVR1_DIVQ) >> RCC_PLL3DIVR1_DIVQ_Pos) + 1U;
7000204e:	4b08      	ldr	r3, [pc, #32]	@ (70002070 <HAL_RCC_GetPLL3QFreq+0x28>)
70002050:	6c1b      	ldr	r3, [r3, #64]	@ 0x40
70002052:	0c1b      	lsrs	r3, r3, #16
70002054:	f003 037f 	and.w	r3, r3, #127	@ 0x7f
70002058:	3301      	adds	r3, #1
7000205a:	607b      	str	r3, [r7, #4]

  /* Compute VCO output frequency and return PLL3Q one */
  return ((uint32_t)RCC_PLL3_GetVCOOutputFreq() / pllq);
7000205c:	f000 f890 	bl	70002180 <RCC_PLL3_GetVCOOutputFreq>
70002060:	4602      	mov	r2, r0
70002062:	687b      	ldr	r3, [r7, #4]
70002064:	fbb2 f3f3 	udiv	r3, r2, r3
}
70002068:	4618      	mov	r0, r3
7000206a:	3708      	adds	r7, #8
7000206c:	46bd      	mov	sp, r7
7000206e:	bd80      	pop	{r7, pc}
70002070:	58024400 	.word	0x58024400

70002074 <RCC_PLL2_GetVCOOutputFreq>:
/**
  * @brief  Compute PLL2 VCO output frequency
  * @retval Value of PLL2 VCO output frequency
  */
static uint32_t RCC_PLL2_GetVCOOutputFreq(void)
{
70002074:	b480      	push	{r7}
70002076:	b089      	sub	sp, #36	@ 0x24
70002078:	af00      	add	r7, sp, #0
  uint32_t plln;
  uint32_t pllfracn;
  float_t frequency;

  /* Get PLL2 CKSELR and DIVR register values */
  tmpreg1 = RCC->PLLCKSELR;
7000207a:	4b3c      	ldr	r3, [pc, #240]	@ (7000216c <RCC_PLL2_GetVCOOutputFreq+0xf8>)
7000207c:	6a9b      	ldr	r3, [r3, #40]	@ 0x28
7000207e:	617b      	str	r3, [r7, #20]
  tmpreg2 = RCC->PLL2DIVR1;
70002080:	4b3a      	ldr	r3, [pc, #232]	@ (7000216c <RCC_PLL2_GetVCOOutputFreq+0xf8>)
70002082:	6b9b      	ldr	r3, [r3, #56]	@ 0x38
70002084:	613b      	str	r3, [r7, #16]

  /* Retrieve PLL2 multiplication factor and divider */
  pllm = (tmpreg1 & RCC_PLLCKSELR_DIVM2) >> RCC_PLLCKSELR_DIVM2_Pos;
70002086:	697b      	ldr	r3, [r7, #20]
70002088:	0b1b      	lsrs	r3, r3, #12
7000208a:	f003 033f 	and.w	r3, r3, #63	@ 0x3f
7000208e:	60fb      	str	r3, [r7, #12]
  plln = (tmpreg2 & RCC_PLL2DIVR1_DIVN) + 1U;
70002090:	693b      	ldr	r3, [r7, #16]
70002092:	f3c3 0308 	ubfx	r3, r3, #0, #9
70002096:	3301      	adds	r3, #1
70002098:	60bb      	str	r3, [r7, #8]

  if (pllm == 0U)
7000209a:	68fb      	ldr	r3, [r7, #12]
7000209c:	2b00      	cmp	r3, #0
7000209e:	d101      	bne.n	700020a4 <RCC_PLL2_GetVCOOutputFreq+0x30>
  {
    /* Prescaler disabled */
    return 0U;
700020a0:	2300      	movs	r3, #0
700020a2:	e05c      	b.n	7000215e <RCC_PLL2_GetVCOOutputFreq+0xea>
  }

  /* Check if fractional part is enable */
  if ((RCC->PLLCFGR & RCC_PLLCFGR_PLL2FRACEN) != 0U)
700020a4:	4b31      	ldr	r3, [pc, #196]	@ (7000216c <RCC_PLL2_GetVCOOutputFreq+0xf8>)
700020a6:	6adb      	ldr	r3, [r3, #44]	@ 0x2c
700020a8:	f403 6300 	and.w	r3, r3, #2048	@ 0x800
700020ac:	2b00      	cmp	r3, #0
700020ae:	d006      	beq.n	700020be <RCC_PLL2_GetVCOOutputFreq+0x4a>
  {
    pllfracn = (RCC->PLL2FRACR & RCC_PLL2FRACR_FRACN) >> RCC_PLL2FRACR_FRACN_Pos;
700020b0:	4b2e      	ldr	r3, [pc, #184]	@ (7000216c <RCC_PLL2_GetVCOOutputFreq+0xf8>)
700020b2:	6bdb      	ldr	r3, [r3, #60]	@ 0x3c
700020b4:	08db      	lsrs	r3, r3, #3
700020b6:	f3c3 030c 	ubfx	r3, r3, #0, #13
700020ba:	61bb      	str	r3, [r7, #24]
700020bc:	e001      	b.n	700020c2 <RCC_PLL2_GetVCOOutputFreq+0x4e>
  }
  else
  {
    pllfracn = 0U;
700020be:	2300      	movs	r3, #0
700020c0:	61bb      	str	r3, [r7, #24]
  }

  /* determine PLL source */
  switch (tmpreg1 & RCC_PLLCKSELR_PLLSRC)
700020c2:	697b      	ldr	r3, [r7, #20]
700020c4:	f003 0303 	and.w	r3, r3, #3
700020c8:	2b02      	cmp	r3, #2
700020ca:	d019      	beq.n	70002100 <RCC_PLL2_GetVCOOutputFreq+0x8c>
700020cc:	2b02      	cmp	r3, #2
700020ce:	d81d      	bhi.n	7000210c <RCC_PLL2_GetVCOOutputFreq+0x98>
700020d0:	2b00      	cmp	r3, #0
700020d2:	d002      	beq.n	700020da <RCC_PLL2_GetVCOOutputFreq+0x66>
700020d4:	2b01      	cmp	r3, #1
700020d6:	d016      	beq.n	70002106 <RCC_PLL2_GetVCOOutputFreq+0x92>
700020d8:	e018      	b.n	7000210c <RCC_PLL2_GetVCOOutputFreq+0x98>
  {
    /* HSI used as PLL2 clock source */
    case RCC_PLLSOURCE_HSI:
      if (READ_BIT(RCC->CR, RCC_CR_HSIDIVF) != 0U)
700020da:	4b24      	ldr	r3, [pc, #144]	@ (7000216c <RCC_PLL2_GetVCOOutputFreq+0xf8>)
700020dc:	681b      	ldr	r3, [r3, #0]
700020de:	f003 0320 	and.w	r3, r3, #32
700020e2:	2b00      	cmp	r3, #0
700020e4:	d009      	beq.n	700020fa <RCC_PLL2_GetVCOOutputFreq+0x86>
      {
        pllsrc = HSI_VALUE >> ((RCC->CR & RCC_CR_HSIDIV) >> RCC_CR_HSIDIV_Pos);
700020e6:	4b21      	ldr	r3, [pc, #132]	@ (7000216c <RCC_PLL2_GetVCOOutputFreq+0xf8>)
700020e8:	681b      	ldr	r3, [r3, #0]
700020ea:	08db      	lsrs	r3, r3, #3
700020ec:	f003 0303 	and.w	r3, r3, #3
700020f0:	4a1f      	ldr	r2, [pc, #124]	@ (70002170 <RCC_PLL2_GetVCOOutputFreq+0xfc>)
700020f2:	fa22 f303 	lsr.w	r3, r2, r3
700020f6:	61fb      	str	r3, [r7, #28]
      else
      {
        /* Can't retrieve HSIDIV value */
        pllsrc = 0U;
      }
      break;
700020f8:	e00b      	b.n	70002112 <RCC_PLL2_GetVCOOutputFreq+0x9e>
        pllsrc = 0U;
700020fa:	2300      	movs	r3, #0
700020fc:	61fb      	str	r3, [r7, #28]
      break;
700020fe:	e008      	b.n	70002112 <RCC_PLL2_GetVCOOutputFreq+0x9e>

    /* HSE used as PLL2 clock source */
    case RCC_PLLSOURCE_HSE:
      pllsrc = HSE_VALUE;
70002100:	4b1c      	ldr	r3, [pc, #112]	@ (70002174 <RCC_PLL2_GetVCOOutputFreq+0x100>)
70002102:	61fb      	str	r3, [r7, #28]
      break;
70002104:	e005      	b.n	70002112 <RCC_PLL2_GetVCOOutputFreq+0x9e>

    /* CSI used as PLL2 clock source */
    case RCC_PLLSOURCE_CSI:
      pllsrc = CSI_VALUE;
70002106:	4b1c      	ldr	r3, [pc, #112]	@ (70002178 <RCC_PLL2_GetVCOOutputFreq+0x104>)
70002108:	61fb      	str	r3, [r7, #28]
      break;
7000210a:	e002      	b.n	70002112 <RCC_PLL2_GetVCOOutputFreq+0x9e>

    default:
      pllsrc = 0U;
7000210c:	2300      	movs	r3, #0
7000210e:	61fb      	str	r3, [r7, #28]
      break;
70002110:	bf00      	nop
  }

  /* Compute VCO output frequency */
  frequency = ((float_t)pllsrc / (float_t)pllm) * ((float_t)plln + ((float_t)pllfracn / (float_t)0x2000U));
70002112:	69fb      	ldr	r3, [r7, #28]
70002114:	ee07 3a90 	vmov	s15, r3
70002118:	eef8 6a67 	vcvt.f32.u32	s13, s15
7000211c:	68fb      	ldr	r3, [r7, #12]
7000211e:	ee07 3a90 	vmov	s15, r3
70002122:	eef8 7a67 	vcvt.f32.u32	s15, s15
70002126:	ee86 7aa7 	vdiv.f32	s14, s13, s15
7000212a:	68bb      	ldr	r3, [r7, #8]
7000212c:	ee07 3a90 	vmov	s15, r3
70002130:	eef8 6a67 	vcvt.f32.u32	s13, s15
70002134:	69bb      	ldr	r3, [r7, #24]
70002136:	ee07 3a90 	vmov	s15, r3
7000213a:	eeb8 6a67 	vcvt.f32.u32	s12, s15
7000213e:	eddf 5a0f 	vldr	s11, [pc, #60]	@ 7000217c <RCC_PLL2_GetVCOOutputFreq+0x108>
70002142:	eec6 7a25 	vdiv.f32	s15, s12, s11
70002146:	ee76 7aa7 	vadd.f32	s15, s13, s15
7000214a:	ee67 7a27 	vmul.f32	s15, s14, s15
7000214e:	edc7 7a01 	vstr	s15, [r7, #4]
  
  return (uint32_t)frequency;
70002152:	edd7 7a01 	vldr	s15, [r7, #4]
70002156:	eefc 7ae7 	vcvt.u32.f32	s15, s15
7000215a:	ee17 3a90 	vmov	r3, s15
}
7000215e:	4618      	mov	r0, r3
70002160:	3724      	adds	r7, #36	@ 0x24
70002162:	46bd      	mov	sp, r7
70002164:	f85d 7b04 	ldr.w	r7, [sp], #4
70002168:	4770      	bx	lr
7000216a:	bf00      	nop
7000216c:	58024400 	.word	0x58024400
70002170:	03d09000 	.word	0x03d09000
70002174:	016e3600 	.word	0x016e3600
70002178:	003d0900 	.word	0x003d0900
7000217c:	46000000 	.word	0x46000000

70002180 <RCC_PLL3_GetVCOOutputFreq>:
/**
  * @brief  Compute PLL3 VCO output frequency
  * @retval Value of PLL3 VCO output frequency
  */
static uint32_t RCC_PLL3_GetVCOOutputFreq(void)
{
70002180:	b480      	push	{r7}
70002182:	b089      	sub	sp, #36	@ 0x24
70002184:	af00      	add	r7, sp, #0
  uint32_t plln;
  uint32_t pllfracn;
  float_t frequency;

  /* Get PLL3 CKSELR and DIVR register values */
  tmpreg1 = RCC->PLLCKSELR;
70002186:	4b3c      	ldr	r3, [pc, #240]	@ (70002278 <RCC_PLL3_GetVCOOutputFreq+0xf8>)
70002188:	6a9b      	ldr	r3, [r3, #40]	@ 0x28
7000218a:	617b      	str	r3, [r7, #20]
  tmpreg2 = RCC->PLL3DIVR1;
7000218c:	4b3a      	ldr	r3, [pc, #232]	@ (70002278 <RCC_PLL3_GetVCOOutputFreq+0xf8>)
7000218e:	6c1b      	ldr	r3, [r3, #64]	@ 0x40
70002190:	613b      	str	r3, [r7, #16]

  /* Retrieve PLL3 multiplication factor and divider */
  pllm = (tmpreg1 & RCC_PLLCKSELR_DIVM3) >> RCC_PLLCKSELR_DIVM3_Pos;
70002192:	697b      	ldr	r3, [r7, #20]
70002194:	0d1b      	lsrs	r3, r3, #20
70002196:	f003 033f 	and.w	r3, r3, #63	@ 0x3f
7000219a:	60fb      	str	r3, [r7, #12]
  plln = (tmpreg2 & RCC_PLL3DIVR1_DIVN) + 1U;
7000219c:	693b      	ldr	r3, [r7, #16]
7000219e:	f3c3 0308 	ubfx	r3, r3, #0, #9
700021a2:	3301      	adds	r3, #1
700021a4:	60bb      	str	r3, [r7, #8]

  if (pllm == 0U)
700021a6:	68fb      	ldr	r3, [r7, #12]
700021a8:	2b00      	cmp	r3, #0
700021aa:	d101      	bne.n	700021b0 <RCC_PLL3_GetVCOOutputFreq+0x30>
  {
    /* Prescaler disabled */
    return 0U;
700021ac:	2300      	movs	r3, #0
700021ae:	e05c      	b.n	7000226a <RCC_PLL3_GetVCOOutputFreq+0xea>
  }

  /* Check if fractional part is enable */
  if ((RCC->PLLCFGR & RCC_PLLCFGR_PLL3FRACEN) != 0U)
700021b0:	4b31      	ldr	r3, [pc, #196]	@ (70002278 <RCC_PLL3_GetVCOOutputFreq+0xf8>)
700021b2:	6adb      	ldr	r3, [r3, #44]	@ 0x2c
700021b4:	f403 0380 	and.w	r3, r3, #4194304	@ 0x400000
700021b8:	2b00      	cmp	r3, #0
700021ba:	d006      	beq.n	700021ca <RCC_PLL3_GetVCOOutputFreq+0x4a>
  {
    pllfracn = (RCC->PLL3FRACR & RCC_PLL3FRACR_FRACN) >> RCC_PLL3FRACR_FRACN_Pos;
700021bc:	4b2e      	ldr	r3, [pc, #184]	@ (70002278 <RCC_PLL3_GetVCOOutputFreq+0xf8>)
700021be:	6c5b      	ldr	r3, [r3, #68]	@ 0x44
700021c0:	08db      	lsrs	r3, r3, #3
700021c2:	f3c3 030c 	ubfx	r3, r3, #0, #13
700021c6:	61bb      	str	r3, [r7, #24]
700021c8:	e001      	b.n	700021ce <RCC_PLL3_GetVCOOutputFreq+0x4e>
  }
  else
  {
    pllfracn = 0U;
700021ca:	2300      	movs	r3, #0
700021cc:	61bb      	str	r3, [r7, #24]
  }

  /* determine PLL source */
  switch (tmpreg1 & RCC_PLLCKSELR_PLLSRC)
700021ce:	697b      	ldr	r3, [r7, #20]
700021d0:	f003 0303 	and.w	r3, r3, #3
700021d4:	2b02      	cmp	r3, #2
700021d6:	d019      	beq.n	7000220c <RCC_PLL3_GetVCOOutputFreq+0x8c>
700021d8:	2b02      	cmp	r3, #2
700021da:	d81d      	bhi.n	70002218 <RCC_PLL3_GetVCOOutputFreq+0x98>
700021dc:	2b00      	cmp	r3, #0
700021de:	d002      	beq.n	700021e6 <RCC_PLL3_GetVCOOutputFreq+0x66>
700021e0:	2b01      	cmp	r3, #1
700021e2:	d016      	beq.n	70002212 <RCC_PLL3_GetVCOOutputFreq+0x92>
700021e4:	e018      	b.n	70002218 <RCC_PLL3_GetVCOOutputFreq+0x98>
  {
    /* HSI used as PLL3 clock source */
    case RCC_PLLSOURCE_HSI:
      if (READ_BIT(RCC->CR, RCC_CR_HSIDIVF) != 0U)
700021e6:	4b24      	ldr	r3, [pc, #144]	@ (70002278 <RCC_PLL3_GetVCOOutputFreq+0xf8>)
700021e8:	681b      	ldr	r3, [r3, #0]
700021ea:	f003 0320 	and.w	r3, r3, #32
700021ee:	2b00      	cmp	r3, #0
700021f0:	d009      	beq.n	70002206 <RCC_PLL3_GetVCOOutputFreq+0x86>
      {
        pllsrc = HSI_VALUE >> ((RCC->CR & RCC_CR_HSIDIV) >> RCC_CR_HSIDIV_Pos);
700021f2:	4b21      	ldr	r3, [pc, #132]	@ (70002278 <RCC_PLL3_GetVCOOutputFreq+0xf8>)
700021f4:	681b      	ldr	r3, [r3, #0]
700021f6:	08db      	lsrs	r3, r3, #3
700021f8:	f003 0303 	and.w	r3, r3, #3
700021fc:	4a1f      	ldr	r2, [pc, #124]	@ (7000227c <RCC_PLL3_GetVCOOutputFreq+0xfc>)
700021fe:	fa22 f303 	lsr.w	r3, r2, r3
70002202:	61fb      	str	r3, [r7, #28]
      else
      {
        /* Can't retrieve HSIDIV value */
        pllsrc = 0U;
      }
      break;
70002204:	e00b      	b.n	7000221e <RCC_PLL3_GetVCOOutputFreq+0x9e>
        pllsrc = 0U;
70002206:	2300      	movs	r3, #0
70002208:	61fb      	str	r3, [r7, #28]
      break;
7000220a:	e008      	b.n	7000221e <RCC_PLL3_GetVCOOutputFreq+0x9e>

    /* HSE used as PLL3 clock source */
    case RCC_PLLSOURCE_HSE:
      pllsrc = HSE_VALUE;
7000220c:	4b1c      	ldr	r3, [pc, #112]	@ (70002280 <RCC_PLL3_GetVCOOutputFreq+0x100>)
7000220e:	61fb      	str	r3, [r7, #28]
      break;
70002210:	e005      	b.n	7000221e <RCC_PLL3_GetVCOOutputFreq+0x9e>

    /* CSI used as PLL3 clock source */
    case RCC_PLLSOURCE_CSI:
      pllsrc = CSI_VALUE;
70002212:	4b1c      	ldr	r3, [pc, #112]	@ (70002284 <RCC_PLL3_GetVCOOutputFreq+0x104>)
70002214:	61fb      	str	r3, [r7, #28]
      break;
70002216:	e002      	b.n	7000221e <RCC_PLL3_GetVCOOutputFreq+0x9e>

    default:
      pllsrc = 0U;
70002218:	2300      	movs	r3, #0
7000221a:	61fb      	str	r3, [r7, #28]
      break;
7000221c:	bf00      	nop
  }

  /* Compute VCO output frequency */
  frequency = ((float_t)pllsrc / (float_t)pllm) * ((float_t)plln + ((float_t)pllfracn / (float_t)0x2000U));
7000221e:	69fb      	ldr	r3, [r7, #28]
70002220:	ee07 3a90 	vmov	s15, r3
70002224:	eef8 6a67 	vcvt.f32.u32	s13, s15
70002228:	68fb      	ldr	r3, [r7, #12]
7000222a:	ee07 3a90 	vmov	s15, r3
7000222e:	eef8 7a67 	vcvt.f32.u32	s15, s15
70002232:	ee86 7aa7 	vdiv.f32	s14, s13, s15
70002236:	68bb      	ldr	r3, [r7, #8]
70002238:	ee07 3a90 	vmov	s15, r3
7000223c:	eef8 6a67 	vcvt.f32.u32	s13, s15
70002240:	69bb      	ldr	r3, [r7, #24]
70002242:	ee07 3a90 	vmov	s15, r3
70002246:	eeb8 6a67 	vcvt.f32.u32	s12, s15
7000224a:	eddf 5a0f 	vldr	s11, [pc, #60]	@ 70002288 <RCC_PLL3_GetVCOOutputFreq+0x108>
7000224e:	eec6 7a25 	vdiv.f32	s15, s12, s11
70002252:	ee76 7aa7 	vadd.f32	s15, s13, s15
70002256:	ee67 7a27 	vmul.f32	s15, s14, s15
7000225a:	edc7 7a01 	vstr	s15, [r7, #4]
  
  return (uint32_t)frequency;
7000225e:	edd7 7a01 	vldr	s15, [r7, #4]
70002262:	eefc 7ae7 	vcvt.u32.f32	s15, s15
70002266:	ee17 3a90 	vmov	r3, s15
}
7000226a:	4618      	mov	r0, r3
7000226c:	3724      	adds	r7, #36	@ 0x24
7000226e:	46bd      	mov	sp, r7
70002270:	f85d 7b04 	ldr.w	r7, [sp], #4
70002274:	4770      	bx	lr
70002276:	bf00      	nop
70002278:	58024400 	.word	0x58024400
7000227c:	03d09000 	.word	0x03d09000
70002280:	016e3600 	.word	0x016e3600
70002284:	003d0900 	.word	0x003d0900
70002288:	46000000 	.word	0x46000000

7000228c <HAL_RCCEx_PeriphCLKConfig>:
  *         the backup registers) are set to their reset values.
  *
  * @retval HAL status
  */
HAL_StatusTypeDef HAL_RCCEx_PeriphCLKConfig(const RCC_PeriphCLKInitTypeDef  *PeriphClkInit)
{
7000228c:	b580      	push	{r7, lr}
7000228e:	b086      	sub	sp, #24
70002290:	af00      	add	r7, sp, #0
70002292:	6078      	str	r0, [r7, #4]
  uint32_t tmpreg;
  uint32_t tickstart;
  HAL_StatusTypeDef ret = HAL_OK;      /* Intermediate status */
70002294:	2300      	movs	r3, #0
70002296:	75fb      	strb	r3, [r7, #23]
  HAL_StatusTypeDef status = HAL_OK;   /* Final status */
70002298:	2300      	movs	r3, #0
7000229a:	75bb      	strb	r3, [r7, #22]

  /* Check the parameters */
  assert_param(IS_RCC_PERIPHCLOCK(PeriphClkInit->PeriphClockSelection));
7000229c:	687b      	ldr	r3, [r7, #4]
7000229e:	681b      	ldr	r3, [r3, #0]
700022a0:	f003 0301 	and.w	r3, r3, #1
700022a4:	2b00      	cmp	r3, #0
700022a6:	f040 80c5 	bne.w	70002434 <HAL_RCCEx_PeriphCLKConfig+0x1a8>
700022aa:	687b      	ldr	r3, [r7, #4]
700022ac:	681b      	ldr	r3, [r3, #0]
700022ae:	f003 0302 	and.w	r3, r3, #2
700022b2:	2b00      	cmp	r3, #0
700022b4:	f040 80be 	bne.w	70002434 <HAL_RCCEx_PeriphCLKConfig+0x1a8>
700022b8:	687b      	ldr	r3, [r7, #4]
700022ba:	681b      	ldr	r3, [r3, #0]
700022bc:	f003 0304 	and.w	r3, r3, #4
700022c0:	2b00      	cmp	r3, #0
700022c2:	f040 80b7 	bne.w	70002434 <HAL_RCCEx_PeriphCLKConfig+0x1a8>
700022c6:	687b      	ldr	r3, [r7, #4]
700022c8:	681b      	ldr	r3, [r3, #0]
700022ca:	f003 0308 	and.w	r3, r3, #8
700022ce:	2b00      	cmp	r3, #0
700022d0:	f040 80b0 	bne.w	70002434 <HAL_RCCEx_PeriphCLKConfig+0x1a8>
700022d4:	687b      	ldr	r3, [r7, #4]
700022d6:	681b      	ldr	r3, [r3, #0]
700022d8:	f003 0310 	and.w	r3, r3, #16
700022dc:	2b00      	cmp	r3, #0
700022de:	f040 80a9 	bne.w	70002434 <HAL_RCCEx_PeriphCLKConfig+0x1a8>
700022e2:	687b      	ldr	r3, [r7, #4]
700022e4:	681b      	ldr	r3, [r3, #0]
700022e6:	f003 0320 	and.w	r3, r3, #32
700022ea:	2b00      	cmp	r3, #0
700022ec:	f040 80a2 	bne.w	70002434 <HAL_RCCEx_PeriphCLKConfig+0x1a8>
700022f0:	687b      	ldr	r3, [r7, #4]
700022f2:	681b      	ldr	r3, [r3, #0]
700022f4:	f003 0340 	and.w	r3, r3, #64	@ 0x40
700022f8:	2b00      	cmp	r3, #0
700022fa:	f040 809b 	bne.w	70002434 <HAL_RCCEx_PeriphCLKConfig+0x1a8>
700022fe:	687b      	ldr	r3, [r7, #4]
70002300:	681b      	ldr	r3, [r3, #0]
70002302:	f003 0380 	and.w	r3, r3, #128	@ 0x80
70002306:	2b00      	cmp	r3, #0
70002308:	f040 8094 	bne.w	70002434 <HAL_RCCEx_PeriphCLKConfig+0x1a8>
7000230c:	687b      	ldr	r3, [r7, #4]
7000230e:	681b      	ldr	r3, [r3, #0]
70002310:	f403 7380 	and.w	r3, r3, #256	@ 0x100
70002314:	2b00      	cmp	r3, #0
70002316:	f040 808d 	bne.w	70002434 <HAL_RCCEx_PeriphCLKConfig+0x1a8>
7000231a:	687b      	ldr	r3, [r7, #4]
7000231c:	681b      	ldr	r3, [r3, #0]
7000231e:	f403 7300 	and.w	r3, r3, #512	@ 0x200
70002322:	2b00      	cmp	r3, #0
70002324:	f040 8086 	bne.w	70002434 <HAL_RCCEx_PeriphCLKConfig+0x1a8>
70002328:	687b      	ldr	r3, [r7, #4]
7000232a:	681b      	ldr	r3, [r3, #0]
7000232c:	f403 6300 	and.w	r3, r3, #2048	@ 0x800
70002330:	2b00      	cmp	r3, #0
70002332:	d17f      	bne.n	70002434 <HAL_RCCEx_PeriphCLKConfig+0x1a8>
70002334:	687b      	ldr	r3, [r7, #4]
70002336:	681b      	ldr	r3, [r3, #0]
70002338:	f403 6380 	and.w	r3, r3, #1024	@ 0x400
7000233c:	2b00      	cmp	r3, #0
7000233e:	d179      	bne.n	70002434 <HAL_RCCEx_PeriphCLKConfig+0x1a8>
70002340:	687b      	ldr	r3, [r7, #4]
70002342:	681b      	ldr	r3, [r3, #0]
70002344:	f403 5380 	and.w	r3, r3, #4096	@ 0x1000
70002348:	2b00      	cmp	r3, #0
7000234a:	d173      	bne.n	70002434 <HAL_RCCEx_PeriphCLKConfig+0x1a8>
7000234c:	687b      	ldr	r3, [r7, #4]
7000234e:	681b      	ldr	r3, [r3, #0]
70002350:	f403 5300 	and.w	r3, r3, #8192	@ 0x2000
70002354:	2b00      	cmp	r3, #0
70002356:	d16d      	bne.n	70002434 <HAL_RCCEx_PeriphCLKConfig+0x1a8>
70002358:	687b      	ldr	r3, [r7, #4]
7000235a:	681b      	ldr	r3, [r3, #0]
7000235c:	f403 4380 	and.w	r3, r3, #16384	@ 0x4000
70002360:	2b00      	cmp	r3, #0
70002362:	d167      	bne.n	70002434 <HAL_RCCEx_PeriphCLKConfig+0x1a8>
70002364:	687b      	ldr	r3, [r7, #4]
70002366:	681b      	ldr	r3, [r3, #0]
70002368:	f403 4300 	and.w	r3, r3, #32768	@ 0x8000
7000236c:	2b00      	cmp	r3, #0
7000236e:	d161      	bne.n	70002434 <HAL_RCCEx_PeriphCLKConfig+0x1a8>
70002370:	687b      	ldr	r3, [r7, #4]
70002372:	681b      	ldr	r3, [r3, #0]
70002374:	f403 3380 	and.w	r3, r3, #65536	@ 0x10000
70002378:	2b00      	cmp	r3, #0
7000237a:	d15b      	bne.n	70002434 <HAL_RCCEx_PeriphCLKConfig+0x1a8>
7000237c:	687b      	ldr	r3, [r7, #4]
7000237e:	681b      	ldr	r3, [r3, #0]
70002380:	f403 3300 	and.w	r3, r3, #131072	@ 0x20000
70002384:	2b00      	cmp	r3, #0
70002386:	d155      	bne.n	70002434 <HAL_RCCEx_PeriphCLKConfig+0x1a8>
70002388:	687b      	ldr	r3, [r7, #4]
7000238a:	681b      	ldr	r3, [r3, #0]
7000238c:	f403 2380 	and.w	r3, r3, #262144	@ 0x40000
70002390:	2b00      	cmp	r3, #0
70002392:	d14f      	bne.n	70002434 <HAL_RCCEx_PeriphCLKConfig+0x1a8>
70002394:	687b      	ldr	r3, [r7, #4]
70002396:	681b      	ldr	r3, [r3, #0]
70002398:	f403 2300 	and.w	r3, r3, #524288	@ 0x80000
7000239c:	2b00      	cmp	r3, #0
7000239e:	d149      	bne.n	70002434 <HAL_RCCEx_PeriphCLKConfig+0x1a8>
700023a0:	687b      	ldr	r3, [r7, #4]
700023a2:	681b      	ldr	r3, [r3, #0]
700023a4:	f403 1380 	and.w	r3, r3, #1048576	@ 0x100000
700023a8:	2b00      	cmp	r3, #0
700023aa:	d143      	bne.n	70002434 <HAL_RCCEx_PeriphCLKConfig+0x1a8>
700023ac:	687b      	ldr	r3, [r7, #4]
700023ae:	681b      	ldr	r3, [r3, #0]
700023b0:	f403 1300 	and.w	r3, r3, #2097152	@ 0x200000
700023b4:	2b00      	cmp	r3, #0
700023b6:	d13d      	bne.n	70002434 <HAL_RCCEx_PeriphCLKConfig+0x1a8>
700023b8:	687b      	ldr	r3, [r7, #4]
700023ba:	681b      	ldr	r3, [r3, #0]
700023bc:	f403 0380 	and.w	r3, r3, #4194304	@ 0x400000
700023c0:	2b00      	cmp	r3, #0
700023c2:	d137      	bne.n	70002434 <HAL_RCCEx_PeriphCLKConfig+0x1a8>
700023c4:	687b      	ldr	r3, [r7, #4]
700023c6:	681b      	ldr	r3, [r3, #0]
700023c8:	f403 0300 	and.w	r3, r3, #8388608	@ 0x800000
700023cc:	2b00      	cmp	r3, #0
700023ce:	d131      	bne.n	70002434 <HAL_RCCEx_PeriphCLKConfig+0x1a8>
700023d0:	687b      	ldr	r3, [r7, #4]
700023d2:	681b      	ldr	r3, [r3, #0]
700023d4:	f003 7380 	and.w	r3, r3, #16777216	@ 0x1000000
700023d8:	2b00      	cmp	r3, #0
700023da:	d12b      	bne.n	70002434 <HAL_RCCEx_PeriphCLKConfig+0x1a8>
700023dc:	687b      	ldr	r3, [r7, #4]
700023de:	681b      	ldr	r3, [r3, #0]
700023e0:	f003 7300 	and.w	r3, r3, #33554432	@ 0x2000000
700023e4:	2b00      	cmp	r3, #0
700023e6:	d125      	bne.n	70002434 <HAL_RCCEx_PeriphCLKConfig+0x1a8>
700023e8:	687b      	ldr	r3, [r7, #4]
700023ea:	681b      	ldr	r3, [r3, #0]
700023ec:	f003 6380 	and.w	r3, r3, #67108864	@ 0x4000000
700023f0:	2b00      	cmp	r3, #0
700023f2:	d11f      	bne.n	70002434 <HAL_RCCEx_PeriphCLKConfig+0x1a8>
700023f4:	687b      	ldr	r3, [r7, #4]
700023f6:	681b      	ldr	r3, [r3, #0]
700023f8:	f003 6300 	and.w	r3, r3, #134217728	@ 0x8000000
700023fc:	2b00      	cmp	r3, #0
700023fe:	d119      	bne.n	70002434 <HAL_RCCEx_PeriphCLKConfig+0x1a8>
70002400:	687b      	ldr	r3, [r7, #4]
70002402:	681b      	ldr	r3, [r3, #0]
70002404:	f003 5380 	and.w	r3, r3, #268435456	@ 0x10000000
70002408:	2b00      	cmp	r3, #0
7000240a:	d113      	bne.n	70002434 <HAL_RCCEx_PeriphCLKConfig+0x1a8>
7000240c:	687b      	ldr	r3, [r7, #4]
7000240e:	681b      	ldr	r3, [r3, #0]
70002410:	f003 5300 	and.w	r3, r3, #536870912	@ 0x20000000
70002414:	2b00      	cmp	r3, #0
70002416:	d10d      	bne.n	70002434 <HAL_RCCEx_PeriphCLKConfig+0x1a8>
70002418:	687b      	ldr	r3, [r7, #4]
7000241a:	681b      	ldr	r3, [r3, #0]
7000241c:	f003 4380 	and.w	r3, r3, #1073741824	@ 0x40000000
70002420:	2b00      	cmp	r3, #0
70002422:	d107      	bne.n	70002434 <HAL_RCCEx_PeriphCLKConfig+0x1a8>
70002424:	687b      	ldr	r3, [r7, #4]
70002426:	681b      	ldr	r3, [r3, #0]
70002428:	2b00      	cmp	r3, #0
7000242a:	db03      	blt.n	70002434 <HAL_RCCEx_PeriphCLKConfig+0x1a8>
7000242c:	2171      	movs	r1, #113	@ 0x71
7000242e:	489e      	ldr	r0, [pc, #632]	@ (700026a8 <HAL_RCCEx_PeriphCLKConfig+0x41c>)
70002430:	f7fe fbe4 	bl	70000bfc <assert_failed>

  /*---------------------------- RTC configuration -------------------------------*/
  if ((PeriphClkInit->PeriphClockSelection & RCC_PERIPHCLK_RTC) == RCC_PERIPHCLK_RTC)
70002434:	687b      	ldr	r3, [r7, #4]
70002436:	681b      	ldr	r3, [r3, #0]
70002438:	f403 2380 	and.w	r3, r3, #262144	@ 0x40000
7000243c:	2b00      	cmp	r3, #0
7000243e:	f000 8245 	beq.w	700028cc <HAL_RCCEx_PeriphCLKConfig+0x640>
  {
    /* check for RTC Parameters used to output RTCCLK */
    assert_param(IS_RCC_RTCCLKSOURCE(PeriphClkInit->RTCClockSelection));
70002442:	687b      	ldr	r3, [r7, #4]
70002444:	6fdb      	ldr	r3, [r3, #124]	@ 0x7c
70002446:	f5b3 7f80 	cmp.w	r3, #256	@ 0x100
7000244a:	f000 81be 	beq.w	700027ca <HAL_RCCEx_PeriphCLKConfig+0x53e>
7000244e:	687b      	ldr	r3, [r7, #4]
70002450:	6fdb      	ldr	r3, [r3, #124]	@ 0x7c
70002452:	f5b3 7f00 	cmp.w	r3, #512	@ 0x200
70002456:	f000 81b8 	beq.w	700027ca <HAL_RCCEx_PeriphCLKConfig+0x53e>
7000245a:	687b      	ldr	r3, [r7, #4]
7000245c:	6fdb      	ldr	r3, [r3, #124]	@ 0x7c
7000245e:	f5b3 5f0c 	cmp.w	r3, #8960	@ 0x2300
70002462:	f000 81b2 	beq.w	700027ca <HAL_RCCEx_PeriphCLKConfig+0x53e>
70002466:	687b      	ldr	r3, [r7, #4]
70002468:	6fdb      	ldr	r3, [r3, #124]	@ 0x7c
7000246a:	f5b3 5f4c 	cmp.w	r3, #13056	@ 0x3300
7000246e:	f000 81ac 	beq.w	700027ca <HAL_RCCEx_PeriphCLKConfig+0x53e>
70002472:	687b      	ldr	r3, [r7, #4]
70002474:	6fdb      	ldr	r3, [r3, #124]	@ 0x7c
70002476:	f5b3 4f86 	cmp.w	r3, #17152	@ 0x4300
7000247a:	f000 81a6 	beq.w	700027ca <HAL_RCCEx_PeriphCLKConfig+0x53e>
7000247e:	687b      	ldr	r3, [r7, #4]
70002480:	6fdb      	ldr	r3, [r3, #124]	@ 0x7c
70002482:	f5b3 4fa6 	cmp.w	r3, #21248	@ 0x5300
70002486:	f000 81a0 	beq.w	700027ca <HAL_RCCEx_PeriphCLKConfig+0x53e>
7000248a:	687b      	ldr	r3, [r7, #4]
7000248c:	6fdb      	ldr	r3, [r3, #124]	@ 0x7c
7000248e:	f5b3 4fc6 	cmp.w	r3, #25344	@ 0x6300
70002492:	f000 819a 	beq.w	700027ca <HAL_RCCEx_PeriphCLKConfig+0x53e>
70002496:	687b      	ldr	r3, [r7, #4]
70002498:	6fdb      	ldr	r3, [r3, #124]	@ 0x7c
7000249a:	f5b3 4fe6 	cmp.w	r3, #29440	@ 0x7300
7000249e:	f000 8194 	beq.w	700027ca <HAL_RCCEx_PeriphCLKConfig+0x53e>
700024a2:	687b      	ldr	r3, [r7, #4]
700024a4:	6fdb      	ldr	r3, [r3, #124]	@ 0x7c
700024a6:	f5b3 4f03 	cmp.w	r3, #33536	@ 0x8300
700024aa:	f000 818e 	beq.w	700027ca <HAL_RCCEx_PeriphCLKConfig+0x53e>
700024ae:	687b      	ldr	r3, [r7, #4]
700024b0:	6fdb      	ldr	r3, [r3, #124]	@ 0x7c
700024b2:	f5b3 4f13 	cmp.w	r3, #37632	@ 0x9300
700024b6:	f000 8188 	beq.w	700027ca <HAL_RCCEx_PeriphCLKConfig+0x53e>
700024ba:	687b      	ldr	r3, [r7, #4]
700024bc:	6fdb      	ldr	r3, [r3, #124]	@ 0x7c
700024be:	f5b3 4f23 	cmp.w	r3, #41728	@ 0xa300
700024c2:	f000 8182 	beq.w	700027ca <HAL_RCCEx_PeriphCLKConfig+0x53e>
700024c6:	687b      	ldr	r3, [r7, #4]
700024c8:	6fdb      	ldr	r3, [r3, #124]	@ 0x7c
700024ca:	f5b3 4f33 	cmp.w	r3, #45824	@ 0xb300
700024ce:	f000 817c 	beq.w	700027ca <HAL_RCCEx_PeriphCLKConfig+0x53e>
700024d2:	687b      	ldr	r3, [r7, #4]
700024d4:	6fdb      	ldr	r3, [r3, #124]	@ 0x7c
700024d6:	f5b3 4f43 	cmp.w	r3, #49920	@ 0xc300
700024da:	f000 8176 	beq.w	700027ca <HAL_RCCEx_PeriphCLKConfig+0x53e>
700024de:	687b      	ldr	r3, [r7, #4]
700024e0:	6fdb      	ldr	r3, [r3, #124]	@ 0x7c
700024e2:	f5b3 4f53 	cmp.w	r3, #54016	@ 0xd300
700024e6:	f000 8170 	beq.w	700027ca <HAL_RCCEx_PeriphCLKConfig+0x53e>
700024ea:	687b      	ldr	r3, [r7, #4]
700024ec:	6fdb      	ldr	r3, [r3, #124]	@ 0x7c
700024ee:	f5b3 4f63 	cmp.w	r3, #58112	@ 0xe300
700024f2:	f000 816a 	beq.w	700027ca <HAL_RCCEx_PeriphCLKConfig+0x53e>
700024f6:	687b      	ldr	r3, [r7, #4]
700024f8:	6fdb      	ldr	r3, [r3, #124]	@ 0x7c
700024fa:	f5b3 4f73 	cmp.w	r3, #62208	@ 0xf300
700024fe:	f000 8164 	beq.w	700027ca <HAL_RCCEx_PeriphCLKConfig+0x53e>
70002502:	687b      	ldr	r3, [r7, #4]
70002504:	6fdb      	ldr	r3, [r3, #124]	@ 0x7c
70002506:	4a69      	ldr	r2, [pc, #420]	@ (700026ac <HAL_RCCEx_PeriphCLKConfig+0x420>)
70002508:	4293      	cmp	r3, r2
7000250a:	f000 815e 	beq.w	700027ca <HAL_RCCEx_PeriphCLKConfig+0x53e>
7000250e:	687b      	ldr	r3, [r7, #4]
70002510:	6fdb      	ldr	r3, [r3, #124]	@ 0x7c
70002512:	4a67      	ldr	r2, [pc, #412]	@ (700026b0 <HAL_RCCEx_PeriphCLKConfig+0x424>)
70002514:	4293      	cmp	r3, r2
70002516:	f000 8158 	beq.w	700027ca <HAL_RCCEx_PeriphCLKConfig+0x53e>
7000251a:	687b      	ldr	r3, [r7, #4]
7000251c:	6fdb      	ldr	r3, [r3, #124]	@ 0x7c
7000251e:	4a65      	ldr	r2, [pc, #404]	@ (700026b4 <HAL_RCCEx_PeriphCLKConfig+0x428>)
70002520:	4293      	cmp	r3, r2
70002522:	f000 8152 	beq.w	700027ca <HAL_RCCEx_PeriphCLKConfig+0x53e>
70002526:	687b      	ldr	r3, [r7, #4]
70002528:	6fdb      	ldr	r3, [r3, #124]	@ 0x7c
7000252a:	4a63      	ldr	r2, [pc, #396]	@ (700026b8 <HAL_RCCEx_PeriphCLKConfig+0x42c>)
7000252c:	4293      	cmp	r3, r2
7000252e:	f000 814c 	beq.w	700027ca <HAL_RCCEx_PeriphCLKConfig+0x53e>
70002532:	687b      	ldr	r3, [r7, #4]
70002534:	6fdb      	ldr	r3, [r3, #124]	@ 0x7c
70002536:	4a61      	ldr	r2, [pc, #388]	@ (700026bc <HAL_RCCEx_PeriphCLKConfig+0x430>)
70002538:	4293      	cmp	r3, r2
7000253a:	f000 8146 	beq.w	700027ca <HAL_RCCEx_PeriphCLKConfig+0x53e>
7000253e:	687b      	ldr	r3, [r7, #4]
70002540:	6fdb      	ldr	r3, [r3, #124]	@ 0x7c
70002542:	4a5f      	ldr	r2, [pc, #380]	@ (700026c0 <HAL_RCCEx_PeriphCLKConfig+0x434>)
70002544:	4293      	cmp	r3, r2
70002546:	f000 8140 	beq.w	700027ca <HAL_RCCEx_PeriphCLKConfig+0x53e>
7000254a:	687b      	ldr	r3, [r7, #4]
7000254c:	6fdb      	ldr	r3, [r3, #124]	@ 0x7c
7000254e:	4a5d      	ldr	r2, [pc, #372]	@ (700026c4 <HAL_RCCEx_PeriphCLKConfig+0x438>)
70002550:	4293      	cmp	r3, r2
70002552:	f000 813a 	beq.w	700027ca <HAL_RCCEx_PeriphCLKConfig+0x53e>
70002556:	687b      	ldr	r3, [r7, #4]
70002558:	6fdb      	ldr	r3, [r3, #124]	@ 0x7c
7000255a:	4a5b      	ldr	r2, [pc, #364]	@ (700026c8 <HAL_RCCEx_PeriphCLKConfig+0x43c>)
7000255c:	4293      	cmp	r3, r2
7000255e:	f000 8134 	beq.w	700027ca <HAL_RCCEx_PeriphCLKConfig+0x53e>
70002562:	687b      	ldr	r3, [r7, #4]
70002564:	6fdb      	ldr	r3, [r3, #124]	@ 0x7c
70002566:	4a59      	ldr	r2, [pc, #356]	@ (700026cc <HAL_RCCEx_PeriphCLKConfig+0x440>)
70002568:	4293      	cmp	r3, r2
7000256a:	f000 812e 	beq.w	700027ca <HAL_RCCEx_PeriphCLKConfig+0x53e>
7000256e:	687b      	ldr	r3, [r7, #4]
70002570:	6fdb      	ldr	r3, [r3, #124]	@ 0x7c
70002572:	4a57      	ldr	r2, [pc, #348]	@ (700026d0 <HAL_RCCEx_PeriphCLKConfig+0x444>)
70002574:	4293      	cmp	r3, r2
70002576:	f000 8128 	beq.w	700027ca <HAL_RCCEx_PeriphCLKConfig+0x53e>
7000257a:	687b      	ldr	r3, [r7, #4]
7000257c:	6fdb      	ldr	r3, [r3, #124]	@ 0x7c
7000257e:	4a55      	ldr	r2, [pc, #340]	@ (700026d4 <HAL_RCCEx_PeriphCLKConfig+0x448>)
70002580:	4293      	cmp	r3, r2
70002582:	f000 8122 	beq.w	700027ca <HAL_RCCEx_PeriphCLKConfig+0x53e>
70002586:	687b      	ldr	r3, [r7, #4]
70002588:	6fdb      	ldr	r3, [r3, #124]	@ 0x7c
7000258a:	4a53      	ldr	r2, [pc, #332]	@ (700026d8 <HAL_RCCEx_PeriphCLKConfig+0x44c>)
7000258c:	4293      	cmp	r3, r2
7000258e:	f000 811c 	beq.w	700027ca <HAL_RCCEx_PeriphCLKConfig+0x53e>
70002592:	687b      	ldr	r3, [r7, #4]
70002594:	6fdb      	ldr	r3, [r3, #124]	@ 0x7c
70002596:	4a51      	ldr	r2, [pc, #324]	@ (700026dc <HAL_RCCEx_PeriphCLKConfig+0x450>)
70002598:	4293      	cmp	r3, r2
7000259a:	f000 8116 	beq.w	700027ca <HAL_RCCEx_PeriphCLKConfig+0x53e>
7000259e:	687b      	ldr	r3, [r7, #4]
700025a0:	6fdb      	ldr	r3, [r3, #124]	@ 0x7c
700025a2:	4a4f      	ldr	r2, [pc, #316]	@ (700026e0 <HAL_RCCEx_PeriphCLKConfig+0x454>)
700025a4:	4293      	cmp	r3, r2
700025a6:	f000 8110 	beq.w	700027ca <HAL_RCCEx_PeriphCLKConfig+0x53e>
700025aa:	687b      	ldr	r3, [r7, #4]
700025ac:	6fdb      	ldr	r3, [r3, #124]	@ 0x7c
700025ae:	4a4d      	ldr	r2, [pc, #308]	@ (700026e4 <HAL_RCCEx_PeriphCLKConfig+0x458>)
700025b0:	4293      	cmp	r3, r2
700025b2:	f000 810a 	beq.w	700027ca <HAL_RCCEx_PeriphCLKConfig+0x53e>
700025b6:	687b      	ldr	r3, [r7, #4]
700025b8:	6fdb      	ldr	r3, [r3, #124]	@ 0x7c
700025ba:	4a4b      	ldr	r2, [pc, #300]	@ (700026e8 <HAL_RCCEx_PeriphCLKConfig+0x45c>)
700025bc:	4293      	cmp	r3, r2
700025be:	f000 8104 	beq.w	700027ca <HAL_RCCEx_PeriphCLKConfig+0x53e>
700025c2:	687b      	ldr	r3, [r7, #4]
700025c4:	6fdb      	ldr	r3, [r3, #124]	@ 0x7c
700025c6:	4a49      	ldr	r2, [pc, #292]	@ (700026ec <HAL_RCCEx_PeriphCLKConfig+0x460>)
700025c8:	4293      	cmp	r3, r2
700025ca:	f000 80fe 	beq.w	700027ca <HAL_RCCEx_PeriphCLKConfig+0x53e>
700025ce:	687b      	ldr	r3, [r7, #4]
700025d0:	6fdb      	ldr	r3, [r3, #124]	@ 0x7c
700025d2:	4a47      	ldr	r2, [pc, #284]	@ (700026f0 <HAL_RCCEx_PeriphCLKConfig+0x464>)
700025d4:	4293      	cmp	r3, r2
700025d6:	f000 80f8 	beq.w	700027ca <HAL_RCCEx_PeriphCLKConfig+0x53e>
700025da:	687b      	ldr	r3, [r7, #4]
700025dc:	6fdb      	ldr	r3, [r3, #124]	@ 0x7c
700025de:	4a45      	ldr	r2, [pc, #276]	@ (700026f4 <HAL_RCCEx_PeriphCLKConfig+0x468>)
700025e0:	4293      	cmp	r3, r2
700025e2:	f000 80f2 	beq.w	700027ca <HAL_RCCEx_PeriphCLKConfig+0x53e>
700025e6:	687b      	ldr	r3, [r7, #4]
700025e8:	6fdb      	ldr	r3, [r3, #124]	@ 0x7c
700025ea:	4a43      	ldr	r2, [pc, #268]	@ (700026f8 <HAL_RCCEx_PeriphCLKConfig+0x46c>)
700025ec:	4293      	cmp	r3, r2
700025ee:	f000 80ec 	beq.w	700027ca <HAL_RCCEx_PeriphCLKConfig+0x53e>
700025f2:	687b      	ldr	r3, [r7, #4]
700025f4:	6fdb      	ldr	r3, [r3, #124]	@ 0x7c
700025f6:	4a41      	ldr	r2, [pc, #260]	@ (700026fc <HAL_RCCEx_PeriphCLKConfig+0x470>)
700025f8:	4293      	cmp	r3, r2
700025fa:	f000 80e6 	beq.w	700027ca <HAL_RCCEx_PeriphCLKConfig+0x53e>
700025fe:	687b      	ldr	r3, [r7, #4]
70002600:	6fdb      	ldr	r3, [r3, #124]	@ 0x7c
70002602:	4a3f      	ldr	r2, [pc, #252]	@ (70002700 <HAL_RCCEx_PeriphCLKConfig+0x474>)
70002604:	4293      	cmp	r3, r2
70002606:	f000 80e0 	beq.w	700027ca <HAL_RCCEx_PeriphCLKConfig+0x53e>
7000260a:	687b      	ldr	r3, [r7, #4]
7000260c:	6fdb      	ldr	r3, [r3, #124]	@ 0x7c
7000260e:	4a3d      	ldr	r2, [pc, #244]	@ (70002704 <HAL_RCCEx_PeriphCLKConfig+0x478>)
70002610:	4293      	cmp	r3, r2
70002612:	f000 80da 	beq.w	700027ca <HAL_RCCEx_PeriphCLKConfig+0x53e>
70002616:	687b      	ldr	r3, [r7, #4]
70002618:	6fdb      	ldr	r3, [r3, #124]	@ 0x7c
7000261a:	4a3b      	ldr	r2, [pc, #236]	@ (70002708 <HAL_RCCEx_PeriphCLKConfig+0x47c>)
7000261c:	4293      	cmp	r3, r2
7000261e:	f000 80d4 	beq.w	700027ca <HAL_RCCEx_PeriphCLKConfig+0x53e>
70002622:	687b      	ldr	r3, [r7, #4]
70002624:	6fdb      	ldr	r3, [r3, #124]	@ 0x7c
70002626:	4a39      	ldr	r2, [pc, #228]	@ (7000270c <HAL_RCCEx_PeriphCLKConfig+0x480>)
70002628:	4293      	cmp	r3, r2
7000262a:	f000 80ce 	beq.w	700027ca <HAL_RCCEx_PeriphCLKConfig+0x53e>
7000262e:	687b      	ldr	r3, [r7, #4]
70002630:	6fdb      	ldr	r3, [r3, #124]	@ 0x7c
70002632:	4a37      	ldr	r2, [pc, #220]	@ (70002710 <HAL_RCCEx_PeriphCLKConfig+0x484>)
70002634:	4293      	cmp	r3, r2
70002636:	f000 80c8 	beq.w	700027ca <HAL_RCCEx_PeriphCLKConfig+0x53e>
7000263a:	687b      	ldr	r3, [r7, #4]
7000263c:	6fdb      	ldr	r3, [r3, #124]	@ 0x7c
7000263e:	4a35      	ldr	r2, [pc, #212]	@ (70002714 <HAL_RCCEx_PeriphCLKConfig+0x488>)
70002640:	4293      	cmp	r3, r2
70002642:	f000 80c2 	beq.w	700027ca <HAL_RCCEx_PeriphCLKConfig+0x53e>
70002646:	687b      	ldr	r3, [r7, #4]
70002648:	6fdb      	ldr	r3, [r3, #124]	@ 0x7c
7000264a:	4a33      	ldr	r2, [pc, #204]	@ (70002718 <HAL_RCCEx_PeriphCLKConfig+0x48c>)
7000264c:	4293      	cmp	r3, r2
7000264e:	f000 80bc 	beq.w	700027ca <HAL_RCCEx_PeriphCLKConfig+0x53e>
70002652:	687b      	ldr	r3, [r7, #4]
70002654:	6fdb      	ldr	r3, [r3, #124]	@ 0x7c
70002656:	4a31      	ldr	r2, [pc, #196]	@ (7000271c <HAL_RCCEx_PeriphCLKConfig+0x490>)
70002658:	4293      	cmp	r3, r2
7000265a:	f000 80b6 	beq.w	700027ca <HAL_RCCEx_PeriphCLKConfig+0x53e>
7000265e:	687b      	ldr	r3, [r7, #4]
70002660:	6fdb      	ldr	r3, [r3, #124]	@ 0x7c
70002662:	4a2f      	ldr	r2, [pc, #188]	@ (70002720 <HAL_RCCEx_PeriphCLKConfig+0x494>)
70002664:	4293      	cmp	r3, r2
70002666:	f000 80b0 	beq.w	700027ca <HAL_RCCEx_PeriphCLKConfig+0x53e>
7000266a:	687b      	ldr	r3, [r7, #4]
7000266c:	6fdb      	ldr	r3, [r3, #124]	@ 0x7c
7000266e:	4a2d      	ldr	r2, [pc, #180]	@ (70002724 <HAL_RCCEx_PeriphCLKConfig+0x498>)
70002670:	4293      	cmp	r3, r2
70002672:	f000 80aa 	beq.w	700027ca <HAL_RCCEx_PeriphCLKConfig+0x53e>
70002676:	687b      	ldr	r3, [r7, #4]
70002678:	6fdb      	ldr	r3, [r3, #124]	@ 0x7c
7000267a:	4a2b      	ldr	r2, [pc, #172]	@ (70002728 <HAL_RCCEx_PeriphCLKConfig+0x49c>)
7000267c:	4293      	cmp	r3, r2
7000267e:	f000 80a4 	beq.w	700027ca <HAL_RCCEx_PeriphCLKConfig+0x53e>
70002682:	687b      	ldr	r3, [r7, #4]
70002684:	6fdb      	ldr	r3, [r3, #124]	@ 0x7c
70002686:	4a29      	ldr	r2, [pc, #164]	@ (7000272c <HAL_RCCEx_PeriphCLKConfig+0x4a0>)
70002688:	4293      	cmp	r3, r2
7000268a:	f000 809e 	beq.w	700027ca <HAL_RCCEx_PeriphCLKConfig+0x53e>
7000268e:	687b      	ldr	r3, [r7, #4]
70002690:	6fdb      	ldr	r3, [r3, #124]	@ 0x7c
70002692:	4a27      	ldr	r2, [pc, #156]	@ (70002730 <HAL_RCCEx_PeriphCLKConfig+0x4a4>)
70002694:	4293      	cmp	r3, r2
70002696:	f000 8098 	beq.w	700027ca <HAL_RCCEx_PeriphCLKConfig+0x53e>
7000269a:	687b      	ldr	r3, [r7, #4]
7000269c:	6fdb      	ldr	r3, [r3, #124]	@ 0x7c
7000269e:	4a25      	ldr	r2, [pc, #148]	@ (70002734 <HAL_RCCEx_PeriphCLKConfig+0x4a8>)
700026a0:	4293      	cmp	r3, r2
700026a2:	f000 8092 	beq.w	700027ca <HAL_RCCEx_PeriphCLKConfig+0x53e>
700026a6:	e047      	b.n	70002738 <HAL_RCCEx_PeriphCLKConfig+0x4ac>
700026a8:	700068ec 	.word	0x700068ec
700026ac:	00010300 	.word	0x00010300
700026b0:	00011300 	.word	0x00011300
700026b4:	00012300 	.word	0x00012300
700026b8:	00013300 	.word	0x00013300
700026bc:	00014300 	.word	0x00014300
700026c0:	00015300 	.word	0x00015300
700026c4:	00016300 	.word	0x00016300
700026c8:	00017300 	.word	0x00017300
700026cc:	00018300 	.word	0x00018300
700026d0:	00019300 	.word	0x00019300
700026d4:	0001a300 	.word	0x0001a300
700026d8:	0001b300 	.word	0x0001b300
700026dc:	0001c300 	.word	0x0001c300
700026e0:	0001d300 	.word	0x0001d300
700026e4:	0001e300 	.word	0x0001e300
700026e8:	0001f300 	.word	0x0001f300
700026ec:	00020300 	.word	0x00020300
700026f0:	00021300 	.word	0x00021300
700026f4:	00022300 	.word	0x00022300
700026f8:	00023300 	.word	0x00023300
700026fc:	00024300 	.word	0x00024300
70002700:	00025300 	.word	0x00025300
70002704:	00026300 	.word	0x00026300
70002708:	00027300 	.word	0x00027300
7000270c:	00028300 	.word	0x00028300
70002710:	00029300 	.word	0x00029300
70002714:	0002a300 	.word	0x0002a300
70002718:	0002b300 	.word	0x0002b300
7000271c:	0002c300 	.word	0x0002c300
70002720:	0002d300 	.word	0x0002d300
70002724:	0002e300 	.word	0x0002e300
70002728:	0002f300 	.word	0x0002f300
7000272c:	00030300 	.word	0x00030300
70002730:	00031300 	.word	0x00031300
70002734:	00032300 	.word	0x00032300
70002738:	687b      	ldr	r3, [r7, #4]
7000273a:	6fdb      	ldr	r3, [r3, #124]	@ 0x7c
7000273c:	4a88      	ldr	r2, [pc, #544]	@ (70002960 <HAL_RCCEx_PeriphCLKConfig+0x6d4>)
7000273e:	4293      	cmp	r3, r2
70002740:	d043      	beq.n	700027ca <HAL_RCCEx_PeriphCLKConfig+0x53e>
70002742:	687b      	ldr	r3, [r7, #4]
70002744:	6fdb      	ldr	r3, [r3, #124]	@ 0x7c
70002746:	4a87      	ldr	r2, [pc, #540]	@ (70002964 <HAL_RCCEx_PeriphCLKConfig+0x6d8>)
70002748:	4293      	cmp	r3, r2
7000274a:	d03e      	beq.n	700027ca <HAL_RCCEx_PeriphCLKConfig+0x53e>
7000274c:	687b      	ldr	r3, [r7, #4]
7000274e:	6fdb      	ldr	r3, [r3, #124]	@ 0x7c
70002750:	4a85      	ldr	r2, [pc, #532]	@ (70002968 <HAL_RCCEx_PeriphCLKConfig+0x6dc>)
70002752:	4293      	cmp	r3, r2
70002754:	d039      	beq.n	700027ca <HAL_RCCEx_PeriphCLKConfig+0x53e>
70002756:	687b      	ldr	r3, [r7, #4]
70002758:	6fdb      	ldr	r3, [r3, #124]	@ 0x7c
7000275a:	4a84      	ldr	r2, [pc, #528]	@ (7000296c <HAL_RCCEx_PeriphCLKConfig+0x6e0>)
7000275c:	4293      	cmp	r3, r2
7000275e:	d034      	beq.n	700027ca <HAL_RCCEx_PeriphCLKConfig+0x53e>
70002760:	687b      	ldr	r3, [r7, #4]
70002762:	6fdb      	ldr	r3, [r3, #124]	@ 0x7c
70002764:	4a82      	ldr	r2, [pc, #520]	@ (70002970 <HAL_RCCEx_PeriphCLKConfig+0x6e4>)
70002766:	4293      	cmp	r3, r2
70002768:	d02f      	beq.n	700027ca <HAL_RCCEx_PeriphCLKConfig+0x53e>
7000276a:	687b      	ldr	r3, [r7, #4]
7000276c:	6fdb      	ldr	r3, [r3, #124]	@ 0x7c
7000276e:	4a81      	ldr	r2, [pc, #516]	@ (70002974 <HAL_RCCEx_PeriphCLKConfig+0x6e8>)
70002770:	4293      	cmp	r3, r2
70002772:	d02a      	beq.n	700027ca <HAL_RCCEx_PeriphCLKConfig+0x53e>
70002774:	687b      	ldr	r3, [r7, #4]
70002776:	6fdb      	ldr	r3, [r3, #124]	@ 0x7c
70002778:	4a7f      	ldr	r2, [pc, #508]	@ (70002978 <HAL_RCCEx_PeriphCLKConfig+0x6ec>)
7000277a:	4293      	cmp	r3, r2
7000277c:	d025      	beq.n	700027ca <HAL_RCCEx_PeriphCLKConfig+0x53e>
7000277e:	687b      	ldr	r3, [r7, #4]
70002780:	6fdb      	ldr	r3, [r3, #124]	@ 0x7c
70002782:	4a7e      	ldr	r2, [pc, #504]	@ (7000297c <HAL_RCCEx_PeriphCLKConfig+0x6f0>)
70002784:	4293      	cmp	r3, r2
70002786:	d020      	beq.n	700027ca <HAL_RCCEx_PeriphCLKConfig+0x53e>
70002788:	687b      	ldr	r3, [r7, #4]
7000278a:	6fdb      	ldr	r3, [r3, #124]	@ 0x7c
7000278c:	4a7c      	ldr	r2, [pc, #496]	@ (70002980 <HAL_RCCEx_PeriphCLKConfig+0x6f4>)
7000278e:	4293      	cmp	r3, r2
70002790:	d01b      	beq.n	700027ca <HAL_RCCEx_PeriphCLKConfig+0x53e>
70002792:	687b      	ldr	r3, [r7, #4]
70002794:	6fdb      	ldr	r3, [r3, #124]	@ 0x7c
70002796:	4a7b      	ldr	r2, [pc, #492]	@ (70002984 <HAL_RCCEx_PeriphCLKConfig+0x6f8>)
70002798:	4293      	cmp	r3, r2
7000279a:	d016      	beq.n	700027ca <HAL_RCCEx_PeriphCLKConfig+0x53e>
7000279c:	687b      	ldr	r3, [r7, #4]
7000279e:	6fdb      	ldr	r3, [r3, #124]	@ 0x7c
700027a0:	4a79      	ldr	r2, [pc, #484]	@ (70002988 <HAL_RCCEx_PeriphCLKConfig+0x6fc>)
700027a2:	4293      	cmp	r3, r2
700027a4:	d011      	beq.n	700027ca <HAL_RCCEx_PeriphCLKConfig+0x53e>
700027a6:	687b      	ldr	r3, [r7, #4]
700027a8:	6fdb      	ldr	r3, [r3, #124]	@ 0x7c
700027aa:	4a78      	ldr	r2, [pc, #480]	@ (7000298c <HAL_RCCEx_PeriphCLKConfig+0x700>)
700027ac:	4293      	cmp	r3, r2
700027ae:	d00c      	beq.n	700027ca <HAL_RCCEx_PeriphCLKConfig+0x53e>
700027b0:	687b      	ldr	r3, [r7, #4]
700027b2:	6fdb      	ldr	r3, [r3, #124]	@ 0x7c
700027b4:	4a76      	ldr	r2, [pc, #472]	@ (70002990 <HAL_RCCEx_PeriphCLKConfig+0x704>)
700027b6:	4293      	cmp	r3, r2
700027b8:	d007      	beq.n	700027ca <HAL_RCCEx_PeriphCLKConfig+0x53e>
700027ba:	687b      	ldr	r3, [r7, #4]
700027bc:	6fdb      	ldr	r3, [r3, #124]	@ 0x7c
700027be:	2b00      	cmp	r3, #0
700027c0:	d003      	beq.n	700027ca <HAL_RCCEx_PeriphCLKConfig+0x53e>
700027c2:	2177      	movs	r1, #119	@ 0x77
700027c4:	4873      	ldr	r0, [pc, #460]	@ (70002994 <HAL_RCCEx_PeriphCLKConfig+0x708>)
700027c6:	f7fe fa19 	bl	70000bfc <assert_failed>

    /* As the RTC clock source selection can be changed only if the Backup Domain is reset */
    /* reset the Backup domain only if the RTC Clock source selection is modified from default reset value */
    tmpreg = READ_BIT(RCC->BDCR, RCC_BDCR_RTCSEL);
700027ca:	4b73      	ldr	r3, [pc, #460]	@ (70002998 <HAL_RCCEx_PeriphCLKConfig+0x70c>)
700027cc:	6f1b      	ldr	r3, [r3, #112]	@ 0x70
700027ce:	f403 7340 	and.w	r3, r3, #768	@ 0x300
700027d2:	613b      	str	r3, [r7, #16]

    if ((tmpreg != RCC_RTCCLKSOURCE_DISABLE) && (tmpreg != (PeriphClkInit->RTCClockSelection & RCC_BDCR_RTCSEL)))
700027d4:	693b      	ldr	r3, [r7, #16]
700027d6:	2b00      	cmp	r3, #0
700027d8:	d029      	beq.n	7000282e <HAL_RCCEx_PeriphCLKConfig+0x5a2>
700027da:	687b      	ldr	r3, [r7, #4]
700027dc:	6fdb      	ldr	r3, [r3, #124]	@ 0x7c
700027de:	f403 7340 	and.w	r3, r3, #768	@ 0x300
700027e2:	693a      	ldr	r2, [r7, #16]
700027e4:	429a      	cmp	r2, r3
700027e6:	d022      	beq.n	7000282e <HAL_RCCEx_PeriphCLKConfig+0x5a2>
    {
      /* Enable write access to Backup domain */
      SET_BIT(PWR->CR1, PWR_CR1_DBP);
700027e8:	4b6c      	ldr	r3, [pc, #432]	@ (7000299c <HAL_RCCEx_PeriphCLKConfig+0x710>)
700027ea:	681b      	ldr	r3, [r3, #0]
700027ec:	4a6b      	ldr	r2, [pc, #428]	@ (7000299c <HAL_RCCEx_PeriphCLKConfig+0x710>)
700027ee:	f443 7380 	orr.w	r3, r3, #256	@ 0x100
700027f2:	6013      	str	r3, [r2, #0]

      /* Read back to check Backup domain enabled */
      if (READ_BIT(PWR->CR1, PWR_CR1_DBP) == 0U)
700027f4:	4b69      	ldr	r3, [pc, #420]	@ (7000299c <HAL_RCCEx_PeriphCLKConfig+0x710>)
700027f6:	681b      	ldr	r3, [r3, #0]
700027f8:	f403 7380 	and.w	r3, r3, #256	@ 0x100
700027fc:	2b00      	cmp	r3, #0
700027fe:	d102      	bne.n	70002806 <HAL_RCCEx_PeriphCLKConfig+0x57a>
      {
        ret = HAL_ERROR;
70002800:	2301      	movs	r3, #1
70002802:	75fb      	strb	r3, [r7, #23]
70002804:	e013      	b.n	7000282e <HAL_RCCEx_PeriphCLKConfig+0x5a2>
      }
      else
      {
        /* Store the content of BDCR register before the reset of Backup Domain */
        /* excepted the RTC clock source selection that will be changed */
        tmpreg = READ_BIT(RCC->BDCR, ~(RCC_BDCR_RTCSEL));
70002806:	4b64      	ldr	r3, [pc, #400]	@ (70002998 <HAL_RCCEx_PeriphCLKConfig+0x70c>)
70002808:	6f1b      	ldr	r3, [r3, #112]	@ 0x70
7000280a:	f423 7340 	bic.w	r3, r3, #768	@ 0x300
7000280e:	613b      	str	r3, [r7, #16]
        __HAL_RCC_BACKUPRESET_FORCE();
70002810:	4b61      	ldr	r3, [pc, #388]	@ (70002998 <HAL_RCCEx_PeriphCLKConfig+0x70c>)
70002812:	6f1b      	ldr	r3, [r3, #112]	@ 0x70
70002814:	4a60      	ldr	r2, [pc, #384]	@ (70002998 <HAL_RCCEx_PeriphCLKConfig+0x70c>)
70002816:	f443 3380 	orr.w	r3, r3, #65536	@ 0x10000
7000281a:	6713      	str	r3, [r2, #112]	@ 0x70
        __HAL_RCC_BACKUPRESET_RELEASE();
7000281c:	4b5e      	ldr	r3, [pc, #376]	@ (70002998 <HAL_RCCEx_PeriphCLKConfig+0x70c>)
7000281e:	6f1b      	ldr	r3, [r3, #112]	@ 0x70
70002820:	4a5d      	ldr	r2, [pc, #372]	@ (70002998 <HAL_RCCEx_PeriphCLKConfig+0x70c>)
70002822:	f423 3380 	bic.w	r3, r3, #65536	@ 0x10000
70002826:	6713      	str	r3, [r2, #112]	@ 0x70
        /* Restore the content of BDCR register */
        WRITE_REG(RCC->BDCR, tmpreg);
70002828:	4a5b      	ldr	r2, [pc, #364]	@ (70002998 <HAL_RCCEx_PeriphCLKConfig+0x70c>)
7000282a:	693b      	ldr	r3, [r7, #16]
7000282c:	6713      	str	r3, [r2, #112]	@ 0x70
      }
    }

    if (ret == HAL_OK)
7000282e:	7dfb      	ldrb	r3, [r7, #23]
70002830:	2b00      	cmp	r3, #0
70002832:	d149      	bne.n	700028c8 <HAL_RCCEx_PeriphCLKConfig+0x63c>
    {
      /* If LSE is selected as RTC clock source (and enabled prior to Backup Domain reset), wait for LSE reactivation */
      if (PeriphClkInit->RTCClockSelection == RCC_RTCCLKSOURCE_LSE)
70002834:	687b      	ldr	r3, [r7, #4]
70002836:	6fdb      	ldr	r3, [r3, #124]	@ 0x7c
70002838:	f5b3 7f80 	cmp.w	r3, #256	@ 0x100
7000283c:	d115      	bne.n	7000286a <HAL_RCCEx_PeriphCLKConfig+0x5de>
      {
        /* Get Start Tick*/
        tickstart = HAL_GetTick();
7000283e:	f7fe fc83 	bl	70001148 <HAL_GetTick>
70002842:	60f8      	str	r0, [r7, #12]

        /* Wait till LSE is ready */
        while (READ_BIT(RCC->BDCR, RCC_BDCR_LSERDY) == 0U)
70002844:	e00b      	b.n	7000285e <HAL_RCCEx_PeriphCLKConfig+0x5d2>
        {
          if ((HAL_GetTick() - tickstart) > RCC_LSE_TIMEOUT_VALUE)
70002846:	f7fe fc7f 	bl	70001148 <HAL_GetTick>
7000284a:	4602      	mov	r2, r0
7000284c:	68fb      	ldr	r3, [r7, #12]
7000284e:	1ad3      	subs	r3, r2, r3
70002850:	f241 3288 	movw	r2, #5000	@ 0x1388
70002854:	4293      	cmp	r3, r2
70002856:	d902      	bls.n	7000285e <HAL_RCCEx_PeriphCLKConfig+0x5d2>
          {
            ret = HAL_TIMEOUT;
70002858:	2303      	movs	r3, #3
7000285a:	75fb      	strb	r3, [r7, #23]
            break;
7000285c:	e005      	b.n	7000286a <HAL_RCCEx_PeriphCLKConfig+0x5de>
        while (READ_BIT(RCC->BDCR, RCC_BDCR_LSERDY) == 0U)
7000285e:	4b4e      	ldr	r3, [pc, #312]	@ (70002998 <HAL_RCCEx_PeriphCLKConfig+0x70c>)
70002860:	6f1b      	ldr	r3, [r3, #112]	@ 0x70
70002862:	f003 0302 	and.w	r3, r3, #2
70002866:	2b00      	cmp	r3, #0
70002868:	d0ed      	beq.n	70002846 <HAL_RCCEx_PeriphCLKConfig+0x5ba>
          }
        }
      }

      if (ret == HAL_OK)
7000286a:	7dfb      	ldrb	r3, [r7, #23]
7000286c:	2b00      	cmp	r3, #0
7000286e:	d128      	bne.n	700028c2 <HAL_RCCEx_PeriphCLKConfig+0x636>
      {
        __HAL_RCC_RTC_CONFIG(PeriphClkInit->RTCClockSelection);
70002870:	687b      	ldr	r3, [r7, #4]
70002872:	6fdb      	ldr	r3, [r3, #124]	@ 0x7c
70002874:	f403 337c 	and.w	r3, r3, #258048	@ 0x3f000
70002878:	2b00      	cmp	r3, #0
7000287a:	d00c      	beq.n	70002896 <HAL_RCCEx_PeriphCLKConfig+0x60a>
7000287c:	4b46      	ldr	r3, [pc, #280]	@ (70002998 <HAL_RCCEx_PeriphCLKConfig+0x70c>)
7000287e:	691b      	ldr	r3, [r3, #16]
70002880:	f423 527c 	bic.w	r2, r3, #16128	@ 0x3f00
70002884:	687b      	ldr	r3, [r7, #4]
70002886:	6fdb      	ldr	r3, [r3, #124]	@ 0x7c
70002888:	0919      	lsrs	r1, r3, #4
7000288a:	4b45      	ldr	r3, [pc, #276]	@ (700029a0 <HAL_RCCEx_PeriphCLKConfig+0x714>)
7000288c:	400b      	ands	r3, r1
7000288e:	4942      	ldr	r1, [pc, #264]	@ (70002998 <HAL_RCCEx_PeriphCLKConfig+0x70c>)
70002890:	4313      	orrs	r3, r2
70002892:	610b      	str	r3, [r1, #16]
70002894:	e005      	b.n	700028a2 <HAL_RCCEx_PeriphCLKConfig+0x616>
70002896:	4b40      	ldr	r3, [pc, #256]	@ (70002998 <HAL_RCCEx_PeriphCLKConfig+0x70c>)
70002898:	691b      	ldr	r3, [r3, #16]
7000289a:	4a3f      	ldr	r2, [pc, #252]	@ (70002998 <HAL_RCCEx_PeriphCLKConfig+0x70c>)
7000289c:	f423 537c 	bic.w	r3, r3, #16128	@ 0x3f00
700028a0:	6113      	str	r3, [r2, #16]
700028a2:	4b3d      	ldr	r3, [pc, #244]	@ (70002998 <HAL_RCCEx_PeriphCLKConfig+0x70c>)
700028a4:	6f1a      	ldr	r2, [r3, #112]	@ 0x70
700028a6:	687b      	ldr	r3, [r7, #4]
700028a8:	6fdb      	ldr	r3, [r3, #124]	@ 0x7c
700028aa:	f403 7340 	and.w	r3, r3, #768	@ 0x300
700028ae:	493a      	ldr	r1, [pc, #232]	@ (70002998 <HAL_RCCEx_PeriphCLKConfig+0x70c>)
700028b0:	4313      	orrs	r3, r2
700028b2:	670b      	str	r3, [r1, #112]	@ 0x70
        __HAL_RCC_RTC_ENABLE();
700028b4:	4b38      	ldr	r3, [pc, #224]	@ (70002998 <HAL_RCCEx_PeriphCLKConfig+0x70c>)
700028b6:	6f1b      	ldr	r3, [r3, #112]	@ 0x70
700028b8:	4a37      	ldr	r2, [pc, #220]	@ (70002998 <HAL_RCCEx_PeriphCLKConfig+0x70c>)
700028ba:	f443 4300 	orr.w	r3, r3, #32768	@ 0x8000
700028be:	6713      	str	r3, [r2, #112]	@ 0x70
700028c0:	e004      	b.n	700028cc <HAL_RCCEx_PeriphCLKConfig+0x640>
      }
      else
      {
        /* set overall return value */
        status = ret;
700028c2:	7dfb      	ldrb	r3, [r7, #23]
700028c4:	75bb      	strb	r3, [r7, #22]
700028c6:	e001      	b.n	700028cc <HAL_RCCEx_PeriphCLKConfig+0x640>
      }
    }
    else
    {
      /* set overall return value */
      status = ret;
700028c8:	7dfb      	ldrb	r3, [r7, #23]
700028ca:	75bb      	strb	r3, [r7, #22]
    }
  }

  /*---------------------------- FMC configuration -------------------------------*/
  if ((PeriphClkInit->PeriphClockSelection & RCC_PERIPHCLK_FMC) == RCC_PERIPHCLK_FMC)
700028cc:	687b      	ldr	r3, [r7, #4]
700028ce:	681b      	ldr	r3, [r3, #0]
700028d0:	f003 0301 	and.w	r3, r3, #1
700028d4:	2b00      	cmp	r3, #0
700028d6:	d067      	beq.n	700029a8 <HAL_RCCEx_PeriphCLKConfig+0x71c>
  {
    /* Check the parameters */
    assert_param(IS_RCC_FMCCLKSOURCE(PeriphClkInit->FmcClockSelection));
700028d8:	687b      	ldr	r3, [r7, #4]
700028da:	685b      	ldr	r3, [r3, #4]
700028dc:	2b00      	cmp	r3, #0
700028de:	d00f      	beq.n	70002900 <HAL_RCCEx_PeriphCLKConfig+0x674>
700028e0:	687b      	ldr	r3, [r7, #4]
700028e2:	685b      	ldr	r3, [r3, #4]
700028e4:	2b01      	cmp	r3, #1
700028e6:	d00b      	beq.n	70002900 <HAL_RCCEx_PeriphCLKConfig+0x674>
700028e8:	687b      	ldr	r3, [r7, #4]
700028ea:	685b      	ldr	r3, [r3, #4]
700028ec:	2b02      	cmp	r3, #2
700028ee:	d007      	beq.n	70002900 <HAL_RCCEx_PeriphCLKConfig+0x674>
700028f0:	687b      	ldr	r3, [r7, #4]
700028f2:	685b      	ldr	r3, [r3, #4]
700028f4:	2b03      	cmp	r3, #3
700028f6:	d003      	beq.n	70002900 <HAL_RCCEx_PeriphCLKConfig+0x674>
700028f8:	21bc      	movs	r1, #188	@ 0xbc
700028fa:	4826      	ldr	r0, [pc, #152]	@ (70002994 <HAL_RCCEx_PeriphCLKConfig+0x708>)
700028fc:	f7fe f97e 	bl	70000bfc <assert_failed>

    switch (PeriphClkInit->FmcClockSelection)
70002900:	687b      	ldr	r3, [r7, #4]
70002902:	685b      	ldr	r3, [r3, #4]
70002904:	2b03      	cmp	r3, #3
70002906:	d819      	bhi.n	7000293c <HAL_RCCEx_PeriphCLKConfig+0x6b0>
70002908:	a201      	add	r2, pc, #4	@ (adr r2, 70002910 <HAL_RCCEx_PeriphCLKConfig+0x684>)
7000290a:	f852 f023 	ldr.w	pc, [r2, r3, lsl #2]
7000290e:	bf00      	nop
70002910:	70002943 	.word	0x70002943
70002914:	70002921 	.word	0x70002921
70002918:	7000292f 	.word	0x7000292f
7000291c:	70002943 	.word	0x70002943
      case RCC_FMCCLKSOURCE_HCLK:   /* HCLK  clock selected as FMC kernel peripheral clock */
        break;

      case RCC_FMCCLKSOURCE_PLL1Q:  /* PLL1_Q is used as clock source for FMC kernel */
        /* Enable FMC kernel clock output generated form System PLL . */
        __HAL_RCC_PLL1CLKOUT_ENABLE(RCC_PLL_QCLK);
70002920:	4b1d      	ldr	r3, [pc, #116]	@ (70002998 <HAL_RCCEx_PeriphCLKConfig+0x70c>)
70002922:	6adb      	ldr	r3, [r3, #44]	@ 0x2c
70002924:	4a1c      	ldr	r2, [pc, #112]	@ (70002998 <HAL_RCCEx_PeriphCLKConfig+0x70c>)
70002926:	f043 0340 	orr.w	r3, r3, #64	@ 0x40
7000292a:	62d3      	str	r3, [r2, #44]	@ 0x2c
        /* FMC kernel clock source configuration done later after clock selection check */
        break;
7000292c:	e00a      	b.n	70002944 <HAL_RCCEx_PeriphCLKConfig+0x6b8>

      case RCC_FMCCLKSOURCE_PLL2R:  /* PLL2_R is used as clock source for FMC kernel */
        __HAL_RCC_PLL2CLKOUT_ENABLE(RCC_PLL_RCLK);
7000292e:	4b1a      	ldr	r3, [pc, #104]	@ (70002998 <HAL_RCCEx_PeriphCLKConfig+0x70c>)
70002930:	6adb      	ldr	r3, [r3, #44]	@ 0x2c
70002932:	4a19      	ldr	r2, [pc, #100]	@ (70002998 <HAL_RCCEx_PeriphCLKConfig+0x70c>)
70002934:	f443 2380 	orr.w	r3, r3, #262144	@ 0x40000
70002938:	62d3      	str	r3, [r2, #44]	@ 0x2c
        /* FMC kernel clock source configuration done later after clock selection check */
        break;
7000293a:	e003      	b.n	70002944 <HAL_RCCEx_PeriphCLKConfig+0x6b8>
      case RCC_FMCCLKSOURCE_HSI:   /* HSI oscillator is used as clock source for FMC kernel */
        /* FMC kernel clock source configuration done later after clock selection check */
        break;

      default:
        ret = HAL_ERROR;
7000293c:	2301      	movs	r3, #1
7000293e:	75fb      	strb	r3, [r7, #23]
        break;
70002940:	e000      	b.n	70002944 <HAL_RCCEx_PeriphCLKConfig+0x6b8>
        break;
70002942:	bf00      	nop
    }

    if (ret == HAL_OK)
70002944:	7dfb      	ldrb	r3, [r7, #23]
70002946:	2b00      	cmp	r3, #0
70002948:	d12c      	bne.n	700029a4 <HAL_RCCEx_PeriphCLKConfig+0x718>
    {
      /* Set the source of FMC kernel clock*/
      __HAL_RCC_FMC_CONFIG(PeriphClkInit->FmcClockSelection);
7000294a:	4b13      	ldr	r3, [pc, #76]	@ (70002998 <HAL_RCCEx_PeriphCLKConfig+0x70c>)
7000294c:	6cdb      	ldr	r3, [r3, #76]	@ 0x4c
7000294e:	f023 0203 	bic.w	r2, r3, #3
70002952:	687b      	ldr	r3, [r7, #4]
70002954:	685b      	ldr	r3, [r3, #4]
70002956:	4910      	ldr	r1, [pc, #64]	@ (70002998 <HAL_RCCEx_PeriphCLKConfig+0x70c>)
70002958:	4313      	orrs	r3, r2
7000295a:	64cb      	str	r3, [r1, #76]	@ 0x4c
7000295c:	e024      	b.n	700029a8 <HAL_RCCEx_PeriphCLKConfig+0x71c>
7000295e:	bf00      	nop
70002960:	00033300 	.word	0x00033300
70002964:	00034300 	.word	0x00034300
70002968:	00035300 	.word	0x00035300
7000296c:	00036300 	.word	0x00036300
70002970:	00037300 	.word	0x00037300
70002974:	00038300 	.word	0x00038300
70002978:	00039300 	.word	0x00039300
7000297c:	0003a300 	.word	0x0003a300
70002980:	0003b300 	.word	0x0003b300
70002984:	0003c300 	.word	0x0003c300
70002988:	0003d300 	.word	0x0003d300
7000298c:	0003e300 	.word	0x0003e300
70002990:	0003f300 	.word	0x0003f300
70002994:	700068ec 	.word	0x700068ec
70002998:	58024400 	.word	0x58024400
7000299c:	58024800 	.word	0x58024800
700029a0:	0fffffcf 	.word	0x0fffffcf
    }
    else
    {
      /* set overall return value */
      status = ret;
700029a4:	7dfb      	ldrb	r3, [r7, #23]
700029a6:	75bb      	strb	r3, [r7, #22]
    }
  }

  /*-------------------------- XSPI1 clock source configuration ----------------*/
  if ((PeriphClkInit->PeriphClockSelection & RCC_PERIPHCLK_XSPI1) == RCC_PERIPHCLK_XSPI1)
700029a8:	687b      	ldr	r3, [r7, #4]
700029aa:	681b      	ldr	r3, [r3, #0]
700029ac:	f003 0302 	and.w	r3, r3, #2
700029b0:	2b00      	cmp	r3, #0
700029b2:	d03a      	beq.n	70002a2a <HAL_RCCEx_PeriphCLKConfig+0x79e>
  {
    /* Check the parameters */
    assert_param(IS_RCC_XSPI1CLKSOURCE(PeriphClkInit->Xspi1ClockSelection));
700029b4:	687b      	ldr	r3, [r7, #4]
700029b6:	689b      	ldr	r3, [r3, #8]
700029b8:	2b00      	cmp	r3, #0
700029ba:	d00b      	beq.n	700029d4 <HAL_RCCEx_PeriphCLKConfig+0x748>
700029bc:	687b      	ldr	r3, [r7, #4]
700029be:	689b      	ldr	r3, [r3, #8]
700029c0:	2b10      	cmp	r3, #16
700029c2:	d007      	beq.n	700029d4 <HAL_RCCEx_PeriphCLKConfig+0x748>
700029c4:	687b      	ldr	r3, [r7, #4]
700029c6:	689b      	ldr	r3, [r3, #8]
700029c8:	2b20      	cmp	r3, #32
700029ca:	d003      	beq.n	700029d4 <HAL_RCCEx_PeriphCLKConfig+0x748>
700029cc:	21e7      	movs	r1, #231	@ 0xe7
700029ce:	4889      	ldr	r0, [pc, #548]	@ (70002bf4 <HAL_RCCEx_PeriphCLKConfig+0x968>)
700029d0:	f7fe f914 	bl	70000bfc <assert_failed>

    switch (PeriphClkInit->Xspi1ClockSelection)
700029d4:	687b      	ldr	r3, [r7, #4]
700029d6:	689b      	ldr	r3, [r3, #8]
700029d8:	2b20      	cmp	r3, #32
700029da:	d00c      	beq.n	700029f6 <HAL_RCCEx_PeriphCLKConfig+0x76a>
700029dc:	2b20      	cmp	r3, #32
700029de:	d811      	bhi.n	70002a04 <HAL_RCCEx_PeriphCLKConfig+0x778>
700029e0:	2b00      	cmp	r3, #0
700029e2:	d012      	beq.n	70002a0a <HAL_RCCEx_PeriphCLKConfig+0x77e>
700029e4:	2b10      	cmp	r3, #16
700029e6:	d10d      	bne.n	70002a04 <HAL_RCCEx_PeriphCLKConfig+0x778>
      case RCC_XSPI1CLKSOURCE_HCLK:   /* HCLK is used as clock source for Xspi1 */
        /* Nothing to do */
        break;

      case RCC_XSPI1CLKSOURCE_PLL2S:  /* PLL2_S is used as clock source for Xspi1 */
        __HAL_RCC_PLL2CLKOUT_ENABLE(RCC_PLL_SCLK);
700029e8:	4b83      	ldr	r3, [pc, #524]	@ (70002bf8 <HAL_RCCEx_PeriphCLKConfig+0x96c>)
700029ea:	6adb      	ldr	r3, [r3, #44]	@ 0x2c
700029ec:	4a82      	ldr	r2, [pc, #520]	@ (70002bf8 <HAL_RCCEx_PeriphCLKConfig+0x96c>)
700029ee:	f443 2300 	orr.w	r3, r3, #524288	@ 0x80000
700029f2:	62d3      	str	r3, [r2, #44]	@ 0x2c
        /* XSPI1 clock source configuration done later after clock selection check */
        break;
700029f4:	e00a      	b.n	70002a0c <HAL_RCCEx_PeriphCLKConfig+0x780>

      case RCC_XSPI1CLKSOURCE_PLL2T:  /* PLL2_T is used as clock source for Xspi1 */
        __HAL_RCC_PLL2CLKOUT_ENABLE(RCC_PLL_TCLK);
700029f6:	4b80      	ldr	r3, [pc, #512]	@ (70002bf8 <HAL_RCCEx_PeriphCLKConfig+0x96c>)
700029f8:	6adb      	ldr	r3, [r3, #44]	@ 0x2c
700029fa:	4a7f      	ldr	r2, [pc, #508]	@ (70002bf8 <HAL_RCCEx_PeriphCLKConfig+0x96c>)
700029fc:	f443 1380 	orr.w	r3, r3, #1048576	@ 0x100000
70002a00:	62d3      	str	r3, [r2, #44]	@ 0x2c
        /* XSPI1 clock source configuration done later after clock selection check */
        break;
70002a02:	e003      	b.n	70002a0c <HAL_RCCEx_PeriphCLKConfig+0x780>

      default:
        ret = HAL_ERROR;
70002a04:	2301      	movs	r3, #1
70002a06:	75fb      	strb	r3, [r7, #23]
        break;
70002a08:	e000      	b.n	70002a0c <HAL_RCCEx_PeriphCLKConfig+0x780>
        break;
70002a0a:	bf00      	nop
    }

    if (ret == HAL_OK)
70002a0c:	7dfb      	ldrb	r3, [r7, #23]
70002a0e:	2b00      	cmp	r3, #0
70002a10:	d109      	bne.n	70002a26 <HAL_RCCEx_PeriphCLKConfig+0x79a>
    {
      /* Configure the XSPI1 clock source */
      __HAL_RCC_XSPI1_CONFIG(PeriphClkInit->Xspi1ClockSelection);
70002a12:	4b79      	ldr	r3, [pc, #484]	@ (70002bf8 <HAL_RCCEx_PeriphCLKConfig+0x96c>)
70002a14:	6cdb      	ldr	r3, [r3, #76]	@ 0x4c
70002a16:	f023 0230 	bic.w	r2, r3, #48	@ 0x30
70002a1a:	687b      	ldr	r3, [r7, #4]
70002a1c:	689b      	ldr	r3, [r3, #8]
70002a1e:	4976      	ldr	r1, [pc, #472]	@ (70002bf8 <HAL_RCCEx_PeriphCLKConfig+0x96c>)
70002a20:	4313      	orrs	r3, r2
70002a22:	64cb      	str	r3, [r1, #76]	@ 0x4c
70002a24:	e001      	b.n	70002a2a <HAL_RCCEx_PeriphCLKConfig+0x79e>
    }
    else
    {
      /* set overall return value */
      status = ret;
70002a26:	7dfb      	ldrb	r3, [r7, #23]
70002a28:	75bb      	strb	r3, [r7, #22]
    }
  }

  /*-------------------------- XSPI2 clock source configuration ----------------*/
  if ((PeriphClkInit->PeriphClockSelection & RCC_PERIPHCLK_XSPI2) == RCC_PERIPHCLK_XSPI2)
70002a2a:	687b      	ldr	r3, [r7, #4]
70002a2c:	681b      	ldr	r3, [r3, #0]
70002a2e:	f003 0304 	and.w	r3, r3, #4
70002a32:	2b00      	cmp	r3, #0
70002a34:	d03b      	beq.n	70002aae <HAL_RCCEx_PeriphCLKConfig+0x822>
  {
    /* Check the parameters */
    assert_param(IS_RCC_XSPI2CLKSOURCE(PeriphClkInit->Xspi2ClockSelection));
70002a36:	687b      	ldr	r3, [r7, #4]
70002a38:	68db      	ldr	r3, [r3, #12]
70002a3a:	2b00      	cmp	r3, #0
70002a3c:	d00c      	beq.n	70002a58 <HAL_RCCEx_PeriphCLKConfig+0x7cc>
70002a3e:	687b      	ldr	r3, [r7, #4]
70002a40:	68db      	ldr	r3, [r3, #12]
70002a42:	2b40      	cmp	r3, #64	@ 0x40
70002a44:	d008      	beq.n	70002a58 <HAL_RCCEx_PeriphCLKConfig+0x7cc>
70002a46:	687b      	ldr	r3, [r7, #4]
70002a48:	68db      	ldr	r3, [r3, #12]
70002a4a:	2b80      	cmp	r3, #128	@ 0x80
70002a4c:	d004      	beq.n	70002a58 <HAL_RCCEx_PeriphCLKConfig+0x7cc>
70002a4e:	f44f 7187 	mov.w	r1, #270	@ 0x10e
70002a52:	4868      	ldr	r0, [pc, #416]	@ (70002bf4 <HAL_RCCEx_PeriphCLKConfig+0x968>)
70002a54:	f7fe f8d2 	bl	70000bfc <assert_failed>

    switch (PeriphClkInit->Xspi2ClockSelection)
70002a58:	687b      	ldr	r3, [r7, #4]
70002a5a:	68db      	ldr	r3, [r3, #12]
70002a5c:	2b80      	cmp	r3, #128	@ 0x80
70002a5e:	d00c      	beq.n	70002a7a <HAL_RCCEx_PeriphCLKConfig+0x7ee>
70002a60:	2b80      	cmp	r3, #128	@ 0x80
70002a62:	d811      	bhi.n	70002a88 <HAL_RCCEx_PeriphCLKConfig+0x7fc>
70002a64:	2b00      	cmp	r3, #0
70002a66:	d012      	beq.n	70002a8e <HAL_RCCEx_PeriphCLKConfig+0x802>
70002a68:	2b40      	cmp	r3, #64	@ 0x40
70002a6a:	d10d      	bne.n	70002a88 <HAL_RCCEx_PeriphCLKConfig+0x7fc>
      case RCC_XSPI2CLKSOURCE_HCLK:   /* HCLK is used as clock source for Xspi2 */
        /* Nothing to do */
        break;

      case RCC_XSPI2CLKSOURCE_PLL2S:  /* PLL2_S is used as clock source for Xspi2 */
        __HAL_RCC_PLL2CLKOUT_ENABLE(RCC_PLL_SCLK);
70002a6c:	4b62      	ldr	r3, [pc, #392]	@ (70002bf8 <HAL_RCCEx_PeriphCLKConfig+0x96c>)
70002a6e:	6adb      	ldr	r3, [r3, #44]	@ 0x2c
70002a70:	4a61      	ldr	r2, [pc, #388]	@ (70002bf8 <HAL_RCCEx_PeriphCLKConfig+0x96c>)
70002a72:	f443 2300 	orr.w	r3, r3, #524288	@ 0x80000
70002a76:	62d3      	str	r3, [r2, #44]	@ 0x2c
        /* XSPI2 clock source configuration done later after clock selection check */
        break;
70002a78:	e00a      	b.n	70002a90 <HAL_RCCEx_PeriphCLKConfig+0x804>

      case RCC_XSPI2CLKSOURCE_PLL2T:  /* PLL2_T is used as clock source for Xspi2 */
        __HAL_RCC_PLL2CLKOUT_ENABLE(RCC_PLL_TCLK);
70002a7a:	4b5f      	ldr	r3, [pc, #380]	@ (70002bf8 <HAL_RCCEx_PeriphCLKConfig+0x96c>)
70002a7c:	6adb      	ldr	r3, [r3, #44]	@ 0x2c
70002a7e:	4a5e      	ldr	r2, [pc, #376]	@ (70002bf8 <HAL_RCCEx_PeriphCLKConfig+0x96c>)
70002a80:	f443 1380 	orr.w	r3, r3, #1048576	@ 0x100000
70002a84:	62d3      	str	r3, [r2, #44]	@ 0x2c
        /* XSPI2 clock source configuration done later after clock selection check */
        break;
70002a86:	e003      	b.n	70002a90 <HAL_RCCEx_PeriphCLKConfig+0x804>

      default:
        ret = HAL_ERROR;
70002a88:	2301      	movs	r3, #1
70002a8a:	75fb      	strb	r3, [r7, #23]
        break;
70002a8c:	e000      	b.n	70002a90 <HAL_RCCEx_PeriphCLKConfig+0x804>
        break;
70002a8e:	bf00      	nop
    }

    if (ret == HAL_OK)
70002a90:	7dfb      	ldrb	r3, [r7, #23]
70002a92:	2b00      	cmp	r3, #0
70002a94:	d109      	bne.n	70002aaa <HAL_RCCEx_PeriphCLKConfig+0x81e>
    {
      /* Configure the XSPI2 clock source */
      __HAL_RCC_XSPI2_CONFIG(PeriphClkInit->Xspi2ClockSelection);
70002a96:	4b58      	ldr	r3, [pc, #352]	@ (70002bf8 <HAL_RCCEx_PeriphCLKConfig+0x96c>)
70002a98:	6cdb      	ldr	r3, [r3, #76]	@ 0x4c
70002a9a:	f023 02c0 	bic.w	r2, r3, #192	@ 0xc0
70002a9e:	687b      	ldr	r3, [r7, #4]
70002aa0:	68db      	ldr	r3, [r3, #12]
70002aa2:	4955      	ldr	r1, [pc, #340]	@ (70002bf8 <HAL_RCCEx_PeriphCLKConfig+0x96c>)
70002aa4:	4313      	orrs	r3, r2
70002aa6:	64cb      	str	r3, [r1, #76]	@ 0x4c
70002aa8:	e001      	b.n	70002aae <HAL_RCCEx_PeriphCLKConfig+0x822>
    }
    else
    {
      /* set overall return value */
      status = ret;
70002aaa:	7dfb      	ldrb	r3, [r7, #23]
70002aac:	75bb      	strb	r3, [r7, #22]
    }
  }

  /*------------------------------------ CKPER configuration --------------------------------------*/
  if ((PeriphClkInit->PeriphClockSelection & RCC_PERIPHCLK_CKPER) == RCC_PERIPHCLK_CKPER)
70002aae:	687b      	ldr	r3, [r7, #4]
70002ab0:	681b      	ldr	r3, [r3, #0]
70002ab2:	f003 0308 	and.w	r3, r3, #8
70002ab6:	2b00      	cmp	r3, #0
70002ab8:	d01b      	beq.n	70002af2 <HAL_RCCEx_PeriphCLKConfig+0x866>
  {
    /* Check the parameters */
    assert_param(IS_RCC_CKPERCLKSOURCE(PeriphClkInit->CkperClockSelection));
70002aba:	687b      	ldr	r3, [r7, #4]
70002abc:	691b      	ldr	r3, [r3, #16]
70002abe:	2b00      	cmp	r3, #0
70002ac0:	d00e      	beq.n	70002ae0 <HAL_RCCEx_PeriphCLKConfig+0x854>
70002ac2:	687b      	ldr	r3, [r7, #4]
70002ac4:	691b      	ldr	r3, [r3, #16]
70002ac6:	f1b3 5f80 	cmp.w	r3, #268435456	@ 0x10000000
70002aca:	d009      	beq.n	70002ae0 <HAL_RCCEx_PeriphCLKConfig+0x854>
70002acc:	687b      	ldr	r3, [r7, #4]
70002ace:	691b      	ldr	r3, [r3, #16]
70002ad0:	f1b3 5f00 	cmp.w	r3, #536870912	@ 0x20000000
70002ad4:	d004      	beq.n	70002ae0 <HAL_RCCEx_PeriphCLKConfig+0x854>
70002ad6:	f240 1135 	movw	r1, #309	@ 0x135
70002ada:	4846      	ldr	r0, [pc, #280]	@ (70002bf4 <HAL_RCCEx_PeriphCLKConfig+0x968>)
70002adc:	f7fe f88e 	bl	70000bfc <assert_failed>

    /* Configure the CKPER clock source */
    __HAL_RCC_CLKP_CONFIG(PeriphClkInit->CkperClockSelection);
70002ae0:	4b45      	ldr	r3, [pc, #276]	@ (70002bf8 <HAL_RCCEx_PeriphCLKConfig+0x96c>)
70002ae2:	6cdb      	ldr	r3, [r3, #76]	@ 0x4c
70002ae4:	f023 5240 	bic.w	r2, r3, #805306368	@ 0x30000000
70002ae8:	687b      	ldr	r3, [r7, #4]
70002aea:	691b      	ldr	r3, [r3, #16]
70002aec:	4942      	ldr	r1, [pc, #264]	@ (70002bf8 <HAL_RCCEx_PeriphCLKConfig+0x96c>)
70002aee:	4313      	orrs	r3, r2
70002af0:	64cb      	str	r3, [r1, #76]	@ 0x4c
  }

  /*------------------------------------- SDMMC12 Configuration ------------------------------------*/
  if ((PeriphClkInit->PeriphClockSelection & RCC_PERIPHCLK_SDMMC12) == RCC_PERIPHCLK_SDMMC12)
70002af2:	687b      	ldr	r3, [r7, #4]
70002af4:	681b      	ldr	r3, [r3, #0]
70002af6:	f403 1300 	and.w	r3, r3, #2097152	@ 0x200000
70002afa:	2b00      	cmp	r3, #0
70002afc:	d033      	beq.n	70002b66 <HAL_RCCEx_PeriphCLKConfig+0x8da>
  {
    /* Check the parameters */
    assert_param(IS_RCC_SDMMC12CLKSOURCE(PeriphClkInit->Sdmmc12ClockSelection));
70002afe:	687b      	ldr	r3, [r7, #4]
70002b00:	6d5b      	ldr	r3, [r3, #84]	@ 0x54
70002b02:	2b00      	cmp	r3, #0
70002b04:	d008      	beq.n	70002b18 <HAL_RCCEx_PeriphCLKConfig+0x88c>
70002b06:	687b      	ldr	r3, [r7, #4]
70002b08:	6d5b      	ldr	r3, [r3, #84]	@ 0x54
70002b0a:	2b04      	cmp	r3, #4
70002b0c:	d004      	beq.n	70002b18 <HAL_RCCEx_PeriphCLKConfig+0x88c>
70002b0e:	f240 113f 	movw	r1, #319	@ 0x13f
70002b12:	4838      	ldr	r0, [pc, #224]	@ (70002bf4 <HAL_RCCEx_PeriphCLKConfig+0x968>)
70002b14:	f7fe f872 	bl	70000bfc <assert_failed>

    switch (PeriphClkInit->Sdmmc12ClockSelection)
70002b18:	687b      	ldr	r3, [r7, #4]
70002b1a:	6d5b      	ldr	r3, [r3, #84]	@ 0x54
70002b1c:	2b00      	cmp	r3, #0
70002b1e:	d002      	beq.n	70002b26 <HAL_RCCEx_PeriphCLKConfig+0x89a>
70002b20:	2b04      	cmp	r3, #4
70002b22:	d007      	beq.n	70002b34 <HAL_RCCEx_PeriphCLKConfig+0x8a8>
70002b24:	e00d      	b.n	70002b42 <HAL_RCCEx_PeriphCLKConfig+0x8b6>
    {
      case RCC_SDMMC12CLKSOURCE_PLL2S:  /* PLL2_S is used as clock source for SDMMC12 kernel */
        __HAL_RCC_PLL2CLKOUT_ENABLE(RCC_PLL_SCLK);
70002b26:	4b34      	ldr	r3, [pc, #208]	@ (70002bf8 <HAL_RCCEx_PeriphCLKConfig+0x96c>)
70002b28:	6adb      	ldr	r3, [r3, #44]	@ 0x2c
70002b2a:	4a33      	ldr	r2, [pc, #204]	@ (70002bf8 <HAL_RCCEx_PeriphCLKConfig+0x96c>)
70002b2c:	f443 2300 	orr.w	r3, r3, #524288	@ 0x80000
70002b30:	62d3      	str	r3, [r2, #44]	@ 0x2c
        /* SDMMC12 kernel clock source configuration done later after clock selection check */
        break;
70002b32:	e009      	b.n	70002b48 <HAL_RCCEx_PeriphCLKConfig+0x8bc>

      case RCC_SDMMC12CLKSOURCE_PLL2T:  /* PLL2_T is used as clock source for SDMMC12 kernel */
        __HAL_RCC_PLL2CLKOUT_ENABLE(RCC_PLL_TCLK);
70002b34:	4b30      	ldr	r3, [pc, #192]	@ (70002bf8 <HAL_RCCEx_PeriphCLKConfig+0x96c>)
70002b36:	6adb      	ldr	r3, [r3, #44]	@ 0x2c
70002b38:	4a2f      	ldr	r2, [pc, #188]	@ (70002bf8 <HAL_RCCEx_PeriphCLKConfig+0x96c>)
70002b3a:	f443 1380 	orr.w	r3, r3, #1048576	@ 0x100000
70002b3e:	62d3      	str	r3, [r2, #44]	@ 0x2c
        /* SDMMC12 kernel clock source configuration done later after clock selection check */
        break;
70002b40:	e002      	b.n	70002b48 <HAL_RCCEx_PeriphCLKConfig+0x8bc>

      default:
        ret = HAL_ERROR;
70002b42:	2301      	movs	r3, #1
70002b44:	75fb      	strb	r3, [r7, #23]
        break;
70002b46:	bf00      	nop
    }

    if (ret == HAL_OK)
70002b48:	7dfb      	ldrb	r3, [r7, #23]
70002b4a:	2b00      	cmp	r3, #0
70002b4c:	d109      	bne.n	70002b62 <HAL_RCCEx_PeriphCLKConfig+0x8d6>
    {
      /* Set the source of SDMMC12 clock*/
      __HAL_RCC_SDMMC12_CONFIG(PeriphClkInit->Sdmmc12ClockSelection);
70002b4e:	4b2a      	ldr	r3, [pc, #168]	@ (70002bf8 <HAL_RCCEx_PeriphCLKConfig+0x96c>)
70002b50:	6cdb      	ldr	r3, [r3, #76]	@ 0x4c
70002b52:	f023 0204 	bic.w	r2, r3, #4
70002b56:	687b      	ldr	r3, [r7, #4]
70002b58:	6d5b      	ldr	r3, [r3, #84]	@ 0x54
70002b5a:	4927      	ldr	r1, [pc, #156]	@ (70002bf8 <HAL_RCCEx_PeriphCLKConfig+0x96c>)
70002b5c:	4313      	orrs	r3, r2
70002b5e:	64cb      	str	r3, [r1, #76]	@ 0x4c
70002b60:	e001      	b.n	70002b66 <HAL_RCCEx_PeriphCLKConfig+0x8da>
    }
    else
    {
      /* set overall return value */
      status = ret;
70002b62:	7dfb      	ldrb	r3, [r7, #23]
70002b64:	75bb      	strb	r3, [r7, #22]
    }
  }

  /*---------------------------- ADC configuration -------------------------------*/
  if ((PeriphClkInit->PeriphClockSelection & RCC_PERIPHCLK_ADC) == RCC_PERIPHCLK_ADC)
70002b66:	687b      	ldr	r3, [r7, #4]
70002b68:	681b      	ldr	r3, [r3, #0]
70002b6a:	f003 0310 	and.w	r3, r3, #16
70002b6e:	2b00      	cmp	r3, #0
70002b70:	d046      	beq.n	70002c00 <HAL_RCCEx_PeriphCLKConfig+0x974>
  {
    /* Check the parameters */
    assert_param(IS_RCC_ADCCLKSOURCE(PeriphClkInit->AdcClockSelection));
70002b72:	687b      	ldr	r3, [r7, #4]
70002b74:	695b      	ldr	r3, [r3, #20]
70002b76:	2b00      	cmp	r3, #0
70002b78:	d00e      	beq.n	70002b98 <HAL_RCCEx_PeriphCLKConfig+0x90c>
70002b7a:	687b      	ldr	r3, [r7, #4]
70002b7c:	695b      	ldr	r3, [r3, #20]
70002b7e:	f1b3 7f80 	cmp.w	r3, #16777216	@ 0x1000000
70002b82:	d009      	beq.n	70002b98 <HAL_RCCEx_PeriphCLKConfig+0x90c>
70002b84:	687b      	ldr	r3, [r7, #4]
70002b86:	695b      	ldr	r3, [r3, #20]
70002b88:	f1b3 7f00 	cmp.w	r3, #33554432	@ 0x2000000
70002b8c:	d004      	beq.n	70002b98 <HAL_RCCEx_PeriphCLKConfig+0x90c>
70002b8e:	f44f 71b1 	mov.w	r1, #354	@ 0x162
70002b92:	4818      	ldr	r0, [pc, #96]	@ (70002bf4 <HAL_RCCEx_PeriphCLKConfig+0x968>)
70002b94:	f7fe f832 	bl	70000bfc <assert_failed>

    switch (PeriphClkInit->AdcClockSelection)
70002b98:	687b      	ldr	r3, [r7, #4]
70002b9a:	695b      	ldr	r3, [r3, #20]
70002b9c:	f1b3 7f00 	cmp.w	r3, #33554432	@ 0x2000000
70002ba0:	d019      	beq.n	70002bd6 <HAL_RCCEx_PeriphCLKConfig+0x94a>
70002ba2:	f1b3 7f00 	cmp.w	r3, #33554432	@ 0x2000000
70002ba6:	d813      	bhi.n	70002bd0 <HAL_RCCEx_PeriphCLKConfig+0x944>
70002ba8:	2b00      	cmp	r3, #0
70002baa:	d003      	beq.n	70002bb4 <HAL_RCCEx_PeriphCLKConfig+0x928>
70002bac:	f1b3 7f80 	cmp.w	r3, #16777216	@ 0x1000000
70002bb0:	d007      	beq.n	70002bc2 <HAL_RCCEx_PeriphCLKConfig+0x936>
70002bb2:	e00d      	b.n	70002bd0 <HAL_RCCEx_PeriphCLKConfig+0x944>
    {

      case RCC_ADCCLKSOURCE_PLL2P: /* PLL2_P is used as clock source for ADC */
        __HAL_RCC_PLL2CLKOUT_ENABLE(RCC_PLL_PCLK);
70002bb4:	4b10      	ldr	r3, [pc, #64]	@ (70002bf8 <HAL_RCCEx_PeriphCLKConfig+0x96c>)
70002bb6:	6adb      	ldr	r3, [r3, #44]	@ 0x2c
70002bb8:	4a0f      	ldr	r2, [pc, #60]	@ (70002bf8 <HAL_RCCEx_PeriphCLKConfig+0x96c>)
70002bba:	f443 3380 	orr.w	r3, r3, #65536	@ 0x10000
70002bbe:	62d3      	str	r3, [r2, #44]	@ 0x2c
        /* ADC clock source configuration done later after clock selection check */
        break;
70002bc0:	e00a      	b.n	70002bd8 <HAL_RCCEx_PeriphCLKConfig+0x94c>

      case RCC_ADCCLKSOURCE_PLL3R: /* PLL3_R is used as clock source for ADC */
        __HAL_RCC_PLL3CLKOUT_ENABLE(RCC_PLL_RCLK);
70002bc2:	4b0d      	ldr	r3, [pc, #52]	@ (70002bf8 <HAL_RCCEx_PeriphCLKConfig+0x96c>)
70002bc4:	6adb      	ldr	r3, [r3, #44]	@ 0x2c
70002bc6:	4a0c      	ldr	r2, [pc, #48]	@ (70002bf8 <HAL_RCCEx_PeriphCLKConfig+0x96c>)
70002bc8:	f043 5300 	orr.w	r3, r3, #536870912	@ 0x20000000
70002bcc:	62d3      	str	r3, [r2, #44]	@ 0x2c
        /* ADC clock source configuration done later after clock selection check */
        break;
70002bce:	e003      	b.n	70002bd8 <HAL_RCCEx_PeriphCLKConfig+0x94c>
        /* HSI, HSE, or CSI oscillator is used as source of ADC clock */
        /* ADC clock source configuration done later after clock selection check */
        break;

      default:
        ret = HAL_ERROR;
70002bd0:	2301      	movs	r3, #1
70002bd2:	75fb      	strb	r3, [r7, #23]
        break;
70002bd4:	e000      	b.n	70002bd8 <HAL_RCCEx_PeriphCLKConfig+0x94c>
        break;
70002bd6:	bf00      	nop
    }

    if (ret == HAL_OK)
70002bd8:	7dfb      	ldrb	r3, [r7, #23]
70002bda:	2b00      	cmp	r3, #0
70002bdc:	d10e      	bne.n	70002bfc <HAL_RCCEx_PeriphCLKConfig+0x970>
    {
      /* Set the source of ADC clock*/
      __HAL_RCC_ADC_CONFIG(PeriphClkInit->AdcClockSelection);
70002bde:	4b06      	ldr	r3, [pc, #24]	@ (70002bf8 <HAL_RCCEx_PeriphCLKConfig+0x96c>)
70002be0:	6cdb      	ldr	r3, [r3, #76]	@ 0x4c
70002be2:	f023 7240 	bic.w	r2, r3, #50331648	@ 0x3000000
70002be6:	687b      	ldr	r3, [r7, #4]
70002be8:	695b      	ldr	r3, [r3, #20]
70002bea:	4903      	ldr	r1, [pc, #12]	@ (70002bf8 <HAL_RCCEx_PeriphCLKConfig+0x96c>)
70002bec:	4313      	orrs	r3, r2
70002bee:	64cb      	str	r3, [r1, #76]	@ 0x4c
70002bf0:	e006      	b.n	70002c00 <HAL_RCCEx_PeriphCLKConfig+0x974>
70002bf2:	bf00      	nop
70002bf4:	700068ec 	.word	0x700068ec
70002bf8:	58024400 	.word	0x58024400
    }
    else
    {
      /* set overall return value */
      status = ret;
70002bfc:	7dfb      	ldrb	r3, [r7, #23]
70002bfe:	75bb      	strb	r3, [r7, #22]
    }
  }

  /*---------------------------- ADF1 configuration --------------------------*/
  if ((PeriphClkInit->PeriphClockSelection & RCC_PERIPHCLK_ADF1) == RCC_PERIPHCLK_ADF1)
70002c00:	687b      	ldr	r3, [r7, #4]
70002c02:	681b      	ldr	r3, [r3, #0]
70002c04:	f003 0320 	and.w	r3, r3, #32
70002c08:	2b00      	cmp	r3, #0
70002c0a:	d061      	beq.n	70002cd0 <HAL_RCCEx_PeriphCLKConfig+0xa44>
  {
    /* Check the parameters */
    assert_param(IS_RCC_ADF1CLKSOURCE(PeriphClkInit->Adf1ClockSelection));
70002c0c:	687b      	ldr	r3, [r7, #4]
70002c0e:	699b      	ldr	r3, [r3, #24]
70002c10:	2b00      	cmp	r3, #0
70002c12:	d01d      	beq.n	70002c50 <HAL_RCCEx_PeriphCLKConfig+0x9c4>
70002c14:	687b      	ldr	r3, [r7, #4]
70002c16:	699b      	ldr	r3, [r3, #24]
70002c18:	f5b3 1f80 	cmp.w	r3, #1048576	@ 0x100000
70002c1c:	d018      	beq.n	70002c50 <HAL_RCCEx_PeriphCLKConfig+0x9c4>
70002c1e:	687b      	ldr	r3, [r7, #4]
70002c20:	699b      	ldr	r3, [r3, #24]
70002c22:	f5b3 1f00 	cmp.w	r3, #2097152	@ 0x200000
70002c26:	d013      	beq.n	70002c50 <HAL_RCCEx_PeriphCLKConfig+0x9c4>
70002c28:	687b      	ldr	r3, [r7, #4]
70002c2a:	699b      	ldr	r3, [r3, #24]
70002c2c:	f5b3 1f40 	cmp.w	r3, #3145728	@ 0x300000
70002c30:	d00e      	beq.n	70002c50 <HAL_RCCEx_PeriphCLKConfig+0x9c4>
70002c32:	687b      	ldr	r3, [r7, #4]
70002c34:	699b      	ldr	r3, [r3, #24]
70002c36:	f5b3 0f80 	cmp.w	r3, #4194304	@ 0x400000
70002c3a:	d009      	beq.n	70002c50 <HAL_RCCEx_PeriphCLKConfig+0x9c4>
70002c3c:	687b      	ldr	r3, [r7, #4]
70002c3e:	699b      	ldr	r3, [r3, #24]
70002c40:	f5b3 0fa0 	cmp.w	r3, #5242880	@ 0x500000
70002c44:	d004      	beq.n	70002c50 <HAL_RCCEx_PeriphCLKConfig+0x9c4>
70002c46:	f240 118b 	movw	r1, #395	@ 0x18b
70002c4a:	4880      	ldr	r0, [pc, #512]	@ (70002e4c <HAL_RCCEx_PeriphCLKConfig+0xbc0>)
70002c4c:	f7fd ffd6 	bl	70000bfc <assert_failed>

    switch (PeriphClkInit->Adf1ClockSelection)
70002c50:	687b      	ldr	r3, [r7, #4]
70002c52:	699b      	ldr	r3, [r3, #24]
70002c54:	f5b3 0fa0 	cmp.w	r3, #5242880	@ 0x500000
70002c58:	d02a      	beq.n	70002cb0 <HAL_RCCEx_PeriphCLKConfig+0xa24>
70002c5a:	f5b3 0fa0 	cmp.w	r3, #5242880	@ 0x500000
70002c5e:	d824      	bhi.n	70002caa <HAL_RCCEx_PeriphCLKConfig+0xa1e>
70002c60:	f5b3 0f80 	cmp.w	r3, #4194304	@ 0x400000
70002c64:	d024      	beq.n	70002cb0 <HAL_RCCEx_PeriphCLKConfig+0xa24>
70002c66:	f5b3 0f80 	cmp.w	r3, #4194304	@ 0x400000
70002c6a:	d81e      	bhi.n	70002caa <HAL_RCCEx_PeriphCLKConfig+0xa1e>
70002c6c:	f5b3 1f40 	cmp.w	r3, #3145728	@ 0x300000
70002c70:	d01e      	beq.n	70002cb0 <HAL_RCCEx_PeriphCLKConfig+0xa24>
70002c72:	f5b3 1f40 	cmp.w	r3, #3145728	@ 0x300000
70002c76:	d818      	bhi.n	70002caa <HAL_RCCEx_PeriphCLKConfig+0xa1e>
70002c78:	f5b3 1f00 	cmp.w	r3, #2097152	@ 0x200000
70002c7c:	d00e      	beq.n	70002c9c <HAL_RCCEx_PeriphCLKConfig+0xa10>
70002c7e:	f5b3 1f00 	cmp.w	r3, #2097152	@ 0x200000
70002c82:	d812      	bhi.n	70002caa <HAL_RCCEx_PeriphCLKConfig+0xa1e>
70002c84:	2b00      	cmp	r3, #0
70002c86:	d013      	beq.n	70002cb0 <HAL_RCCEx_PeriphCLKConfig+0xa24>
70002c88:	f5b3 1f80 	cmp.w	r3, #1048576	@ 0x100000
70002c8c:	d10d      	bne.n	70002caa <HAL_RCCEx_PeriphCLKConfig+0xa1e>
    {
      case RCC_ADF1CLKSOURCE_PLL2P:  /* PLL2_P is used as clock source for ADF1 */
        __HAL_RCC_PLL2CLKOUT_ENABLE(RCC_PLL_PCLK);
70002c8e:	4b70      	ldr	r3, [pc, #448]	@ (70002e50 <HAL_RCCEx_PeriphCLKConfig+0xbc4>)
70002c90:	6adb      	ldr	r3, [r3, #44]	@ 0x2c
70002c92:	4a6f      	ldr	r2, [pc, #444]	@ (70002e50 <HAL_RCCEx_PeriphCLKConfig+0xbc4>)
70002c94:	f443 3380 	orr.w	r3, r3, #65536	@ 0x10000
70002c98:	62d3      	str	r3, [r2, #44]	@ 0x2c
        /* ADF1 clock source configuration done later after clock selection check */
        break;
70002c9a:	e00a      	b.n	70002cb2 <HAL_RCCEx_PeriphCLKConfig+0xa26>

      case RCC_ADF1CLKSOURCE_PLL3P:  /* PLL3_P is used as clock source for ADF1 */
        __HAL_RCC_PLL3CLKOUT_ENABLE(RCC_PLL_PCLK);
70002c9c:	4b6c      	ldr	r3, [pc, #432]	@ (70002e50 <HAL_RCCEx_PeriphCLKConfig+0xbc4>)
70002c9e:	6adb      	ldr	r3, [r3, #44]	@ 0x2c
70002ca0:	4a6b      	ldr	r2, [pc, #428]	@ (70002e50 <HAL_RCCEx_PeriphCLKConfig+0xbc4>)
70002ca2:	f043 6300 	orr.w	r3, r3, #134217728	@ 0x8000000
70002ca6:	62d3      	str	r3, [r2, #44]	@ 0x2c
        /* ADF1 clock source configuration done later after clock selection check */
        break;
70002ca8:	e003      	b.n	70002cb2 <HAL_RCCEx_PeriphCLKConfig+0xa26>
      case RCC_ADF1CLKSOURCE_HSI:    /* HSI is used as clock source for ADF1 */
        /* ADF1 clock source configuration done later after clock selection check */
        break;

      default:
        ret = HAL_ERROR;
70002caa:	2301      	movs	r3, #1
70002cac:	75fb      	strb	r3, [r7, #23]
        break;
70002cae:	e000      	b.n	70002cb2 <HAL_RCCEx_PeriphCLKConfig+0xa26>
        break;
70002cb0:	bf00      	nop
    }

    if (ret == HAL_OK)
70002cb2:	7dfb      	ldrb	r3, [r7, #23]
70002cb4:	2b00      	cmp	r3, #0
70002cb6:	d109      	bne.n	70002ccc <HAL_RCCEx_PeriphCLKConfig+0xa40>
    {
      /* Set the source of ADF1 clock*/
      __HAL_RCC_ADF1_CONFIG(PeriphClkInit->Adf1ClockSelection);
70002cb8:	4b65      	ldr	r3, [pc, #404]	@ (70002e50 <HAL_RCCEx_PeriphCLKConfig+0xbc4>)
70002cba:	6cdb      	ldr	r3, [r3, #76]	@ 0x4c
70002cbc:	f423 02e0 	bic.w	r2, r3, #7340032	@ 0x700000
70002cc0:	687b      	ldr	r3, [r7, #4]
70002cc2:	699b      	ldr	r3, [r3, #24]
70002cc4:	4962      	ldr	r1, [pc, #392]	@ (70002e50 <HAL_RCCEx_PeriphCLKConfig+0xbc4>)
70002cc6:	4313      	orrs	r3, r2
70002cc8:	64cb      	str	r3, [r1, #76]	@ 0x4c
70002cca:	e001      	b.n	70002cd0 <HAL_RCCEx_PeriphCLKConfig+0xa44>
    }
    else
    {
      /* set overall return value */
      status = ret;
70002ccc:	7dfb      	ldrb	r3, [r7, #23]
70002cce:	75bb      	strb	r3, [r7, #22]
    }
  }

  /*---------------------- CEC configuration ---------------------------------*/
  if ((PeriphClkInit->PeriphClockSelection & RCC_PERIPHCLK_CEC) == RCC_PERIPHCLK_CEC)
70002cd0:	687b      	ldr	r3, [r7, #4]
70002cd2:	681b      	ldr	r3, [r3, #0]
70002cd4:	f003 0340 	and.w	r3, r3, #64	@ 0x40
70002cd8:	2b00      	cmp	r3, #0
70002cda:	d01b      	beq.n	70002d14 <HAL_RCCEx_PeriphCLKConfig+0xa88>
  {
    /* Check the parameters */
    assert_param(IS_RCC_CECCLKSOURCE(PeriphClkInit->CecClockSelection));
70002cdc:	687b      	ldr	r3, [r7, #4]
70002cde:	69db      	ldr	r3, [r3, #28]
70002ce0:	2b00      	cmp	r3, #0
70002ce2:	d00e      	beq.n	70002d02 <HAL_RCCEx_PeriphCLKConfig+0xa76>
70002ce4:	687b      	ldr	r3, [r7, #4]
70002ce6:	69db      	ldr	r3, [r3, #28]
70002ce8:	f1b3 5f80 	cmp.w	r3, #268435456	@ 0x10000000
70002cec:	d009      	beq.n	70002d02 <HAL_RCCEx_PeriphCLKConfig+0xa76>
70002cee:	687b      	ldr	r3, [r7, #4]
70002cf0:	69db      	ldr	r3, [r3, #28]
70002cf2:	f1b3 5f00 	cmp.w	r3, #536870912	@ 0x20000000
70002cf6:	d004      	beq.n	70002d02 <HAL_RCCEx_PeriphCLKConfig+0xa76>
70002cf8:	f240 11b5 	movw	r1, #437	@ 0x1b5
70002cfc:	4853      	ldr	r0, [pc, #332]	@ (70002e4c <HAL_RCCEx_PeriphCLKConfig+0xbc0>)
70002cfe:	f7fd ff7d 	bl	70000bfc <assert_failed>

    /* Configure the CEC clock source */
    __HAL_RCC_CEC_CONFIG(PeriphClkInit->CecClockSelection);
70002d02:	4b53      	ldr	r3, [pc, #332]	@ (70002e50 <HAL_RCCEx_PeriphCLKConfig+0xbc4>)
70002d04:	6d1b      	ldr	r3, [r3, #80]	@ 0x50
70002d06:	f023 5240 	bic.w	r2, r3, #805306368	@ 0x30000000
70002d0a:	687b      	ldr	r3, [r7, #4]
70002d0c:	69db      	ldr	r3, [r3, #28]
70002d0e:	4950      	ldr	r1, [pc, #320]	@ (70002e50 <HAL_RCCEx_PeriphCLKConfig+0xbc4>)
70002d10:	4313      	orrs	r3, r2
70002d12:	650b      	str	r3, [r1, #80]	@ 0x50
  }

  /*---------------------- ETH1 REF configuration --------------------------------*/
  if ((PeriphClkInit->PeriphClockSelection & RCC_PERIPHCLK_ETH1REF) == RCC_PERIPHCLK_ETH1REF)
70002d14:	687b      	ldr	r3, [r7, #4]
70002d16:	681b      	ldr	r3, [r3, #0]
70002d18:	f003 0380 	and.w	r3, r3, #128	@ 0x80
70002d1c:	2b00      	cmp	r3, #0
70002d1e:	d01b      	beq.n	70002d58 <HAL_RCCEx_PeriphCLKConfig+0xacc>
  {
    /* Check the parameters */
    assert_param(IS_RCC_ETH1REFCLKSOURCE(PeriphClkInit->Eth1RefClockSelection));
70002d20:	687b      	ldr	r3, [r7, #4]
70002d22:	6a1b      	ldr	r3, [r3, #32]
70002d24:	2b00      	cmp	r3, #0
70002d26:	d00e      	beq.n	70002d46 <HAL_RCCEx_PeriphCLKConfig+0xaba>
70002d28:	687b      	ldr	r3, [r7, #4]
70002d2a:	6a1b      	ldr	r3, [r3, #32]
70002d2c:	f5b3 3f80 	cmp.w	r3, #65536	@ 0x10000
70002d30:	d009      	beq.n	70002d46 <HAL_RCCEx_PeriphCLKConfig+0xaba>
70002d32:	687b      	ldr	r3, [r7, #4]
70002d34:	6a1b      	ldr	r3, [r3, #32]
70002d36:	f5b3 3f00 	cmp.w	r3, #131072	@ 0x20000
70002d3a:	d004      	beq.n	70002d46 <HAL_RCCEx_PeriphCLKConfig+0xaba>
70002d3c:	f240 11bf 	movw	r1, #447	@ 0x1bf
70002d40:	4842      	ldr	r0, [pc, #264]	@ (70002e4c <HAL_RCCEx_PeriphCLKConfig+0xbc0>)
70002d42:	f7fd ff5b 	bl	70000bfc <assert_failed>

    /* Configure the ETH1 REF clock source */
    __HAL_RCC_ETH1REF_CONFIG(PeriphClkInit->Eth1RefClockSelection);
70002d46:	4b42      	ldr	r3, [pc, #264]	@ (70002e50 <HAL_RCCEx_PeriphCLKConfig+0xbc4>)
70002d48:	6cdb      	ldr	r3, [r3, #76]	@ 0x4c
70002d4a:	f423 3240 	bic.w	r2, r3, #196608	@ 0x30000
70002d4e:	687b      	ldr	r3, [r7, #4]
70002d50:	6a1b      	ldr	r3, [r3, #32]
70002d52:	493f      	ldr	r1, [pc, #252]	@ (70002e50 <HAL_RCCEx_PeriphCLKConfig+0xbc4>)
70002d54:	4313      	orrs	r3, r2
70002d56:	64cb      	str	r3, [r1, #76]	@ 0x4c
  }

  /*---------------------- ETH1PHY configuration --------------------------------*/
  if ((PeriphClkInit->PeriphClockSelection & RCC_PERIPHCLK_ETH1PHY) == RCC_PERIPHCLK_ETH1PHY)
70002d58:	687b      	ldr	r3, [r7, #4]
70002d5a:	681b      	ldr	r3, [r3, #0]
70002d5c:	f403 7380 	and.w	r3, r3, #256	@ 0x100
70002d60:	2b00      	cmp	r3, #0
70002d62:	d02e      	beq.n	70002dc2 <HAL_RCCEx_PeriphCLKConfig+0xb36>
  {
    /* Check the parameters */
    assert_param(IS_RCC_ETH1PHYCLKSOURCE(PeriphClkInit->Eth1PhyClockSelection));
70002d64:	687b      	ldr	r3, [r7, #4]
70002d66:	6a5b      	ldr	r3, [r3, #36]	@ 0x24
70002d68:	2b00      	cmp	r3, #0
70002d6a:	d009      	beq.n	70002d80 <HAL_RCCEx_PeriphCLKConfig+0xaf4>
70002d6c:	687b      	ldr	r3, [r7, #4]
70002d6e:	6a5b      	ldr	r3, [r3, #36]	@ 0x24
70002d70:	f5b3 2f80 	cmp.w	r3, #262144	@ 0x40000
70002d74:	d004      	beq.n	70002d80 <HAL_RCCEx_PeriphCLKConfig+0xaf4>
70002d76:	f240 11c9 	movw	r1, #457	@ 0x1c9
70002d7a:	4834      	ldr	r0, [pc, #208]	@ (70002e4c <HAL_RCCEx_PeriphCLKConfig+0xbc0>)
70002d7c:	f7fd ff3e 	bl	70000bfc <assert_failed>

    switch (PeriphClkInit->Eth1PhyClockSelection)
70002d80:	687b      	ldr	r3, [r7, #4]
70002d82:	6a5b      	ldr	r3, [r3, #36]	@ 0x24
70002d84:	2b00      	cmp	r3, #0
70002d86:	d00c      	beq.n	70002da2 <HAL_RCCEx_PeriphCLKConfig+0xb16>
70002d88:	f5b3 2f80 	cmp.w	r3, #262144	@ 0x40000
70002d8c:	d106      	bne.n	70002d9c <HAL_RCCEx_PeriphCLKConfig+0xb10>
      case RCC_ETH1PHYCLKSOURCE_HSE:    /* HSE is used as clock source for ETH PHY */
        /* ETH PHY clock source configuration done later after clock selection check */
        break;

      case RCC_ETH1PHYCLKSOURCE_PLL3S:  /* PLL3_S is used as clock source for ETH PHY */
        __HAL_RCC_PLL3CLKOUT_ENABLE(RCC_PLL_SCLK);
70002d8e:	4b30      	ldr	r3, [pc, #192]	@ (70002e50 <HAL_RCCEx_PeriphCLKConfig+0xbc4>)
70002d90:	6adb      	ldr	r3, [r3, #44]	@ 0x2c
70002d92:	4a2f      	ldr	r2, [pc, #188]	@ (70002e50 <HAL_RCCEx_PeriphCLKConfig+0xbc4>)
70002d94:	f043 4380 	orr.w	r3, r3, #1073741824	@ 0x40000000
70002d98:	62d3      	str	r3, [r2, #44]	@ 0x2c
        /* ETH PHY clock source configuration done later after clock selection check */
        break;
70002d9a:	e003      	b.n	70002da4 <HAL_RCCEx_PeriphCLKConfig+0xb18>

      default:
        ret = HAL_ERROR;
70002d9c:	2301      	movs	r3, #1
70002d9e:	75fb      	strb	r3, [r7, #23]
        break;
70002da0:	e000      	b.n	70002da4 <HAL_RCCEx_PeriphCLKConfig+0xb18>
        break;
70002da2:	bf00      	nop
    }

    if (ret == HAL_OK)
70002da4:	7dfb      	ldrb	r3, [r7, #23]
70002da6:	2b00      	cmp	r3, #0
70002da8:	d109      	bne.n	70002dbe <HAL_RCCEx_PeriphCLKConfig+0xb32>
    {
      /* Set the source of ETH PHY clock*/
      __HAL_RCC_ETH1PHY_CONFIG(PeriphClkInit->Eth1PhyClockSelection);
70002daa:	4b29      	ldr	r3, [pc, #164]	@ (70002e50 <HAL_RCCEx_PeriphCLKConfig+0xbc4>)
70002dac:	6cdb      	ldr	r3, [r3, #76]	@ 0x4c
70002dae:	f423 2280 	bic.w	r2, r3, #262144	@ 0x40000
70002db2:	687b      	ldr	r3, [r7, #4]
70002db4:	6a5b      	ldr	r3, [r3, #36]	@ 0x24
70002db6:	4926      	ldr	r1, [pc, #152]	@ (70002e50 <HAL_RCCEx_PeriphCLKConfig+0xbc4>)
70002db8:	4313      	orrs	r3, r2
70002dba:	64cb      	str	r3, [r1, #76]	@ 0x4c
70002dbc:	e001      	b.n	70002dc2 <HAL_RCCEx_PeriphCLKConfig+0xb36>
    }
    else
    {
      /* set overall return value */
      status = ret;
70002dbe:	7dfb      	ldrb	r3, [r7, #23]
70002dc0:	75bb      	strb	r3, [r7, #22]
    }
  }

  /*---------------------- FDCAN configuration -------------------------------*/
  if ((PeriphClkInit->PeriphClockSelection & RCC_PERIPHCLK_FDCAN) == RCC_PERIPHCLK_FDCAN)
70002dc2:	687b      	ldr	r3, [r7, #4]
70002dc4:	681b      	ldr	r3, [r3, #0]
70002dc6:	f403 7300 	and.w	r3, r3, #512	@ 0x200
70002dca:	2b00      	cmp	r3, #0
70002dcc:	d044      	beq.n	70002e58 <HAL_RCCEx_PeriphCLKConfig+0xbcc>
  {
    /* Check the parameters */
    assert_param(IS_RCC_FDCANCLKSOURCE(PeriphClkInit->FdcanClockSelection));
70002dce:	687b      	ldr	r3, [r7, #4]
70002dd0:	6a9b      	ldr	r3, [r3, #40]	@ 0x28
70002dd2:	2b00      	cmp	r3, #0
70002dd4:	d00e      	beq.n	70002df4 <HAL_RCCEx_PeriphCLKConfig+0xb68>
70002dd6:	687b      	ldr	r3, [r7, #4]
70002dd8:	6a9b      	ldr	r3, [r3, #40]	@ 0x28
70002dda:	f5b3 0f80 	cmp.w	r3, #4194304	@ 0x400000
70002dde:	d009      	beq.n	70002df4 <HAL_RCCEx_PeriphCLKConfig+0xb68>
70002de0:	687b      	ldr	r3, [r7, #4]
70002de2:	6a9b      	ldr	r3, [r3, #40]	@ 0x28
70002de4:	f5b3 0f00 	cmp.w	r3, #8388608	@ 0x800000
70002de8:	d004      	beq.n	70002df4 <HAL_RCCEx_PeriphCLKConfig+0xb68>
70002dea:	f240 11eb 	movw	r1, #491	@ 0x1eb
70002dee:	4817      	ldr	r0, [pc, #92]	@ (70002e4c <HAL_RCCEx_PeriphCLKConfig+0xbc0>)
70002df0:	f7fd ff04 	bl	70000bfc <assert_failed>

    switch (PeriphClkInit->FdcanClockSelection)
70002df4:	687b      	ldr	r3, [r7, #4]
70002df6:	6a9b      	ldr	r3, [r3, #40]	@ 0x28
70002df8:	f5b3 0f00 	cmp.w	r3, #8388608	@ 0x800000
70002dfc:	d00e      	beq.n	70002e1c <HAL_RCCEx_PeriphCLKConfig+0xb90>
70002dfe:	f5b3 0f00 	cmp.w	r3, #8388608	@ 0x800000
70002e02:	d812      	bhi.n	70002e2a <HAL_RCCEx_PeriphCLKConfig+0xb9e>
70002e04:	2b00      	cmp	r3, #0
70002e06:	d013      	beq.n	70002e30 <HAL_RCCEx_PeriphCLKConfig+0xba4>
70002e08:	f5b3 0f80 	cmp.w	r3, #4194304	@ 0x400000
70002e0c:	d10d      	bne.n	70002e2a <HAL_RCCEx_PeriphCLKConfig+0xb9e>
    {
      case RCC_FDCANCLKSOURCE_PLL1Q: /* PLL1_Q is used as clock source for FDCAN kernel */
        /* Enable FDCAN Clock output generated form System PLL . */
        __HAL_RCC_PLL1CLKOUT_ENABLE(RCC_PLL_QCLK);
70002e0e:	4b10      	ldr	r3, [pc, #64]	@ (70002e50 <HAL_RCCEx_PeriphCLKConfig+0xbc4>)
70002e10:	6adb      	ldr	r3, [r3, #44]	@ 0x2c
70002e12:	4a0f      	ldr	r2, [pc, #60]	@ (70002e50 <HAL_RCCEx_PeriphCLKConfig+0xbc4>)
70002e14:	f043 0340 	orr.w	r3, r3, #64	@ 0x40
70002e18:	62d3      	str	r3, [r2, #44]	@ 0x2c
        /* FDCAN clock source configuration done later after clock selection check */
        break;
70002e1a:	e00a      	b.n	70002e32 <HAL_RCCEx_PeriphCLKConfig+0xba6>

      case RCC_FDCANCLKSOURCE_PLL2P: /* PLL2_P is used as clock source for FDCAN kernel */
        __HAL_RCC_PLL2CLKOUT_ENABLE(RCC_PLL_PCLK);
70002e1c:	4b0c      	ldr	r3, [pc, #48]	@ (70002e50 <HAL_RCCEx_PeriphCLKConfig+0xbc4>)
70002e1e:	6adb      	ldr	r3, [r3, #44]	@ 0x2c
70002e20:	4a0b      	ldr	r2, [pc, #44]	@ (70002e50 <HAL_RCCEx_PeriphCLKConfig+0xbc4>)
70002e22:	f443 3380 	orr.w	r3, r3, #65536	@ 0x10000
70002e26:	62d3      	str	r3, [r2, #44]	@ 0x2c
        /* FDCAN clock source configuration done later after clock selection check */
        break;
70002e28:	e003      	b.n	70002e32 <HAL_RCCEx_PeriphCLKConfig+0xba6>
      case RCC_FDCANCLKSOURCE_HSE:   /* HSE is used as clock source for FDCAN kernel */
        /* FDCAN clock source configuration done later after clock selection check */
        break;

      default:
        ret = HAL_ERROR;
70002e2a:	2301      	movs	r3, #1
70002e2c:	75fb      	strb	r3, [r7, #23]
        break;
70002e2e:	e000      	b.n	70002e32 <HAL_RCCEx_PeriphCLKConfig+0xba6>
        break;
70002e30:	bf00      	nop
    }

    if (ret == HAL_OK)
70002e32:	7dfb      	ldrb	r3, [r7, #23]
70002e34:	2b00      	cmp	r3, #0
70002e36:	d10d      	bne.n	70002e54 <HAL_RCCEx_PeriphCLKConfig+0xbc8>
    {
      /* Set the source of FDCAN clock*/
      __HAL_RCC_FDCAN_CONFIG(PeriphClkInit->FdcanClockSelection);
70002e38:	4b05      	ldr	r3, [pc, #20]	@ (70002e50 <HAL_RCCEx_PeriphCLKConfig+0xbc4>)
70002e3a:	6d1b      	ldr	r3, [r3, #80]	@ 0x50
70002e3c:	f423 0240 	bic.w	r2, r3, #12582912	@ 0xc00000
70002e40:	687b      	ldr	r3, [r7, #4]
70002e42:	6a9b      	ldr	r3, [r3, #40]	@ 0x28
70002e44:	4902      	ldr	r1, [pc, #8]	@ (70002e50 <HAL_RCCEx_PeriphCLKConfig+0xbc4>)
70002e46:	4313      	orrs	r3, r2
70002e48:	650b      	str	r3, [r1, #80]	@ 0x50
70002e4a:	e005      	b.n	70002e58 <HAL_RCCEx_PeriphCLKConfig+0xbcc>
70002e4c:	700068ec 	.word	0x700068ec
70002e50:	58024400 	.word	0x58024400
    }
    else
    {
      /* set overall return value */
      status = ret;
70002e54:	7dfb      	ldrb	r3, [r7, #23]
70002e56:	75bb      	strb	r3, [r7, #22]
    }
  }

  /*------------------------------ I2C1/I3C1 Configuration ------------------------*/
  if ((PeriphClkInit->PeriphClockSelection & RCC_PERIPHCLK_I2C1_I3C1) == RCC_PERIPHCLK_I2C1_I3C1)
70002e58:	687b      	ldr	r3, [r7, #4]
70002e5a:	681b      	ldr	r3, [r3, #0]
70002e5c:	f403 6300 	and.w	r3, r3, #2048	@ 0x800
70002e60:	2b00      	cmp	r3, #0
70002e62:	d044      	beq.n	70002eee <HAL_RCCEx_PeriphCLKConfig+0xc62>
  {
    /* Check the parameters */
    assert_param(IS_RCC_I2C1_I3C1CLKSOURCE(PeriphClkInit->I2c1_I3c1ClockSelection));
70002e64:	687b      	ldr	r3, [r7, #4]
70002e66:	6adb      	ldr	r3, [r3, #44]	@ 0x2c
70002e68:	2b00      	cmp	r3, #0
70002e6a:	d013      	beq.n	70002e94 <HAL_RCCEx_PeriphCLKConfig+0xc08>
70002e6c:	687b      	ldr	r3, [r7, #4]
70002e6e:	6adb      	ldr	r3, [r3, #44]	@ 0x2c
70002e70:	f5b3 5f80 	cmp.w	r3, #4096	@ 0x1000
70002e74:	d00e      	beq.n	70002e94 <HAL_RCCEx_PeriphCLKConfig+0xc08>
70002e76:	687b      	ldr	r3, [r7, #4]
70002e78:	6adb      	ldr	r3, [r3, #44]	@ 0x2c
70002e7a:	f5b3 5f00 	cmp.w	r3, #8192	@ 0x2000
70002e7e:	d009      	beq.n	70002e94 <HAL_RCCEx_PeriphCLKConfig+0xc08>
70002e80:	687b      	ldr	r3, [r7, #4]
70002e82:	6adb      	ldr	r3, [r3, #44]	@ 0x2c
70002e84:	f5b3 5f40 	cmp.w	r3, #12288	@ 0x3000
70002e88:	d004      	beq.n	70002e94 <HAL_RCCEx_PeriphCLKConfig+0xc08>
70002e8a:	f240 2113 	movw	r1, #531	@ 0x213
70002e8e:	4892      	ldr	r0, [pc, #584]	@ (700030d8 <HAL_RCCEx_PeriphCLKConfig+0xe4c>)
70002e90:	f7fd feb4 	bl	70000bfc <assert_failed>

    switch (PeriphClkInit->I2c1_I3c1ClockSelection)
70002e94:	687b      	ldr	r3, [r7, #4]
70002e96:	6adb      	ldr	r3, [r3, #44]	@ 0x2c
70002e98:	f5b3 5f40 	cmp.w	r3, #12288	@ 0x3000
70002e9c:	d017      	beq.n	70002ece <HAL_RCCEx_PeriphCLKConfig+0xc42>
70002e9e:	f5b3 5f40 	cmp.w	r3, #12288	@ 0x3000
70002ea2:	d811      	bhi.n	70002ec8 <HAL_RCCEx_PeriphCLKConfig+0xc3c>
70002ea4:	f5b3 5f00 	cmp.w	r3, #8192	@ 0x2000
70002ea8:	d011      	beq.n	70002ece <HAL_RCCEx_PeriphCLKConfig+0xc42>
70002eaa:	f5b3 5f00 	cmp.w	r3, #8192	@ 0x2000
70002eae:	d80b      	bhi.n	70002ec8 <HAL_RCCEx_PeriphCLKConfig+0xc3c>
70002eb0:	2b00      	cmp	r3, #0
70002eb2:	d00c      	beq.n	70002ece <HAL_RCCEx_PeriphCLKConfig+0xc42>
70002eb4:	f5b3 5f80 	cmp.w	r3, #4096	@ 0x1000
70002eb8:	d106      	bne.n	70002ec8 <HAL_RCCEx_PeriphCLKConfig+0xc3c>
    {
      case RCC_I2C1_I3C1CLKSOURCE_PLL3R:   /* PLL3_R is used as clock source for I2C1/I3C1*/
        __HAL_RCC_PLL3CLKOUT_ENABLE(RCC_PLL_RCLK);
70002eba:	4b88      	ldr	r3, [pc, #544]	@ (700030dc <HAL_RCCEx_PeriphCLKConfig+0xe50>)
70002ebc:	6adb      	ldr	r3, [r3, #44]	@ 0x2c
70002ebe:	4a87      	ldr	r2, [pc, #540]	@ (700030dc <HAL_RCCEx_PeriphCLKConfig+0xe50>)
70002ec0:	f043 5300 	orr.w	r3, r3, #536870912	@ 0x20000000
70002ec4:	62d3      	str	r3, [r2, #44]	@ 0x2c
        /* I2C1/I3C1 clock source configuration done later after clock selection check */
        break;
70002ec6:	e003      	b.n	70002ed0 <HAL_RCCEx_PeriphCLKConfig+0xc44>
      case RCC_I2C1_I3C1CLKSOURCE_CSI:     /* CSI is used as clock source for I2C1/I3C1*/
        /* I2C1/I3C1 clock source configuration done later after clock selection check */
        break;

      default:
        ret = HAL_ERROR;
70002ec8:	2301      	movs	r3, #1
70002eca:	75fb      	strb	r3, [r7, #23]
        break;
70002ecc:	e000      	b.n	70002ed0 <HAL_RCCEx_PeriphCLKConfig+0xc44>
        break;
70002ece:	bf00      	nop
    }

    if (ret == HAL_OK)
70002ed0:	7dfb      	ldrb	r3, [r7, #23]
70002ed2:	2b00      	cmp	r3, #0
70002ed4:	d109      	bne.n	70002eea <HAL_RCCEx_PeriphCLKConfig+0xc5e>
    {
      /* Set the source of I2C1/I3C1 clock*/
      __HAL_RCC_I2C1_I3C1_CONFIG(PeriphClkInit->I2c1_I3c1ClockSelection);
70002ed6:	4b81      	ldr	r3, [pc, #516]	@ (700030dc <HAL_RCCEx_PeriphCLKConfig+0xe50>)
70002ed8:	6d1b      	ldr	r3, [r3, #80]	@ 0x50
70002eda:	f423 5240 	bic.w	r2, r3, #12288	@ 0x3000
70002ede:	687b      	ldr	r3, [r7, #4]
70002ee0:	6adb      	ldr	r3, [r3, #44]	@ 0x2c
70002ee2:	497e      	ldr	r1, [pc, #504]	@ (700030dc <HAL_RCCEx_PeriphCLKConfig+0xe50>)
70002ee4:	4313      	orrs	r3, r2
70002ee6:	650b      	str	r3, [r1, #80]	@ 0x50
70002ee8:	e001      	b.n	70002eee <HAL_RCCEx_PeriphCLKConfig+0xc62>
    }
    else
    {
      /* set overall return value */
      status = ret;
70002eea:	7dfb      	ldrb	r3, [r7, #23]
70002eec:	75bb      	strb	r3, [r7, #22]
    }
  }

  /*------------------------------ I2C2/I2C3 Configuration -------------------*/
  if ((PeriphClkInit->PeriphClockSelection & RCC_PERIPHCLK_I2C23) == RCC_PERIPHCLK_I2C23)
70002eee:	687b      	ldr	r3, [r7, #4]
70002ef0:	681b      	ldr	r3, [r3, #0]
70002ef2:	f403 6380 	and.w	r3, r3, #1024	@ 0x400
70002ef6:	2b00      	cmp	r3, #0
70002ef8:	d044      	beq.n	70002f84 <HAL_RCCEx_PeriphCLKConfig+0xcf8>
  {
    /* Check the parameters */
    assert_param(IS_RCC_I2C23CLKSOURCE(PeriphClkInit->I2c23ClockSelection));
70002efa:	687b      	ldr	r3, [r7, #4]
70002efc:	6b1b      	ldr	r3, [r3, #48]	@ 0x30
70002efe:	2b00      	cmp	r3, #0
70002f00:	d013      	beq.n	70002f2a <HAL_RCCEx_PeriphCLKConfig+0xc9e>
70002f02:	687b      	ldr	r3, [r7, #4]
70002f04:	6b1b      	ldr	r3, [r3, #48]	@ 0x30
70002f06:	f5b3 7f80 	cmp.w	r3, #256	@ 0x100
70002f0a:	d00e      	beq.n	70002f2a <HAL_RCCEx_PeriphCLKConfig+0xc9e>
70002f0c:	687b      	ldr	r3, [r7, #4]
70002f0e:	6b1b      	ldr	r3, [r3, #48]	@ 0x30
70002f10:	f5b3 7f00 	cmp.w	r3, #512	@ 0x200
70002f14:	d009      	beq.n	70002f2a <HAL_RCCEx_PeriphCLKConfig+0xc9e>
70002f16:	687b      	ldr	r3, [r7, #4]
70002f18:	6b1b      	ldr	r3, [r3, #48]	@ 0x30
70002f1a:	f5b3 7f40 	cmp.w	r3, #768	@ 0x300
70002f1e:	d004      	beq.n	70002f2a <HAL_RCCEx_PeriphCLKConfig+0xc9e>
70002f20:	f240 2137 	movw	r1, #567	@ 0x237
70002f24:	486c      	ldr	r0, [pc, #432]	@ (700030d8 <HAL_RCCEx_PeriphCLKConfig+0xe4c>)
70002f26:	f7fd fe69 	bl	70000bfc <assert_failed>

    switch (PeriphClkInit->I2c23ClockSelection)
70002f2a:	687b      	ldr	r3, [r7, #4]
70002f2c:	6b1b      	ldr	r3, [r3, #48]	@ 0x30
70002f2e:	f5b3 7f40 	cmp.w	r3, #768	@ 0x300
70002f32:	d017      	beq.n	70002f64 <HAL_RCCEx_PeriphCLKConfig+0xcd8>
70002f34:	f5b3 7f40 	cmp.w	r3, #768	@ 0x300
70002f38:	d811      	bhi.n	70002f5e <HAL_RCCEx_PeriphCLKConfig+0xcd2>
70002f3a:	f5b3 7f00 	cmp.w	r3, #512	@ 0x200
70002f3e:	d011      	beq.n	70002f64 <HAL_RCCEx_PeriphCLKConfig+0xcd8>
70002f40:	f5b3 7f00 	cmp.w	r3, #512	@ 0x200
70002f44:	d80b      	bhi.n	70002f5e <HAL_RCCEx_PeriphCLKConfig+0xcd2>
70002f46:	2b00      	cmp	r3, #0
70002f48:	d00c      	beq.n	70002f64 <HAL_RCCEx_PeriphCLKConfig+0xcd8>
70002f4a:	f5b3 7f80 	cmp.w	r3, #256	@ 0x100
70002f4e:	d106      	bne.n	70002f5e <HAL_RCCEx_PeriphCLKConfig+0xcd2>
    {
      case RCC_I2C23CLKSOURCE_PLL3R:   /* PLL3_R is used as clock source for I2C2/I2C3 */
        __HAL_RCC_PLL3CLKOUT_ENABLE(RCC_PLL_RCLK);
70002f50:	4b62      	ldr	r3, [pc, #392]	@ (700030dc <HAL_RCCEx_PeriphCLKConfig+0xe50>)
70002f52:	6adb      	ldr	r3, [r3, #44]	@ 0x2c
70002f54:	4a61      	ldr	r2, [pc, #388]	@ (700030dc <HAL_RCCEx_PeriphCLKConfig+0xe50>)
70002f56:	f043 5300 	orr.w	r3, r3, #536870912	@ 0x20000000
70002f5a:	62d3      	str	r3, [r2, #44]	@ 0x2c
        /* I2C2/I2C3 clock source configuration done later after clock selection check */
        break;
70002f5c:	e003      	b.n	70002f66 <HAL_RCCEx_PeriphCLKConfig+0xcda>
      case RCC_I2C23CLKSOURCE_CSI:     /* CSI is used as clock source for I2C2/I2C3 */
        /* I2C2/I2C3 clock source configuration done later after clock selection check */
        break;

      default:
        ret = HAL_ERROR;
70002f5e:	2301      	movs	r3, #1
70002f60:	75fb      	strb	r3, [r7, #23]
        break;
70002f62:	e000      	b.n	70002f66 <HAL_RCCEx_PeriphCLKConfig+0xcda>
        break;
70002f64:	bf00      	nop
    }

    if (ret == HAL_OK)
70002f66:	7dfb      	ldrb	r3, [r7, #23]
70002f68:	2b00      	cmp	r3, #0
70002f6a:	d109      	bne.n	70002f80 <HAL_RCCEx_PeriphCLKConfig+0xcf4>
    {
      /* Set the source of I2C2/I2C3 clock*/
      __HAL_RCC_I2C23_CONFIG(PeriphClkInit->I2c23ClockSelection);
70002f6c:	4b5b      	ldr	r3, [pc, #364]	@ (700030dc <HAL_RCCEx_PeriphCLKConfig+0xe50>)
70002f6e:	6d1b      	ldr	r3, [r3, #80]	@ 0x50
70002f70:	f423 7240 	bic.w	r2, r3, #768	@ 0x300
70002f74:	687b      	ldr	r3, [r7, #4]
70002f76:	6b1b      	ldr	r3, [r3, #48]	@ 0x30
70002f78:	4958      	ldr	r1, [pc, #352]	@ (700030dc <HAL_RCCEx_PeriphCLKConfig+0xe50>)
70002f7a:	4313      	orrs	r3, r2
70002f7c:	650b      	str	r3, [r1, #80]	@ 0x50
70002f7e:	e001      	b.n	70002f84 <HAL_RCCEx_PeriphCLKConfig+0xcf8>
    }
    else
    {
      /* set overall return value */
      status = ret;
70002f80:	7dfb      	ldrb	r3, [r7, #23]
70002f82:	75bb      	strb	r3, [r7, #22]
    }
  }

  /*---------------------------- LPTIM1 configuration -------------------------------*/
  if ((PeriphClkInit->PeriphClockSelection & RCC_PERIPHCLK_LPTIM1) == RCC_PERIPHCLK_LPTIM1)
70002f84:	687b      	ldr	r3, [r7, #4]
70002f86:	681b      	ldr	r3, [r3, #0]
70002f88:	f403 5380 	and.w	r3, r3, #4096	@ 0x1000
70002f8c:	2b00      	cmp	r3, #0
70002f8e:	d067      	beq.n	70003060 <HAL_RCCEx_PeriphCLKConfig+0xdd4>
  {
    /* Check the parameters */
    assert_param(IS_RCC_LPTIM1CLKSOURCE(PeriphClkInit->Lptim1ClockSelection));
70002f90:	687b      	ldr	r3, [r7, #4]
70002f92:	6b5b      	ldr	r3, [r3, #52]	@ 0x34
70002f94:	2b00      	cmp	r3, #0
70002f96:	d01d      	beq.n	70002fd4 <HAL_RCCEx_PeriphCLKConfig+0xd48>
70002f98:	687b      	ldr	r3, [r7, #4]
70002f9a:	6b5b      	ldr	r3, [r3, #52]	@ 0x34
70002f9c:	f5b3 3f80 	cmp.w	r3, #65536	@ 0x10000
70002fa0:	d018      	beq.n	70002fd4 <HAL_RCCEx_PeriphCLKConfig+0xd48>
70002fa2:	687b      	ldr	r3, [r7, #4]
70002fa4:	6b5b      	ldr	r3, [r3, #52]	@ 0x34
70002fa6:	f5b3 3f00 	cmp.w	r3, #131072	@ 0x20000
70002faa:	d013      	beq.n	70002fd4 <HAL_RCCEx_PeriphCLKConfig+0xd48>
70002fac:	687b      	ldr	r3, [r7, #4]
70002fae:	6b5b      	ldr	r3, [r3, #52]	@ 0x34
70002fb0:	f5b3 3f40 	cmp.w	r3, #196608	@ 0x30000
70002fb4:	d00e      	beq.n	70002fd4 <HAL_RCCEx_PeriphCLKConfig+0xd48>
70002fb6:	687b      	ldr	r3, [r7, #4]
70002fb8:	6b5b      	ldr	r3, [r3, #52]	@ 0x34
70002fba:	f5b3 2f80 	cmp.w	r3, #262144	@ 0x40000
70002fbe:	d009      	beq.n	70002fd4 <HAL_RCCEx_PeriphCLKConfig+0xd48>
70002fc0:	687b      	ldr	r3, [r7, #4]
70002fc2:	6b5b      	ldr	r3, [r3, #52]	@ 0x34
70002fc4:	f5b3 2fa0 	cmp.w	r3, #327680	@ 0x50000
70002fc8:	d004      	beq.n	70002fd4 <HAL_RCCEx_PeriphCLKConfig+0xd48>
70002fca:	f240 215b 	movw	r1, #603	@ 0x25b
70002fce:	4842      	ldr	r0, [pc, #264]	@ (700030d8 <HAL_RCCEx_PeriphCLKConfig+0xe4c>)
70002fd0:	f7fd fe14 	bl	70000bfc <assert_failed>

    switch (PeriphClkInit->Lptim1ClockSelection)
70002fd4:	687b      	ldr	r3, [r7, #4]
70002fd6:	6b5b      	ldr	r3, [r3, #52]	@ 0x34
70002fd8:	f5b3 2fa0 	cmp.w	r3, #327680	@ 0x50000
70002fdc:	d02a      	beq.n	70003034 <HAL_RCCEx_PeriphCLKConfig+0xda8>
70002fde:	f5b3 2fa0 	cmp.w	r3, #327680	@ 0x50000
70002fe2:	d824      	bhi.n	7000302e <HAL_RCCEx_PeriphCLKConfig+0xda2>
70002fe4:	f5b3 2f80 	cmp.w	r3, #262144	@ 0x40000
70002fe8:	d026      	beq.n	70003038 <HAL_RCCEx_PeriphCLKConfig+0xdac>
70002fea:	f5b3 2f80 	cmp.w	r3, #262144	@ 0x40000
70002fee:	d81e      	bhi.n	7000302e <HAL_RCCEx_PeriphCLKConfig+0xda2>
70002ff0:	f5b3 3f40 	cmp.w	r3, #196608	@ 0x30000
70002ff4:	d022      	beq.n	7000303c <HAL_RCCEx_PeriphCLKConfig+0xdb0>
70002ff6:	f5b3 3f40 	cmp.w	r3, #196608	@ 0x30000
70002ffa:	d818      	bhi.n	7000302e <HAL_RCCEx_PeriphCLKConfig+0xda2>
70002ffc:	f5b3 3f00 	cmp.w	r3, #131072	@ 0x20000
70003000:	d00e      	beq.n	70003020 <HAL_RCCEx_PeriphCLKConfig+0xd94>
70003002:	f5b3 3f00 	cmp.w	r3, #131072	@ 0x20000
70003006:	d812      	bhi.n	7000302e <HAL_RCCEx_PeriphCLKConfig+0xda2>
70003008:	2b00      	cmp	r3, #0
7000300a:	d019      	beq.n	70003040 <HAL_RCCEx_PeriphCLKConfig+0xdb4>
7000300c:	f5b3 3f80 	cmp.w	r3, #65536	@ 0x10000
70003010:	d10d      	bne.n	7000302e <HAL_RCCEx_PeriphCLKConfig+0xda2>
      case RCC_LPTIM1CLKSOURCE_PCLK1: /* PCLK1 as clock source for LPTIM1 */
        /* LPTIM1 clock source configuration done later after clock selection check */
        break;

      case RCC_LPTIM1CLKSOURCE_PLL2P: /* PLL2_P is used as clock source for LPTIM1 */
        __HAL_RCC_PLL2CLKOUT_ENABLE(RCC_PLL_PCLK);
70003012:	4b32      	ldr	r3, [pc, #200]	@ (700030dc <HAL_RCCEx_PeriphCLKConfig+0xe50>)
70003014:	6adb      	ldr	r3, [r3, #44]	@ 0x2c
70003016:	4a31      	ldr	r2, [pc, #196]	@ (700030dc <HAL_RCCEx_PeriphCLKConfig+0xe50>)
70003018:	f443 3380 	orr.w	r3, r3, #65536	@ 0x10000
7000301c:	62d3      	str	r3, [r2, #44]	@ 0x2c
        /* LPTIM1 clock source configuration done later after clock selection check */
        break;
7000301e:	e010      	b.n	70003042 <HAL_RCCEx_PeriphCLKConfig+0xdb6>

      case RCC_LPTIM1CLKSOURCE_PLL3R:  /* PLL3_R is used as clock source for LPTIM1 */
        __HAL_RCC_PLL3CLKOUT_ENABLE(RCC_PLL_RCLK);
70003020:	4b2e      	ldr	r3, [pc, #184]	@ (700030dc <HAL_RCCEx_PeriphCLKConfig+0xe50>)
70003022:	6adb      	ldr	r3, [r3, #44]	@ 0x2c
70003024:	4a2d      	ldr	r2, [pc, #180]	@ (700030dc <HAL_RCCEx_PeriphCLKConfig+0xe50>)
70003026:	f043 5300 	orr.w	r3, r3, #536870912	@ 0x20000000
7000302a:	62d3      	str	r3, [r2, #44]	@ 0x2c
        /* LPTIM1 clock source configuration done later after clock selection check */
        break;
7000302c:	e009      	b.n	70003042 <HAL_RCCEx_PeriphCLKConfig+0xdb6>
        /* HSI, HSE, or CSI oscillator is used as clock source for LPTIM1 */
        /* LPTIM1 clock source configuration done later after clock selection check */
        break;

      default:
        ret = HAL_ERROR;
7000302e:	2301      	movs	r3, #1
70003030:	75fb      	strb	r3, [r7, #23]
        break;
70003032:	e006      	b.n	70003042 <HAL_RCCEx_PeriphCLKConfig+0xdb6>
        break;
70003034:	bf00      	nop
70003036:	e004      	b.n	70003042 <HAL_RCCEx_PeriphCLKConfig+0xdb6>
        break;
70003038:	bf00      	nop
7000303a:	e002      	b.n	70003042 <HAL_RCCEx_PeriphCLKConfig+0xdb6>
        break;
7000303c:	bf00      	nop
7000303e:	e000      	b.n	70003042 <HAL_RCCEx_PeriphCLKConfig+0xdb6>
        break;
70003040:	bf00      	nop
    }

    if (ret == HAL_OK)
70003042:	7dfb      	ldrb	r3, [r7, #23]
70003044:	2b00      	cmp	r3, #0
70003046:	d109      	bne.n	7000305c <HAL_RCCEx_PeriphCLKConfig+0xdd0>
    {
      /* Set the source of LPTIM1 clock*/
      __HAL_RCC_LPTIM1_CONFIG(PeriphClkInit->Lptim1ClockSelection);
70003048:	4b24      	ldr	r3, [pc, #144]	@ (700030dc <HAL_RCCEx_PeriphCLKConfig+0xe50>)
7000304a:	6d1b      	ldr	r3, [r3, #80]	@ 0x50
7000304c:	f423 22e0 	bic.w	r2, r3, #458752	@ 0x70000
70003050:	687b      	ldr	r3, [r7, #4]
70003052:	6b5b      	ldr	r3, [r3, #52]	@ 0x34
70003054:	4921      	ldr	r1, [pc, #132]	@ (700030dc <HAL_RCCEx_PeriphCLKConfig+0xe50>)
70003056:	4313      	orrs	r3, r2
70003058:	650b      	str	r3, [r1, #80]	@ 0x50
7000305a:	e001      	b.n	70003060 <HAL_RCCEx_PeriphCLKConfig+0xdd4>
    }
    else
    {
      /* set overall return value */
      status = ret;
7000305c:	7dfb      	ldrb	r3, [r7, #23]
7000305e:	75bb      	strb	r3, [r7, #22]
    }
  }

  /*---------------------------- LPTIM2/LPTIM3 configuration -----------------*/
  if ((PeriphClkInit->PeriphClockSelection & RCC_PERIPHCLK_LPTIM23) == RCC_PERIPHCLK_LPTIM23)
70003060:	687b      	ldr	r3, [r7, #4]
70003062:	681b      	ldr	r3, [r3, #0]
70003064:	f403 5300 	and.w	r3, r3, #8192	@ 0x2000
70003068:	2b00      	cmp	r3, #0
7000306a:	d049      	beq.n	70003100 <HAL_RCCEx_PeriphCLKConfig+0xe74>
  {
    switch (PeriphClkInit->Lptim23ClockSelection)
7000306c:	687b      	ldr	r3, [r7, #4]
7000306e:	6b9b      	ldr	r3, [r3, #56]	@ 0x38
70003070:	f5b3 6fa0 	cmp.w	r3, #1280	@ 0x500
70003074:	d02a      	beq.n	700030cc <HAL_RCCEx_PeriphCLKConfig+0xe40>
70003076:	f5b3 6fa0 	cmp.w	r3, #1280	@ 0x500
7000307a:	d824      	bhi.n	700030c6 <HAL_RCCEx_PeriphCLKConfig+0xe3a>
7000307c:	f5b3 6f80 	cmp.w	r3, #1024	@ 0x400
70003080:	d026      	beq.n	700030d0 <HAL_RCCEx_PeriphCLKConfig+0xe44>
70003082:	f5b3 6f80 	cmp.w	r3, #1024	@ 0x400
70003086:	d81e      	bhi.n	700030c6 <HAL_RCCEx_PeriphCLKConfig+0xe3a>
70003088:	f5b3 7f40 	cmp.w	r3, #768	@ 0x300
7000308c:	d022      	beq.n	700030d4 <HAL_RCCEx_PeriphCLKConfig+0xe48>
7000308e:	f5b3 7f40 	cmp.w	r3, #768	@ 0x300
70003092:	d818      	bhi.n	700030c6 <HAL_RCCEx_PeriphCLKConfig+0xe3a>
70003094:	f5b3 7f00 	cmp.w	r3, #512	@ 0x200
70003098:	d00e      	beq.n	700030b8 <HAL_RCCEx_PeriphCLKConfig+0xe2c>
7000309a:	f5b3 7f00 	cmp.w	r3, #512	@ 0x200
7000309e:	d812      	bhi.n	700030c6 <HAL_RCCEx_PeriphCLKConfig+0xe3a>
700030a0:	2b00      	cmp	r3, #0
700030a2:	d01d      	beq.n	700030e0 <HAL_RCCEx_PeriphCLKConfig+0xe54>
700030a4:	f5b3 7f80 	cmp.w	r3, #256	@ 0x100
700030a8:	d10d      	bne.n	700030c6 <HAL_RCCEx_PeriphCLKConfig+0xe3a>
      case RCC_LPTIM23CLKSOURCE_PCLK4: /* PCLK4 as clock source for LPTIM2/LPTIM3 */
        /* LPTIM2/LPTIM3 clock source configuration done later after clock selection check */
        break;

      case RCC_LPTIM23CLKSOURCE_PLL2P: /* PLL2_P is used as clock source for LPTIM2/LPTIM3 */
        __HAL_RCC_PLL2CLKOUT_ENABLE(RCC_PLL_PCLK);
700030aa:	4b0c      	ldr	r3, [pc, #48]	@ (700030dc <HAL_RCCEx_PeriphCLKConfig+0xe50>)
700030ac:	6adb      	ldr	r3, [r3, #44]	@ 0x2c
700030ae:	4a0b      	ldr	r2, [pc, #44]	@ (700030dc <HAL_RCCEx_PeriphCLKConfig+0xe50>)
700030b0:	f443 3380 	orr.w	r3, r3, #65536	@ 0x10000
700030b4:	62d3      	str	r3, [r2, #44]	@ 0x2c
        /* LPTIM2/LPTIM3 clock source configuration done later after clock selection check */
        break;
700030b6:	e014      	b.n	700030e2 <HAL_RCCEx_PeriphCLKConfig+0xe56>

      case RCC_LPTIM23CLKSOURCE_PLL3R: /* PLL3_R is used as clock source for LPTIM2/LPTIM3 */
        __HAL_RCC_PLL3CLKOUT_ENABLE(RCC_PLL_RCLK);
700030b8:	4b08      	ldr	r3, [pc, #32]	@ (700030dc <HAL_RCCEx_PeriphCLKConfig+0xe50>)
700030ba:	6adb      	ldr	r3, [r3, #44]	@ 0x2c
700030bc:	4a07      	ldr	r2, [pc, #28]	@ (700030dc <HAL_RCCEx_PeriphCLKConfig+0xe50>)
700030be:	f043 5300 	orr.w	r3, r3, #536870912	@ 0x20000000
700030c2:	62d3      	str	r3, [r2, #44]	@ 0x2c
        /* LPTIM2/LPTIM3 clock source configuration done later after clock selection check */
        break;
700030c4:	e00d      	b.n	700030e2 <HAL_RCCEx_PeriphCLKConfig+0xe56>
        /* HSI, HSE, or CSI oscillator is used as source of LPTIM2 clock */
        /* LPTIM2/LPTIM3 clock source configuration done later after clock selection check */
        break;

      default:
        ret = HAL_ERROR;
700030c6:	2301      	movs	r3, #1
700030c8:	75fb      	strb	r3, [r7, #23]
        break;
700030ca:	e00a      	b.n	700030e2 <HAL_RCCEx_PeriphCLKConfig+0xe56>
        break;
700030cc:	bf00      	nop
700030ce:	e008      	b.n	700030e2 <HAL_RCCEx_PeriphCLKConfig+0xe56>
        break;
700030d0:	bf00      	nop
700030d2:	e006      	b.n	700030e2 <HAL_RCCEx_PeriphCLKConfig+0xe56>
        break;
700030d4:	bf00      	nop
700030d6:	e004      	b.n	700030e2 <HAL_RCCEx_PeriphCLKConfig+0xe56>
700030d8:	700068ec 	.word	0x700068ec
700030dc:	58024400 	.word	0x58024400
        break;
700030e0:	bf00      	nop
    }

    if (ret == HAL_OK)
700030e2:	7dfb      	ldrb	r3, [r7, #23]
700030e4:	2b00      	cmp	r3, #0
700030e6:	d109      	bne.n	700030fc <HAL_RCCEx_PeriphCLKConfig+0xe70>
    {
      /* Set the source of LPTIM2/LPTIM3 clock*/
      __HAL_RCC_LPTIM23_CONFIG(PeriphClkInit->Lptim23ClockSelection);
700030e8:	4b96      	ldr	r3, [pc, #600]	@ (70003344 <HAL_RCCEx_PeriphCLKConfig+0x10b8>)
700030ea:	6d9b      	ldr	r3, [r3, #88]	@ 0x58
700030ec:	f423 62e0 	bic.w	r2, r3, #1792	@ 0x700
700030f0:	687b      	ldr	r3, [r7, #4]
700030f2:	6b9b      	ldr	r3, [r3, #56]	@ 0x38
700030f4:	4993      	ldr	r1, [pc, #588]	@ (70003344 <HAL_RCCEx_PeriphCLKConfig+0x10b8>)
700030f6:	4313      	orrs	r3, r2
700030f8:	658b      	str	r3, [r1, #88]	@ 0x58
700030fa:	e001      	b.n	70003100 <HAL_RCCEx_PeriphCLKConfig+0xe74>
    }
    else
    {
      /* set overall return value */
      status = ret;
700030fc:	7dfb      	ldrb	r3, [r7, #23]
700030fe:	75bb      	strb	r3, [r7, #22]
    }
  }

  /*---------------------------- LPTIM4/LPTIM5 configuration -----------------*/
  if ((PeriphClkInit->PeriphClockSelection & RCC_PERIPHCLK_LPTIM45) == RCC_PERIPHCLK_LPTIM45)
70003100:	687b      	ldr	r3, [r7, #4]
70003102:	681b      	ldr	r3, [r3, #0]
70003104:	f403 4380 	and.w	r3, r3, #16384	@ 0x4000
70003108:	2b00      	cmp	r3, #0
7000310a:	d045      	beq.n	70003198 <HAL_RCCEx_PeriphCLKConfig+0xf0c>
  {
    switch (PeriphClkInit->Lptim45ClockSelection)
7000310c:	687b      	ldr	r3, [r7, #4]
7000310e:	6bdb      	ldr	r3, [r3, #60]	@ 0x3c
70003110:	f5b3 4fa0 	cmp.w	r3, #20480	@ 0x5000
70003114:	d02a      	beq.n	7000316c <HAL_RCCEx_PeriphCLKConfig+0xee0>
70003116:	f5b3 4fa0 	cmp.w	r3, #20480	@ 0x5000
7000311a:	d824      	bhi.n	70003166 <HAL_RCCEx_PeriphCLKConfig+0xeda>
7000311c:	f5b3 4f80 	cmp.w	r3, #16384	@ 0x4000
70003120:	d026      	beq.n	70003170 <HAL_RCCEx_PeriphCLKConfig+0xee4>
70003122:	f5b3 4f80 	cmp.w	r3, #16384	@ 0x4000
70003126:	d81e      	bhi.n	70003166 <HAL_RCCEx_PeriphCLKConfig+0xeda>
70003128:	f5b3 5f40 	cmp.w	r3, #12288	@ 0x3000
7000312c:	d022      	beq.n	70003174 <HAL_RCCEx_PeriphCLKConfig+0xee8>
7000312e:	f5b3 5f40 	cmp.w	r3, #12288	@ 0x3000
70003132:	d818      	bhi.n	70003166 <HAL_RCCEx_PeriphCLKConfig+0xeda>
70003134:	f5b3 5f00 	cmp.w	r3, #8192	@ 0x2000
70003138:	d00e      	beq.n	70003158 <HAL_RCCEx_PeriphCLKConfig+0xecc>
7000313a:	f5b3 5f00 	cmp.w	r3, #8192	@ 0x2000
7000313e:	d812      	bhi.n	70003166 <HAL_RCCEx_PeriphCLKConfig+0xeda>
70003140:	2b00      	cmp	r3, #0
70003142:	d019      	beq.n	70003178 <HAL_RCCEx_PeriphCLKConfig+0xeec>
70003144:	f5b3 5f80 	cmp.w	r3, #4096	@ 0x1000
70003148:	d10d      	bne.n	70003166 <HAL_RCCEx_PeriphCLKConfig+0xeda>
      case RCC_LPTIM45CLKSOURCE_PCLK4:  /* PCLK4 as clock source for LPTIM4/LPTIM5 */
        /* LPTIM4/LPTIM5 clock source configuration done later after clock selection check */
        break;

      case RCC_LPTIM45CLKSOURCE_PLL2P: /* PLL2 is used as clock source for LPTIM4/LPTIM5 */
        __HAL_RCC_PLL2CLKOUT_ENABLE(RCC_PLL_PCLK);
7000314a:	4b7e      	ldr	r3, [pc, #504]	@ (70003344 <HAL_RCCEx_PeriphCLKConfig+0x10b8>)
7000314c:	6adb      	ldr	r3, [r3, #44]	@ 0x2c
7000314e:	4a7d      	ldr	r2, [pc, #500]	@ (70003344 <HAL_RCCEx_PeriphCLKConfig+0x10b8>)
70003150:	f443 3380 	orr.w	r3, r3, #65536	@ 0x10000
70003154:	62d3      	str	r3, [r2, #44]	@ 0x2c
        /* LPTIM4/LPTIM5 clock source configuration done later after clock selection check */
        break;
70003156:	e010      	b.n	7000317a <HAL_RCCEx_PeriphCLKConfig+0xeee>

      case RCC_LPTIM45CLKSOURCE_PLL3R:  /* PLL3 is used as clock source for LPTIM4/LPTIM5 */
        __HAL_RCC_PLL3CLKOUT_ENABLE(RCC_PLL_RCLK);
70003158:	4b7a      	ldr	r3, [pc, #488]	@ (70003344 <HAL_RCCEx_PeriphCLKConfig+0x10b8>)
7000315a:	6adb      	ldr	r3, [r3, #44]	@ 0x2c
7000315c:	4a79      	ldr	r2, [pc, #484]	@ (70003344 <HAL_RCCEx_PeriphCLKConfig+0x10b8>)
7000315e:	f043 5300 	orr.w	r3, r3, #536870912	@ 0x20000000
70003162:	62d3      	str	r3, [r2, #44]	@ 0x2c
        /* LPTIM4/LPTIM5 clock source configuration done later after clock selection check */
        break;
70003164:	e009      	b.n	7000317a <HAL_RCCEx_PeriphCLKConfig+0xeee>
        /* HSI, HSE, or CSI oscillator is used as source of LPTIM4/LPTIM5 clock */
        /* LPTIM4/LPTIM5 clock source configuration done later after clock selection check */
        break;

      default:
        ret = HAL_ERROR;
70003166:	2301      	movs	r3, #1
70003168:	75fb      	strb	r3, [r7, #23]
        break;
7000316a:	e006      	b.n	7000317a <HAL_RCCEx_PeriphCLKConfig+0xeee>
        break;
7000316c:	bf00      	nop
7000316e:	e004      	b.n	7000317a <HAL_RCCEx_PeriphCLKConfig+0xeee>
        break;
70003170:	bf00      	nop
70003172:	e002      	b.n	7000317a <HAL_RCCEx_PeriphCLKConfig+0xeee>
        break;
70003174:	bf00      	nop
70003176:	e000      	b.n	7000317a <HAL_RCCEx_PeriphCLKConfig+0xeee>
        break;
70003178:	bf00      	nop
    }

    if (ret == HAL_OK)
7000317a:	7dfb      	ldrb	r3, [r7, #23]
7000317c:	2b00      	cmp	r3, #0
7000317e:	d109      	bne.n	70003194 <HAL_RCCEx_PeriphCLKConfig+0xf08>
    {
      /* Set the source of LPTIM4/LPTIM5 clock */
      __HAL_RCC_LPTIM45_CONFIG(PeriphClkInit->Lptim45ClockSelection);
70003180:	4b70      	ldr	r3, [pc, #448]	@ (70003344 <HAL_RCCEx_PeriphCLKConfig+0x10b8>)
70003182:	6d9b      	ldr	r3, [r3, #88]	@ 0x58
70003184:	f423 42e0 	bic.w	r2, r3, #28672	@ 0x7000
70003188:	687b      	ldr	r3, [r7, #4]
7000318a:	6bdb      	ldr	r3, [r3, #60]	@ 0x3c
7000318c:	496d      	ldr	r1, [pc, #436]	@ (70003344 <HAL_RCCEx_PeriphCLKConfig+0x10b8>)
7000318e:	4313      	orrs	r3, r2
70003190:	658b      	str	r3, [r1, #88]	@ 0x58
70003192:	e001      	b.n	70003198 <HAL_RCCEx_PeriphCLKConfig+0xf0c>
    }
    else
    {
      /* set overall return value */
      status = ret;
70003194:	7dfb      	ldrb	r3, [r7, #23]
70003196:	75bb      	strb	r3, [r7, #22]
    }
  }

  /*-------------------------- LPUART1 Configuration -------------------------*/
  if ((PeriphClkInit->PeriphClockSelection & RCC_PERIPHCLK_LPUART1) == RCC_PERIPHCLK_LPUART1)
70003198:	687b      	ldr	r3, [r7, #4]
7000319a:	681b      	ldr	r3, [r3, #0]
7000319c:	f403 4300 	and.w	r3, r3, #32768	@ 0x8000
700031a0:	2b00      	cmp	r3, #0
700031a2:	d050      	beq.n	70003246 <HAL_RCCEx_PeriphCLKConfig+0xfba>
  {
    /* Check the parameters */
    assert_param(IS_RCC_LPUART1CLKSOURCE(PeriphClkInit->Lpuart1ClockSelection));
700031a4:	687b      	ldr	r3, [r7, #4]
700031a6:	6c1b      	ldr	r3, [r3, #64]	@ 0x40
700031a8:	2b00      	cmp	r3, #0
700031aa:	d018      	beq.n	700031de <HAL_RCCEx_PeriphCLKConfig+0xf52>
700031ac:	687b      	ldr	r3, [r7, #4]
700031ae:	6c1b      	ldr	r3, [r3, #64]	@ 0x40
700031b0:	2b01      	cmp	r3, #1
700031b2:	d014      	beq.n	700031de <HAL_RCCEx_PeriphCLKConfig+0xf52>
700031b4:	687b      	ldr	r3, [r7, #4]
700031b6:	6c1b      	ldr	r3, [r3, #64]	@ 0x40
700031b8:	2b02      	cmp	r3, #2
700031ba:	d010      	beq.n	700031de <HAL_RCCEx_PeriphCLKConfig+0xf52>
700031bc:	687b      	ldr	r3, [r7, #4]
700031be:	6c1b      	ldr	r3, [r3, #64]	@ 0x40
700031c0:	2b03      	cmp	r3, #3
700031c2:	d00c      	beq.n	700031de <HAL_RCCEx_PeriphCLKConfig+0xf52>
700031c4:	687b      	ldr	r3, [r7, #4]
700031c6:	6c1b      	ldr	r3, [r3, #64]	@ 0x40
700031c8:	2b04      	cmp	r3, #4
700031ca:	d008      	beq.n	700031de <HAL_RCCEx_PeriphCLKConfig+0xf52>
700031cc:	687b      	ldr	r3, [r7, #4]
700031ce:	6c1b      	ldr	r3, [r3, #64]	@ 0x40
700031d0:	2b05      	cmp	r3, #5
700031d2:	d004      	beq.n	700031de <HAL_RCCEx_PeriphCLKConfig+0xf52>
700031d4:	f240 21f7 	movw	r1, #759	@ 0x2f7
700031d8:	485b      	ldr	r0, [pc, #364]	@ (70003348 <HAL_RCCEx_PeriphCLKConfig+0x10bc>)
700031da:	f7fd fd0f 	bl	70000bfc <assert_failed>

    switch (PeriphClkInit->Lpuart1ClockSelection)
700031de:	687b      	ldr	r3, [r7, #4]
700031e0:	6c1b      	ldr	r3, [r3, #64]	@ 0x40
700031e2:	2b05      	cmp	r3, #5
700031e4:	d81c      	bhi.n	70003220 <HAL_RCCEx_PeriphCLKConfig+0xf94>
700031e6:	a201      	add	r2, pc, #4	@ (adr r2, 700031ec <HAL_RCCEx_PeriphCLKConfig+0xf60>)
700031e8:	f852 f023 	ldr.w	pc, [r2, r3, lsl #2]
700031ec:	70003227 	.word	0x70003227
700031f0:	70003205 	.word	0x70003205
700031f4:	70003213 	.word	0x70003213
700031f8:	70003227 	.word	0x70003227
700031fc:	70003227 	.word	0x70003227
70003200:	70003227 	.word	0x70003227
      case RCC_LPUART1CLKSOURCE_PCLK4: /* PCLK4 selected as clock source for LPUART1 */
        /* LPUART1 clock source configuration done later after clock selection check */
        break;

      case RCC_LPUART1CLKSOURCE_PLL2Q: /* PLL2_Q is used as clock source for LPUART1 */
        __HAL_RCC_PLL2CLKOUT_ENABLE(RCC_PLL_QCLK);
70003204:	4b4f      	ldr	r3, [pc, #316]	@ (70003344 <HAL_RCCEx_PeriphCLKConfig+0x10b8>)
70003206:	6adb      	ldr	r3, [r3, #44]	@ 0x2c
70003208:	4a4e      	ldr	r2, [pc, #312]	@ (70003344 <HAL_RCCEx_PeriphCLKConfig+0x10b8>)
7000320a:	f443 3300 	orr.w	r3, r3, #131072	@ 0x20000
7000320e:	62d3      	str	r3, [r2, #44]	@ 0x2c
        /* LPUART1 clock source configuration done later after clock selection check */
        break;
70003210:	e00a      	b.n	70003228 <HAL_RCCEx_PeriphCLKConfig+0xf9c>

      case RCC_LPUART1CLKSOURCE_PLL3Q: /* PLL3_Q is used as clock source for LPUART1 */
        __HAL_RCC_PLL3CLKOUT_ENABLE(RCC_PLL_QCLK);
70003212:	4b4c      	ldr	r3, [pc, #304]	@ (70003344 <HAL_RCCEx_PeriphCLKConfig+0x10b8>)
70003214:	6adb      	ldr	r3, [r3, #44]	@ 0x2c
70003216:	4a4b      	ldr	r2, [pc, #300]	@ (70003344 <HAL_RCCEx_PeriphCLKConfig+0x10b8>)
70003218:	f043 5380 	orr.w	r3, r3, #268435456	@ 0x10000000
7000321c:	62d3      	str	r3, [r2, #44]	@ 0x2c
        /* LPUART1 clock source configuration done later after clock selection check */
        break;
7000321e:	e003      	b.n	70003228 <HAL_RCCEx_PeriphCLKConfig+0xf9c>
        /* LSE,  oscillator is used as source of LPUART1 clock */
        /* LPUART1 clock source configuration done later after clock selection check */
        break;

      default:
        ret = HAL_ERROR;
70003220:	2301      	movs	r3, #1
70003222:	75fb      	strb	r3, [r7, #23]
        break;
70003224:	e000      	b.n	70003228 <HAL_RCCEx_PeriphCLKConfig+0xf9c>
        break;
70003226:	bf00      	nop
    }

    if (ret == HAL_OK)
70003228:	7dfb      	ldrb	r3, [r7, #23]
7000322a:	2b00      	cmp	r3, #0
7000322c:	d109      	bne.n	70003242 <HAL_RCCEx_PeriphCLKConfig+0xfb6>
    {
      /* Set the source of LPUART1 clock */
      __HAL_RCC_LPUART1_CONFIG(PeriphClkInit->Lpuart1ClockSelection);
7000322e:	4b45      	ldr	r3, [pc, #276]	@ (70003344 <HAL_RCCEx_PeriphCLKConfig+0x10b8>)
70003230:	6d9b      	ldr	r3, [r3, #88]	@ 0x58
70003232:	f023 0207 	bic.w	r2, r3, #7
70003236:	687b      	ldr	r3, [r7, #4]
70003238:	6c1b      	ldr	r3, [r3, #64]	@ 0x40
7000323a:	4942      	ldr	r1, [pc, #264]	@ (70003344 <HAL_RCCEx_PeriphCLKConfig+0x10b8>)
7000323c:	4313      	orrs	r3, r2
7000323e:	658b      	str	r3, [r1, #88]	@ 0x58
70003240:	e001      	b.n	70003246 <HAL_RCCEx_PeriphCLKConfig+0xfba>
    }
    else
    {
      /* set overall return value */
      status = ret;
70003242:	7dfb      	ldrb	r3, [r7, #23]
70003244:	75bb      	strb	r3, [r7, #22]
    }
  }

  /*-------------------------- LTDC Configuration ----------------------------*/
  if ((PeriphClkInit->PeriphClockSelection & RCC_PERIPHCLK_LTDC) == RCC_PERIPHCLK_LTDC)
70003246:	687b      	ldr	r3, [r7, #4]
70003248:	681b      	ldr	r3, [r3, #0]
7000324a:	f403 3380 	and.w	r3, r3, #65536	@ 0x10000
7000324e:	2b00      	cmp	r3, #0
70003250:	d005      	beq.n	7000325e <HAL_RCCEx_PeriphCLKConfig+0xfd2>
  {
    /* LTDC internally connected to PLL3_R output clock */
    __HAL_RCC_PLL3CLKOUT_ENABLE(RCC_PLL_RCLK);
70003252:	4b3c      	ldr	r3, [pc, #240]	@ (70003344 <HAL_RCCEx_PeriphCLKConfig+0x10b8>)
70003254:	6adb      	ldr	r3, [r3, #44]	@ 0x2c
70003256:	4a3b      	ldr	r2, [pc, #236]	@ (70003344 <HAL_RCCEx_PeriphCLKConfig+0x10b8>)
70003258:	f043 5300 	orr.w	r3, r3, #536870912	@ 0x20000000
7000325c:	62d3      	str	r3, [r2, #44]	@ 0x2c
  }

  /*---------------------------- PSSI configuration --------------------------*/
  if ((PeriphClkInit->PeriphClockSelection & RCC_PERIPHCLK_PSSI) == RCC_PERIPHCLK_PSSI)
7000325e:	687b      	ldr	r3, [r7, #4]
70003260:	681b      	ldr	r3, [r3, #0]
70003262:	f403 3300 	and.w	r3, r3, #131072	@ 0x20000
70003266:	2b00      	cmp	r3, #0
70003268:	d02f      	beq.n	700032ca <HAL_RCCEx_PeriphCLKConfig+0x103e>
  {
    /* Check the parameters */
    assert_param(IS_RCC_PSSICLKSOURCE(PeriphClkInit->PssiClockSelection));
7000326a:	687b      	ldr	r3, [r7, #4]
7000326c:	6c9b      	ldr	r3, [r3, #72]	@ 0x48
7000326e:	2b00      	cmp	r3, #0
70003270:	d009      	beq.n	70003286 <HAL_RCCEx_PeriphCLKConfig+0xffa>
70003272:	687b      	ldr	r3, [r7, #4]
70003274:	6c9b      	ldr	r3, [r3, #72]	@ 0x48
70003276:	f1b3 6f00 	cmp.w	r3, #134217728	@ 0x8000000
7000327a:	d004      	beq.n	70003286 <HAL_RCCEx_PeriphCLKConfig+0xffa>
7000327c:	f44f 714d 	mov.w	r1, #820	@ 0x334
70003280:	4831      	ldr	r0, [pc, #196]	@ (70003348 <HAL_RCCEx_PeriphCLKConfig+0x10bc>)
70003282:	f7fd fcbb 	bl	70000bfc <assert_failed>

    switch (PeriphClkInit->PssiClockSelection)
70003286:	687b      	ldr	r3, [r7, #4]
70003288:	6c9b      	ldr	r3, [r3, #72]	@ 0x48
7000328a:	2b00      	cmp	r3, #0
7000328c:	d003      	beq.n	70003296 <HAL_RCCEx_PeriphCLKConfig+0x100a>
7000328e:	f1b3 6f00 	cmp.w	r3, #134217728	@ 0x8000000
70003292:	d00a      	beq.n	700032aa <HAL_RCCEx_PeriphCLKConfig+0x101e>
70003294:	e006      	b.n	700032a4 <HAL_RCCEx_PeriphCLKConfig+0x1018>
    {
      case RCC_PSSICLKSOURCE_PLL3R:  /* PLL3_R is used as clock source for PSSI */
        __HAL_RCC_PLL3CLKOUT_ENABLE(RCC_PLL_RCLK);
70003296:	4b2b      	ldr	r3, [pc, #172]	@ (70003344 <HAL_RCCEx_PeriphCLKConfig+0x10b8>)
70003298:	6adb      	ldr	r3, [r3, #44]	@ 0x2c
7000329a:	4a2a      	ldr	r2, [pc, #168]	@ (70003344 <HAL_RCCEx_PeriphCLKConfig+0x10b8>)
7000329c:	f043 5300 	orr.w	r3, r3, #536870912	@ 0x20000000
700032a0:	62d3      	str	r3, [r2, #44]	@ 0x2c
        /* PSSI clock source configuration done later after clock selection check */
        break;
700032a2:	e003      	b.n	700032ac <HAL_RCCEx_PeriphCLKConfig+0x1020>
        /* HSI, HSE, or CSI oscillator is used as source of PSSI clock */
        /* PSSI clock source configuration done later after clock selection check */
        break;

      default:
        ret = HAL_ERROR;
700032a4:	2301      	movs	r3, #1
700032a6:	75fb      	strb	r3, [r7, #23]
        break;
700032a8:	e000      	b.n	700032ac <HAL_RCCEx_PeriphCLKConfig+0x1020>
        break;
700032aa:	bf00      	nop
    }

    if (ret == HAL_OK)
700032ac:	7dfb      	ldrb	r3, [r7, #23]
700032ae:	2b00      	cmp	r3, #0
700032b0:	d109      	bne.n	700032c6 <HAL_RCCEx_PeriphCLKConfig+0x103a>
    {
      /* Set the source of PSSI clock*/
      __HAL_RCC_PSSI_CONFIG(PeriphClkInit->PssiClockSelection);
700032b2:	4b24      	ldr	r3, [pc, #144]	@ (70003344 <HAL_RCCEx_PeriphCLKConfig+0x10b8>)
700032b4:	6cdb      	ldr	r3, [r3, #76]	@ 0x4c
700032b6:	f023 6200 	bic.w	r2, r3, #134217728	@ 0x8000000
700032ba:	687b      	ldr	r3, [r7, #4]
700032bc:	6c9b      	ldr	r3, [r3, #72]	@ 0x48
700032be:	4921      	ldr	r1, [pc, #132]	@ (70003344 <HAL_RCCEx_PeriphCLKConfig+0x10b8>)
700032c0:	4313      	orrs	r3, r2
700032c2:	64cb      	str	r3, [r1, #76]	@ 0x4c
700032c4:	e001      	b.n	700032ca <HAL_RCCEx_PeriphCLKConfig+0x103e>
    }
    else
    {
      /* set overall return value */
      status = ret;
700032c6:	7dfb      	ldrb	r3, [r7, #23]
700032c8:	75bb      	strb	r3, [r7, #22]
    }
  }

  /*---------------------------- SAI1 configuration --------------------------*/
  if ((PeriphClkInit->PeriphClockSelection & RCC_PERIPHCLK_SAI1) == RCC_PERIPHCLK_SAI1)
700032ca:	687b      	ldr	r3, [r7, #4]
700032cc:	681b      	ldr	r3, [r3, #0]
700032ce:	f403 2300 	and.w	r3, r3, #524288	@ 0x80000
700032d2:	2b00      	cmp	r3, #0
700032d4:	d064      	beq.n	700033a0 <HAL_RCCEx_PeriphCLKConfig+0x1114>
  {
    /* Check the parameters */
    assert_param(IS_RCC_SAI1CLKSOURCE(PeriphClkInit->Sai1ClockSelection));
700032d6:	687b      	ldr	r3, [r7, #4]
700032d8:	6cdb      	ldr	r3, [r3, #76]	@ 0x4c
700032da:	2b00      	cmp	r3, #0
700032dc:	d018      	beq.n	70003310 <HAL_RCCEx_PeriphCLKConfig+0x1084>
700032de:	687b      	ldr	r3, [r7, #4]
700032e0:	6cdb      	ldr	r3, [r3, #76]	@ 0x4c
700032e2:	f5b3 3f80 	cmp.w	r3, #65536	@ 0x10000
700032e6:	d013      	beq.n	70003310 <HAL_RCCEx_PeriphCLKConfig+0x1084>
700032e8:	687b      	ldr	r3, [r7, #4]
700032ea:	6cdb      	ldr	r3, [r3, #76]	@ 0x4c
700032ec:	f5b3 3f00 	cmp.w	r3, #131072	@ 0x20000
700032f0:	d00e      	beq.n	70003310 <HAL_RCCEx_PeriphCLKConfig+0x1084>
700032f2:	687b      	ldr	r3, [r7, #4]
700032f4:	6cdb      	ldr	r3, [r3, #76]	@ 0x4c
700032f6:	f5b3 2f80 	cmp.w	r3, #262144	@ 0x40000
700032fa:	d009      	beq.n	70003310 <HAL_RCCEx_PeriphCLKConfig+0x1084>
700032fc:	687b      	ldr	r3, [r7, #4]
700032fe:	6cdb      	ldr	r3, [r3, #76]	@ 0x4c
70003300:	f5b3 3f40 	cmp.w	r3, #196608	@ 0x30000
70003304:	d004      	beq.n	70003310 <HAL_RCCEx_PeriphCLKConfig+0x1084>
70003306:	f240 3157 	movw	r1, #855	@ 0x357
7000330a:	480f      	ldr	r0, [pc, #60]	@ (70003348 <HAL_RCCEx_PeriphCLKConfig+0x10bc>)
7000330c:	f7fd fc76 	bl	70000bfc <assert_failed>

    switch (PeriphClkInit->Sai1ClockSelection)
70003310:	687b      	ldr	r3, [r7, #4]
70003312:	6cdb      	ldr	r3, [r3, #76]	@ 0x4c
70003314:	f5b3 2f80 	cmp.w	r3, #262144	@ 0x40000
70003318:	d030      	beq.n	7000337c <HAL_RCCEx_PeriphCLKConfig+0x10f0>
7000331a:	f5b3 2f80 	cmp.w	r3, #262144	@ 0x40000
7000331e:	d82a      	bhi.n	70003376 <HAL_RCCEx_PeriphCLKConfig+0x10ea>
70003320:	f5b3 3f40 	cmp.w	r3, #196608	@ 0x30000
70003324:	d02c      	beq.n	70003380 <HAL_RCCEx_PeriphCLKConfig+0x10f4>
70003326:	f5b3 3f40 	cmp.w	r3, #196608	@ 0x30000
7000332a:	d824      	bhi.n	70003376 <HAL_RCCEx_PeriphCLKConfig+0x10ea>
7000332c:	f5b3 3f00 	cmp.w	r3, #131072	@ 0x20000
70003330:	d01a      	beq.n	70003368 <HAL_RCCEx_PeriphCLKConfig+0x10dc>
70003332:	f5b3 3f00 	cmp.w	r3, #131072	@ 0x20000
70003336:	d81e      	bhi.n	70003376 <HAL_RCCEx_PeriphCLKConfig+0x10ea>
70003338:	2b00      	cmp	r3, #0
7000333a:	d007      	beq.n	7000334c <HAL_RCCEx_PeriphCLKConfig+0x10c0>
7000333c:	f5b3 3f80 	cmp.w	r3, #65536	@ 0x10000
70003340:	d00b      	beq.n	7000335a <HAL_RCCEx_PeriphCLKConfig+0x10ce>
70003342:	e018      	b.n	70003376 <HAL_RCCEx_PeriphCLKConfig+0x10ea>
70003344:	58024400 	.word	0x58024400
70003348:	700068ec 	.word	0x700068ec
    {
      case RCC_SAI1CLKSOURCE_PLL1Q:  /* PLL1_Q is used as clock source for SAI1 */
        /* Enable SAI Clock output generated form System PLL . */
        __HAL_RCC_PLL1CLKOUT_ENABLE(RCC_PLL_QCLK);
7000334c:	4b7a      	ldr	r3, [pc, #488]	@ (70003538 <HAL_RCCEx_PeriphCLKConfig+0x12ac>)
7000334e:	6adb      	ldr	r3, [r3, #44]	@ 0x2c
70003350:	4a79      	ldr	r2, [pc, #484]	@ (70003538 <HAL_RCCEx_PeriphCLKConfig+0x12ac>)
70003352:	f043 0340 	orr.w	r3, r3, #64	@ 0x40
70003356:	62d3      	str	r3, [r2, #44]	@ 0x2c
        /* SAI1 clock source configuration done later after clock selection check */
        break;
70003358:	e013      	b.n	70003382 <HAL_RCCEx_PeriphCLKConfig+0x10f6>

      case RCC_SAI1CLKSOURCE_PLL2P:  /* PLL2_P is used as clock source for SAI1 */
        __HAL_RCC_PLL2CLKOUT_ENABLE(RCC_PLL_PCLK);
7000335a:	4b77      	ldr	r3, [pc, #476]	@ (70003538 <HAL_RCCEx_PeriphCLKConfig+0x12ac>)
7000335c:	6adb      	ldr	r3, [r3, #44]	@ 0x2c
7000335e:	4a76      	ldr	r2, [pc, #472]	@ (70003538 <HAL_RCCEx_PeriphCLKConfig+0x12ac>)
70003360:	f443 3380 	orr.w	r3, r3, #65536	@ 0x10000
70003364:	62d3      	str	r3, [r2, #44]	@ 0x2c
        /* SAI1 clock source configuration done later after clock selection check */
        break;
70003366:	e00c      	b.n	70003382 <HAL_RCCEx_PeriphCLKConfig+0x10f6>

      case RCC_SAI1CLKSOURCE_PLL3P:  /* PLL3_P is used as clock source for SAI1 */
        __HAL_RCC_PLL3CLKOUT_ENABLE(RCC_PLL_PCLK);
70003368:	4b73      	ldr	r3, [pc, #460]	@ (70003538 <HAL_RCCEx_PeriphCLKConfig+0x12ac>)
7000336a:	6adb      	ldr	r3, [r3, #44]	@ 0x2c
7000336c:	4a72      	ldr	r2, [pc, #456]	@ (70003538 <HAL_RCCEx_PeriphCLKConfig+0x12ac>)
7000336e:	f043 6300 	orr.w	r3, r3, #134217728	@ 0x8000000
70003372:	62d3      	str	r3, [r2, #44]	@ 0x2c
        /* SAI1 clock source configuration done later after clock selection check */
        break;
70003374:	e005      	b.n	70003382 <HAL_RCCEx_PeriphCLKConfig+0x10f6>
        /* HSI, HSE, or CSI oscillator is used as source of SAI1 clock */
        /* SAI1 clock source configuration done later after clock selection check */
        break;

      default:
        ret = HAL_ERROR;
70003376:	2301      	movs	r3, #1
70003378:	75fb      	strb	r3, [r7, #23]
        break;
7000337a:	e002      	b.n	70003382 <HAL_RCCEx_PeriphCLKConfig+0x10f6>
        break;
7000337c:	bf00      	nop
7000337e:	e000      	b.n	70003382 <HAL_RCCEx_PeriphCLKConfig+0x10f6>
        break;
70003380:	bf00      	nop
    }

    if (ret == HAL_OK)
70003382:	7dfb      	ldrb	r3, [r7, #23]
70003384:	2b00      	cmp	r3, #0
70003386:	d109      	bne.n	7000339c <HAL_RCCEx_PeriphCLKConfig+0x1110>
    {
      /* Set the source of SAI1 clock*/
      __HAL_RCC_SAI1_CONFIG(PeriphClkInit->Sai1ClockSelection);
70003388:	4b6b      	ldr	r3, [pc, #428]	@ (70003538 <HAL_RCCEx_PeriphCLKConfig+0x12ac>)
7000338a:	6d5b      	ldr	r3, [r3, #84]	@ 0x54
7000338c:	f423 22e0 	bic.w	r2, r3, #458752	@ 0x70000
70003390:	687b      	ldr	r3, [r7, #4]
70003392:	6cdb      	ldr	r3, [r3, #76]	@ 0x4c
70003394:	4968      	ldr	r1, [pc, #416]	@ (70003538 <HAL_RCCEx_PeriphCLKConfig+0x12ac>)
70003396:	4313      	orrs	r3, r2
70003398:	654b      	str	r3, [r1, #84]	@ 0x54
7000339a:	e001      	b.n	700033a0 <HAL_RCCEx_PeriphCLKConfig+0x1114>
    }
    else
    {
      /* set overall return value */
      status = ret;
7000339c:	7dfb      	ldrb	r3, [r7, #23]
7000339e:	75bb      	strb	r3, [r7, #22]
    }
  }

  /*---------------------------- SAI2 configuration --------------------------*/
  if ((PeriphClkInit->PeriphClockSelection & RCC_PERIPHCLK_SAI2) == RCC_PERIPHCLK_SAI2)
700033a0:	687b      	ldr	r3, [r7, #4]
700033a2:	681b      	ldr	r3, [r3, #0]
700033a4:	f403 1380 	and.w	r3, r3, #1048576	@ 0x100000
700033a8:	2b00      	cmp	r3, #0
700033aa:	d06d      	beq.n	70003488 <HAL_RCCEx_PeriphCLKConfig+0x11fc>
  {
    /* Check the parameters */
    assert_param(IS_RCC_SAI2CLKSOURCE(PeriphClkInit->Sai2ClockSelection));
700033ac:	687b      	ldr	r3, [r7, #4]
700033ae:	6d1b      	ldr	r3, [r3, #80]	@ 0x50
700033b0:	2b00      	cmp	r3, #0
700033b2:	d01d      	beq.n	700033f0 <HAL_RCCEx_PeriphCLKConfig+0x1164>
700033b4:	687b      	ldr	r3, [r7, #4]
700033b6:	6d1b      	ldr	r3, [r3, #80]	@ 0x50
700033b8:	f5b3 1f80 	cmp.w	r3, #1048576	@ 0x100000
700033bc:	d018      	beq.n	700033f0 <HAL_RCCEx_PeriphCLKConfig+0x1164>
700033be:	687b      	ldr	r3, [r7, #4]
700033c0:	6d1b      	ldr	r3, [r3, #80]	@ 0x50
700033c2:	f5b3 1f00 	cmp.w	r3, #2097152	@ 0x200000
700033c6:	d013      	beq.n	700033f0 <HAL_RCCEx_PeriphCLKConfig+0x1164>
700033c8:	687b      	ldr	r3, [r7, #4]
700033ca:	6d1b      	ldr	r3, [r3, #80]	@ 0x50
700033cc:	f5b3 0f80 	cmp.w	r3, #4194304	@ 0x400000
700033d0:	d00e      	beq.n	700033f0 <HAL_RCCEx_PeriphCLKConfig+0x1164>
700033d2:	687b      	ldr	r3, [r7, #4]
700033d4:	6d1b      	ldr	r3, [r3, #80]	@ 0x50
700033d6:	f5b3 1f40 	cmp.w	r3, #3145728	@ 0x300000
700033da:	d009      	beq.n	700033f0 <HAL_RCCEx_PeriphCLKConfig+0x1164>
700033dc:	687b      	ldr	r3, [r7, #4]
700033de:	6d1b      	ldr	r3, [r3, #80]	@ 0x50
700033e0:	f5b3 0fa0 	cmp.w	r3, #5242880	@ 0x500000
700033e4:	d004      	beq.n	700033f0 <HAL_RCCEx_PeriphCLKConfig+0x1164>
700033e6:	f240 3189 	movw	r1, #905	@ 0x389
700033ea:	4854      	ldr	r0, [pc, #336]	@ (7000353c <HAL_RCCEx_PeriphCLKConfig+0x12b0>)
700033ec:	f7fd fc06 	bl	70000bfc <assert_failed>

    switch (PeriphClkInit->Sai2ClockSelection)
700033f0:	687b      	ldr	r3, [r7, #4]
700033f2:	6d1b      	ldr	r3, [r3, #80]	@ 0x50
700033f4:	f5b3 0fa0 	cmp.w	r3, #5242880	@ 0x500000
700033f8:	d032      	beq.n	70003460 <HAL_RCCEx_PeriphCLKConfig+0x11d4>
700033fa:	f5b3 0fa0 	cmp.w	r3, #5242880	@ 0x500000
700033fe:	d82c      	bhi.n	7000345a <HAL_RCCEx_PeriphCLKConfig+0x11ce>
70003400:	f5b3 0f80 	cmp.w	r3, #4194304	@ 0x400000
70003404:	d02e      	beq.n	70003464 <HAL_RCCEx_PeriphCLKConfig+0x11d8>
70003406:	f5b3 0f80 	cmp.w	r3, #4194304	@ 0x400000
7000340a:	d826      	bhi.n	7000345a <HAL_RCCEx_PeriphCLKConfig+0x11ce>
7000340c:	f5b3 1f40 	cmp.w	r3, #3145728	@ 0x300000
70003410:	d02a      	beq.n	70003468 <HAL_RCCEx_PeriphCLKConfig+0x11dc>
70003412:	f5b3 1f40 	cmp.w	r3, #3145728	@ 0x300000
70003416:	d820      	bhi.n	7000345a <HAL_RCCEx_PeriphCLKConfig+0x11ce>
70003418:	f5b3 1f00 	cmp.w	r3, #2097152	@ 0x200000
7000341c:	d016      	beq.n	7000344c <HAL_RCCEx_PeriphCLKConfig+0x11c0>
7000341e:	f5b3 1f00 	cmp.w	r3, #2097152	@ 0x200000
70003422:	d81a      	bhi.n	7000345a <HAL_RCCEx_PeriphCLKConfig+0x11ce>
70003424:	2b00      	cmp	r3, #0
70003426:	d003      	beq.n	70003430 <HAL_RCCEx_PeriphCLKConfig+0x11a4>
70003428:	f5b3 1f80 	cmp.w	r3, #1048576	@ 0x100000
7000342c:	d007      	beq.n	7000343e <HAL_RCCEx_PeriphCLKConfig+0x11b2>
7000342e:	e014      	b.n	7000345a <HAL_RCCEx_PeriphCLKConfig+0x11ce>
    {
      case RCC_SAI2CLKSOURCE_PLL1Q:  /* PLL1_Q is used as clock source for SAI2 */
        /* Enable SAI Clock output generated form System PLL . */
        __HAL_RCC_PLL1CLKOUT_ENABLE(RCC_PLL_QCLK);
70003430:	4b41      	ldr	r3, [pc, #260]	@ (70003538 <HAL_RCCEx_PeriphCLKConfig+0x12ac>)
70003432:	6adb      	ldr	r3, [r3, #44]	@ 0x2c
70003434:	4a40      	ldr	r2, [pc, #256]	@ (70003538 <HAL_RCCEx_PeriphCLKConfig+0x12ac>)
70003436:	f043 0340 	orr.w	r3, r3, #64	@ 0x40
7000343a:	62d3      	str	r3, [r2, #44]	@ 0x2c
        /* SAI2 clock source configuration done later after clock selection check */
        break;
7000343c:	e015      	b.n	7000346a <HAL_RCCEx_PeriphCLKConfig+0x11de>

      case RCC_SAI2CLKSOURCE_PLL2P:  /* PLL2_P is used as clock source for SAI2 */
        __HAL_RCC_PLL2CLKOUT_ENABLE(RCC_PLL_PCLK);
7000343e:	4b3e      	ldr	r3, [pc, #248]	@ (70003538 <HAL_RCCEx_PeriphCLKConfig+0x12ac>)
70003440:	6adb      	ldr	r3, [r3, #44]	@ 0x2c
70003442:	4a3d      	ldr	r2, [pc, #244]	@ (70003538 <HAL_RCCEx_PeriphCLKConfig+0x12ac>)
70003444:	f443 3380 	orr.w	r3, r3, #65536	@ 0x10000
70003448:	62d3      	str	r3, [r2, #44]	@ 0x2c
        /* SAI2 clock source configuration done later after clock selection check */
        break;
7000344a:	e00e      	b.n	7000346a <HAL_RCCEx_PeriphCLKConfig+0x11de>

      case RCC_SAI2CLKSOURCE_PLL3P:  /* PLL3_P is used as clock source for SAI2 */
        __HAL_RCC_PLL3CLKOUT_ENABLE(RCC_PLL_PCLK);
7000344c:	4b3a      	ldr	r3, [pc, #232]	@ (70003538 <HAL_RCCEx_PeriphCLKConfig+0x12ac>)
7000344e:	6adb      	ldr	r3, [r3, #44]	@ 0x2c
70003450:	4a39      	ldr	r2, [pc, #228]	@ (70003538 <HAL_RCCEx_PeriphCLKConfig+0x12ac>)
70003452:	f043 6300 	orr.w	r3, r3, #134217728	@ 0x8000000
70003456:	62d3      	str	r3, [r2, #44]	@ 0x2c
        /* SAI2 clock source configuration done later after clock selection check */
        break;
70003458:	e007      	b.n	7000346a <HAL_RCCEx_PeriphCLKConfig+0x11de>
      case RCC_SAI2CLKSOURCE_SPDIF: /* SPDIF clock is used as source of SAI2 clock */
        /* SAI2 clock source configuration done later after clock selection check */
        break;

      default:
        ret = HAL_ERROR;
7000345a:	2301      	movs	r3, #1
7000345c:	75fb      	strb	r3, [r7, #23]
        break;
7000345e:	e004      	b.n	7000346a <HAL_RCCEx_PeriphCLKConfig+0x11de>
        break;
70003460:	bf00      	nop
70003462:	e002      	b.n	7000346a <HAL_RCCEx_PeriphCLKConfig+0x11de>
        break;
70003464:	bf00      	nop
70003466:	e000      	b.n	7000346a <HAL_RCCEx_PeriphCLKConfig+0x11de>
        break;
70003468:	bf00      	nop
    }

    if (ret == HAL_OK)
7000346a:	7dfb      	ldrb	r3, [r7, #23]
7000346c:	2b00      	cmp	r3, #0
7000346e:	d109      	bne.n	70003484 <HAL_RCCEx_PeriphCLKConfig+0x11f8>
    {
      /* Set the source of SAI2 clock*/
      __HAL_RCC_SAI2_CONFIG(PeriphClkInit->Sai2ClockSelection);
70003470:	4b31      	ldr	r3, [pc, #196]	@ (70003538 <HAL_RCCEx_PeriphCLKConfig+0x12ac>)
70003472:	6d5b      	ldr	r3, [r3, #84]	@ 0x54
70003474:	f423 02e0 	bic.w	r2, r3, #7340032	@ 0x700000
70003478:	687b      	ldr	r3, [r7, #4]
7000347a:	6d1b      	ldr	r3, [r3, #80]	@ 0x50
7000347c:	492e      	ldr	r1, [pc, #184]	@ (70003538 <HAL_RCCEx_PeriphCLKConfig+0x12ac>)
7000347e:	4313      	orrs	r3, r2
70003480:	654b      	str	r3, [r1, #84]	@ 0x54
70003482:	e001      	b.n	70003488 <HAL_RCCEx_PeriphCLKConfig+0x11fc>
    }
    else
    {
      /* set overall return value */
      status = ret;
70003484:	7dfb      	ldrb	r3, [r7, #23]
70003486:	75bb      	strb	r3, [r7, #22]
    }
  }

  /*---------------------------- SPDIFRX configuration -------------------------------*/
  if ((PeriphClkInit->PeriphClockSelection & RCC_PERIPHCLK_SPDIFRX) == RCC_PERIPHCLK_SPDIFRX)
70003488:	687b      	ldr	r3, [r7, #4]
7000348a:	681b      	ldr	r3, [r3, #0]
7000348c:	f403 0380 	and.w	r3, r3, #4194304	@ 0x400000
70003490:	2b00      	cmp	r3, #0
70003492:	d057      	beq.n	70003544 <HAL_RCCEx_PeriphCLKConfig+0x12b8>
  {
    /* Check the parameters */
    assert_param(IS_RCC_SPDIFRXCLKSOURCE(PeriphClkInit->SpdifrxClockSelection));
70003494:	687b      	ldr	r3, [r7, #4]
70003496:	6e9b      	ldr	r3, [r3, #104]	@ 0x68
70003498:	2b00      	cmp	r3, #0
7000349a:	d013      	beq.n	700034c4 <HAL_RCCEx_PeriphCLKConfig+0x1238>
7000349c:	687b      	ldr	r3, [r7, #4]
7000349e:	6e9b      	ldr	r3, [r3, #104]	@ 0x68
700034a0:	f1b3 7f80 	cmp.w	r3, #16777216	@ 0x1000000
700034a4:	d00e      	beq.n	700034c4 <HAL_RCCEx_PeriphCLKConfig+0x1238>
700034a6:	687b      	ldr	r3, [r7, #4]
700034a8:	6e9b      	ldr	r3, [r3, #104]	@ 0x68
700034aa:	f1b3 7f00 	cmp.w	r3, #33554432	@ 0x2000000
700034ae:	d009      	beq.n	700034c4 <HAL_RCCEx_PeriphCLKConfig+0x1238>
700034b0:	687b      	ldr	r3, [r7, #4]
700034b2:	6e9b      	ldr	r3, [r3, #104]	@ 0x68
700034b4:	f1b3 7f40 	cmp.w	r3, #50331648	@ 0x3000000
700034b8:	d004      	beq.n	700034c4 <HAL_RCCEx_PeriphCLKConfig+0x1238>
700034ba:	f240 31bf 	movw	r1, #959	@ 0x3bf
700034be:	481f      	ldr	r0, [pc, #124]	@ (7000353c <HAL_RCCEx_PeriphCLKConfig+0x12b0>)
700034c0:	f7fd fb9c 	bl	70000bfc <assert_failed>

    switch (PeriphClkInit->SpdifrxClockSelection)
700034c4:	687b      	ldr	r3, [r7, #4]
700034c6:	6e9b      	ldr	r3, [r3, #104]	@ 0x68
700034c8:	f1b3 7f40 	cmp.w	r3, #50331648	@ 0x3000000
700034cc:	d026      	beq.n	7000351c <HAL_RCCEx_PeriphCLKConfig+0x1290>
700034ce:	f1b3 7f40 	cmp.w	r3, #50331648	@ 0x3000000
700034d2:	d820      	bhi.n	70003516 <HAL_RCCEx_PeriphCLKConfig+0x128a>
700034d4:	f1b3 7f00 	cmp.w	r3, #33554432	@ 0x2000000
700034d8:	d016      	beq.n	70003508 <HAL_RCCEx_PeriphCLKConfig+0x127c>
700034da:	f1b3 7f00 	cmp.w	r3, #33554432	@ 0x2000000
700034de:	d81a      	bhi.n	70003516 <HAL_RCCEx_PeriphCLKConfig+0x128a>
700034e0:	2b00      	cmp	r3, #0
700034e2:	d003      	beq.n	700034ec <HAL_RCCEx_PeriphCLKConfig+0x1260>
700034e4:	f1b3 7f80 	cmp.w	r3, #16777216	@ 0x1000000
700034e8:	d007      	beq.n	700034fa <HAL_RCCEx_PeriphCLKConfig+0x126e>
700034ea:	e014      	b.n	70003516 <HAL_RCCEx_PeriphCLKConfig+0x128a>
    {
      case RCC_SPDIFRXCLKSOURCE_PLL1Q: /* PLL1_Q is used as clock source for SPDIFRX */
        /* Enable PLL1Q Clock output generated form System PLL . */
        __HAL_RCC_PLL1CLKOUT_ENABLE(RCC_PLL_QCLK);
700034ec:	4b12      	ldr	r3, [pc, #72]	@ (70003538 <HAL_RCCEx_PeriphCLKConfig+0x12ac>)
700034ee:	6adb      	ldr	r3, [r3, #44]	@ 0x2c
700034f0:	4a11      	ldr	r2, [pc, #68]	@ (70003538 <HAL_RCCEx_PeriphCLKConfig+0x12ac>)
700034f2:	f043 0340 	orr.w	r3, r3, #64	@ 0x40
700034f6:	62d3      	str	r3, [r2, #44]	@ 0x2c
        /* SPDIFRX clock source configuration done later after clock selection check */
        break;
700034f8:	e011      	b.n	7000351e <HAL_RCCEx_PeriphCLKConfig+0x1292>

      case RCC_SPDIFRXCLKSOURCE_PLL2R: /* PLL2_R is used as clock source for SPDIFRX */
        __HAL_RCC_PLL2CLKOUT_ENABLE(RCC_PLL_RCLK);
700034fa:	4b0f      	ldr	r3, [pc, #60]	@ (70003538 <HAL_RCCEx_PeriphCLKConfig+0x12ac>)
700034fc:	6adb      	ldr	r3, [r3, #44]	@ 0x2c
700034fe:	4a0e      	ldr	r2, [pc, #56]	@ (70003538 <HAL_RCCEx_PeriphCLKConfig+0x12ac>)
70003500:	f443 2380 	orr.w	r3, r3, #262144	@ 0x40000
70003504:	62d3      	str	r3, [r2, #44]	@ 0x2c
        /* SPDIFRX clock source configuration done later after clock selection check */
        break;
70003506:	e00a      	b.n	7000351e <HAL_RCCEx_PeriphCLKConfig+0x1292>

      case RCC_SPDIFRXCLKSOURCE_PLL3R:  /* PLL3_R is used as clock source for SPDIFRX */
        __HAL_RCC_PLL3CLKOUT_ENABLE(RCC_PLL_RCLK);
70003508:	4b0b      	ldr	r3, [pc, #44]	@ (70003538 <HAL_RCCEx_PeriphCLKConfig+0x12ac>)
7000350a:	6adb      	ldr	r3, [r3, #44]	@ 0x2c
7000350c:	4a0a      	ldr	r2, [pc, #40]	@ (70003538 <HAL_RCCEx_PeriphCLKConfig+0x12ac>)
7000350e:	f043 5300 	orr.w	r3, r3, #536870912	@ 0x20000000
70003512:	62d3      	str	r3, [r2, #44]	@ 0x2c
        /* SPDIFRX clock source configuration done later after clock selection check */
        break;
70003514:	e003      	b.n	7000351e <HAL_RCCEx_PeriphCLKConfig+0x1292>
        /* Internal OSC clock is used as source of SPDIFRX clock*/
        /* SPDIFRX clock source configuration done later after clock selection check */
        break;

      default:
        ret = HAL_ERROR;
70003516:	2301      	movs	r3, #1
70003518:	75fb      	strb	r3, [r7, #23]
        break;
7000351a:	e000      	b.n	7000351e <HAL_RCCEx_PeriphCLKConfig+0x1292>
        break;
7000351c:	bf00      	nop
    }

    if (ret == HAL_OK)
7000351e:	7dfb      	ldrb	r3, [r7, #23]
70003520:	2b00      	cmp	r3, #0
70003522:	d10d      	bne.n	70003540 <HAL_RCCEx_PeriphCLKConfig+0x12b4>
    {
      /* Set the source of SPDIFRX clock */
      __HAL_RCC_SPDIFRX_CONFIG(PeriphClkInit->SpdifrxClockSelection);
70003524:	4b04      	ldr	r3, [pc, #16]	@ (70003538 <HAL_RCCEx_PeriphCLKConfig+0x12ac>)
70003526:	6d1b      	ldr	r3, [r3, #80]	@ 0x50
70003528:	f023 7240 	bic.w	r2, r3, #50331648	@ 0x3000000
7000352c:	687b      	ldr	r3, [r7, #4]
7000352e:	6e9b      	ldr	r3, [r3, #104]	@ 0x68
70003530:	4901      	ldr	r1, [pc, #4]	@ (70003538 <HAL_RCCEx_PeriphCLKConfig+0x12ac>)
70003532:	4313      	orrs	r3, r2
70003534:	650b      	str	r3, [r1, #80]	@ 0x50
70003536:	e005      	b.n	70003544 <HAL_RCCEx_PeriphCLKConfig+0x12b8>
70003538:	58024400 	.word	0x58024400
7000353c:	700068ec 	.word	0x700068ec
    }
    else
    {
      /* set overall return value */
      status = ret;
70003540:	7dfb      	ldrb	r3, [r7, #23]
70003542:	75bb      	strb	r3, [r7, #22]
    }
  }

  /*---------------------------- SPI1 configuration --------------------------*/
  if ((PeriphClkInit->PeriphClockSelection & RCC_PERIPHCLK_SPI1) == RCC_PERIPHCLK_SPI1)
70003544:	687b      	ldr	r3, [r7, #4]
70003546:	681b      	ldr	r3, [r3, #0]
70003548:	f403 0300 	and.w	r3, r3, #8388608	@ 0x800000
7000354c:	2b00      	cmp	r3, #0
7000354e:	d060      	beq.n	70003612 <HAL_RCCEx_PeriphCLKConfig+0x1386>
  {
    /* Check the parameters */
    assert_param(IS_RCC_SPI1CLKSOURCE(PeriphClkInit->Spi1ClockSelection));
70003550:	687b      	ldr	r3, [r7, #4]
70003552:	6d9b      	ldr	r3, [r3, #88]	@ 0x58
70003554:	2b00      	cmp	r3, #0
70003556:	d018      	beq.n	7000358a <HAL_RCCEx_PeriphCLKConfig+0x12fe>
70003558:	687b      	ldr	r3, [r7, #4]
7000355a:	6d9b      	ldr	r3, [r3, #88]	@ 0x58
7000355c:	f5b3 7f80 	cmp.w	r3, #256	@ 0x100
70003560:	d013      	beq.n	7000358a <HAL_RCCEx_PeriphCLKConfig+0x12fe>
70003562:	687b      	ldr	r3, [r7, #4]
70003564:	6d9b      	ldr	r3, [r3, #88]	@ 0x58
70003566:	f5b3 7f00 	cmp.w	r3, #512	@ 0x200
7000356a:	d00e      	beq.n	7000358a <HAL_RCCEx_PeriphCLKConfig+0x12fe>
7000356c:	687b      	ldr	r3, [r7, #4]
7000356e:	6d9b      	ldr	r3, [r3, #88]	@ 0x58
70003570:	f5b3 7f40 	cmp.w	r3, #768	@ 0x300
70003574:	d009      	beq.n	7000358a <HAL_RCCEx_PeriphCLKConfig+0x12fe>
70003576:	687b      	ldr	r3, [r7, #4]
70003578:	6d9b      	ldr	r3, [r3, #88]	@ 0x58
7000357a:	f5b3 6f80 	cmp.w	r3, #1024	@ 0x400
7000357e:	d004      	beq.n	7000358a <HAL_RCCEx_PeriphCLKConfig+0x12fe>
70003580:	f240 31ed 	movw	r1, #1005	@ 0x3ed
70003584:	4880      	ldr	r0, [pc, #512]	@ (70003788 <HAL_RCCEx_PeriphCLKConfig+0x14fc>)
70003586:	f7fd fb39 	bl	70000bfc <assert_failed>

    switch (PeriphClkInit->Spi1ClockSelection)
7000358a:	687b      	ldr	r3, [r7, #4]
7000358c:	6d9b      	ldr	r3, [r3, #88]	@ 0x58
7000358e:	f5b3 6f80 	cmp.w	r3, #1024	@ 0x400
70003592:	d02c      	beq.n	700035ee <HAL_RCCEx_PeriphCLKConfig+0x1362>
70003594:	f5b3 6f80 	cmp.w	r3, #1024	@ 0x400
70003598:	d826      	bhi.n	700035e8 <HAL_RCCEx_PeriphCLKConfig+0x135c>
7000359a:	f5b3 7f40 	cmp.w	r3, #768	@ 0x300
7000359e:	d028      	beq.n	700035f2 <HAL_RCCEx_PeriphCLKConfig+0x1366>
700035a0:	f5b3 7f40 	cmp.w	r3, #768	@ 0x300
700035a4:	d820      	bhi.n	700035e8 <HAL_RCCEx_PeriphCLKConfig+0x135c>
700035a6:	f5b3 7f00 	cmp.w	r3, #512	@ 0x200
700035aa:	d016      	beq.n	700035da <HAL_RCCEx_PeriphCLKConfig+0x134e>
700035ac:	f5b3 7f00 	cmp.w	r3, #512	@ 0x200
700035b0:	d81a      	bhi.n	700035e8 <HAL_RCCEx_PeriphCLKConfig+0x135c>
700035b2:	2b00      	cmp	r3, #0
700035b4:	d003      	beq.n	700035be <HAL_RCCEx_PeriphCLKConfig+0x1332>
700035b6:	f5b3 7f80 	cmp.w	r3, #256	@ 0x100
700035ba:	d007      	beq.n	700035cc <HAL_RCCEx_PeriphCLKConfig+0x1340>
700035bc:	e014      	b.n	700035e8 <HAL_RCCEx_PeriphCLKConfig+0x135c>
    {
      case RCC_SPI1CLKSOURCE_PLL1Q:  /* PLL1_Q is used as clock source for SPI1 */
        /* Enable SPI Clock output generated form System PLL . */
        __HAL_RCC_PLL1CLKOUT_ENABLE(RCC_PLL_QCLK);
700035be:	4b73      	ldr	r3, [pc, #460]	@ (7000378c <HAL_RCCEx_PeriphCLKConfig+0x1500>)
700035c0:	6adb      	ldr	r3, [r3, #44]	@ 0x2c
700035c2:	4a72      	ldr	r2, [pc, #456]	@ (7000378c <HAL_RCCEx_PeriphCLKConfig+0x1500>)
700035c4:	f043 0340 	orr.w	r3, r3, #64	@ 0x40
700035c8:	62d3      	str	r3, [r2, #44]	@ 0x2c
        /* SPI1 clock source configuration done later after clock selection check */
        break;
700035ca:	e013      	b.n	700035f4 <HAL_RCCEx_PeriphCLKConfig+0x1368>

      case RCC_SPI1CLKSOURCE_PLL2P:  /* PLL2_P is used as clock source for SPI1 */
        __HAL_RCC_PLL2CLKOUT_ENABLE(RCC_PLL_PCLK);
700035cc:	4b6f      	ldr	r3, [pc, #444]	@ (7000378c <HAL_RCCEx_PeriphCLKConfig+0x1500>)
700035ce:	6adb      	ldr	r3, [r3, #44]	@ 0x2c
700035d0:	4a6e      	ldr	r2, [pc, #440]	@ (7000378c <HAL_RCCEx_PeriphCLKConfig+0x1500>)
700035d2:	f443 3380 	orr.w	r3, r3, #65536	@ 0x10000
700035d6:	62d3      	str	r3, [r2, #44]	@ 0x2c
        /* SPI1 clock source configuration done later after clock selection check */
        break;
700035d8:	e00c      	b.n	700035f4 <HAL_RCCEx_PeriphCLKConfig+0x1368>

      case RCC_SPI1CLKSOURCE_PLL3P:  /* PLL3_P is used as clock source for SPI1 */
        __HAL_RCC_PLL3CLKOUT_ENABLE(RCC_PLL_PCLK);
700035da:	4b6c      	ldr	r3, [pc, #432]	@ (7000378c <HAL_RCCEx_PeriphCLKConfig+0x1500>)
700035dc:	6adb      	ldr	r3, [r3, #44]	@ 0x2c
700035de:	4a6b      	ldr	r2, [pc, #428]	@ (7000378c <HAL_RCCEx_PeriphCLKConfig+0x1500>)
700035e0:	f043 6300 	orr.w	r3, r3, #134217728	@ 0x8000000
700035e4:	62d3      	str	r3, [r2, #44]	@ 0x2c
        /* SPI1 clock source configuration done later after clock selection check */
        break;
700035e6:	e005      	b.n	700035f4 <HAL_RCCEx_PeriphCLKConfig+0x1368>
      case RCC_SPI1CLKSOURCE_CLKP:  /* HSI, HSE, or CSI oscillator is used as source of SPI1 clock */
        /* SPI1 clock source configuration done later after clock selection check */
        break;

      default:
        ret = HAL_ERROR;
700035e8:	2301      	movs	r3, #1
700035ea:	75fb      	strb	r3, [r7, #23]
        break;
700035ec:	e002      	b.n	700035f4 <HAL_RCCEx_PeriphCLKConfig+0x1368>
        break;
700035ee:	bf00      	nop
700035f0:	e000      	b.n	700035f4 <HAL_RCCEx_PeriphCLKConfig+0x1368>
        break;
700035f2:	bf00      	nop
    }

    if (ret == HAL_OK)
700035f4:	7dfb      	ldrb	r3, [r7, #23]
700035f6:	2b00      	cmp	r3, #0
700035f8:	d109      	bne.n	7000360e <HAL_RCCEx_PeriphCLKConfig+0x1382>
    {
      /* Set the source of SPI1 clock*/
      __HAL_RCC_SPI1_CONFIG(PeriphClkInit->Spi1ClockSelection);
700035fa:	4b64      	ldr	r3, [pc, #400]	@ (7000378c <HAL_RCCEx_PeriphCLKConfig+0x1500>)
700035fc:	6d5b      	ldr	r3, [r3, #84]	@ 0x54
700035fe:	f423 62e0 	bic.w	r2, r3, #1792	@ 0x700
70003602:	687b      	ldr	r3, [r7, #4]
70003604:	6d9b      	ldr	r3, [r3, #88]	@ 0x58
70003606:	4961      	ldr	r1, [pc, #388]	@ (7000378c <HAL_RCCEx_PeriphCLKConfig+0x1500>)
70003608:	4313      	orrs	r3, r2
7000360a:	654b      	str	r3, [r1, #84]	@ 0x54
7000360c:	e001      	b.n	70003612 <HAL_RCCEx_PeriphCLKConfig+0x1386>
    }
    else
    {
      /* set overall return value */
      status = ret;
7000360e:	7dfb      	ldrb	r3, [r7, #23]
70003610:	75bb      	strb	r3, [r7, #22]
    }
  }

  /*---------------------------- SPI2/SPI3 configuration ---------------------*/
  if ((PeriphClkInit->PeriphClockSelection & RCC_PERIPHCLK_SPI23) == RCC_PERIPHCLK_SPI23)
70003612:	687b      	ldr	r3, [r7, #4]
70003614:	681b      	ldr	r3, [r3, #0]
70003616:	f003 7380 	and.w	r3, r3, #16777216	@ 0x1000000
7000361a:	2b00      	cmp	r3, #0
7000361c:	d055      	beq.n	700036ca <HAL_RCCEx_PeriphCLKConfig+0x143e>
  {
    /* Check the parameters */
    assert_param(IS_RCC_SPI23CLKSOURCE(PeriphClkInit->Spi23ClockSelection));
7000361e:	687b      	ldr	r3, [r7, #4]
70003620:	6ddb      	ldr	r3, [r3, #92]	@ 0x5c
70003622:	2b00      	cmp	r3, #0
70003624:	d014      	beq.n	70003650 <HAL_RCCEx_PeriphCLKConfig+0x13c4>
70003626:	687b      	ldr	r3, [r7, #4]
70003628:	6ddb      	ldr	r3, [r3, #92]	@ 0x5c
7000362a:	2b10      	cmp	r3, #16
7000362c:	d010      	beq.n	70003650 <HAL_RCCEx_PeriphCLKConfig+0x13c4>
7000362e:	687b      	ldr	r3, [r7, #4]
70003630:	6ddb      	ldr	r3, [r3, #92]	@ 0x5c
70003632:	2b20      	cmp	r3, #32
70003634:	d00c      	beq.n	70003650 <HAL_RCCEx_PeriphCLKConfig+0x13c4>
70003636:	687b      	ldr	r3, [r7, #4]
70003638:	6ddb      	ldr	r3, [r3, #92]	@ 0x5c
7000363a:	2b30      	cmp	r3, #48	@ 0x30
7000363c:	d008      	beq.n	70003650 <HAL_RCCEx_PeriphCLKConfig+0x13c4>
7000363e:	687b      	ldr	r3, [r7, #4]
70003640:	6ddb      	ldr	r3, [r3, #92]	@ 0x5c
70003642:	2b40      	cmp	r3, #64	@ 0x40
70003644:	d004      	beq.n	70003650 <HAL_RCCEx_PeriphCLKConfig+0x13c4>
70003646:	f240 411e 	movw	r1, #1054	@ 0x41e
7000364a:	484f      	ldr	r0, [pc, #316]	@ (70003788 <HAL_RCCEx_PeriphCLKConfig+0x14fc>)
7000364c:	f7fd fad6 	bl	70000bfc <assert_failed>

    switch (PeriphClkInit->Spi23ClockSelection)
70003650:	687b      	ldr	r3, [r7, #4]
70003652:	6ddb      	ldr	r3, [r3, #92]	@ 0x5c
70003654:	2b40      	cmp	r3, #64	@ 0x40
70003656:	d026      	beq.n	700036a6 <HAL_RCCEx_PeriphCLKConfig+0x141a>
70003658:	2b40      	cmp	r3, #64	@ 0x40
7000365a:	d821      	bhi.n	700036a0 <HAL_RCCEx_PeriphCLKConfig+0x1414>
7000365c:	2b30      	cmp	r3, #48	@ 0x30
7000365e:	d024      	beq.n	700036aa <HAL_RCCEx_PeriphCLKConfig+0x141e>
70003660:	2b30      	cmp	r3, #48	@ 0x30
70003662:	d81d      	bhi.n	700036a0 <HAL_RCCEx_PeriphCLKConfig+0x1414>
70003664:	2b20      	cmp	r3, #32
70003666:	d014      	beq.n	70003692 <HAL_RCCEx_PeriphCLKConfig+0x1406>
70003668:	2b20      	cmp	r3, #32
7000366a:	d819      	bhi.n	700036a0 <HAL_RCCEx_PeriphCLKConfig+0x1414>
7000366c:	2b00      	cmp	r3, #0
7000366e:	d002      	beq.n	70003676 <HAL_RCCEx_PeriphCLKConfig+0x13ea>
70003670:	2b10      	cmp	r3, #16
70003672:	d007      	beq.n	70003684 <HAL_RCCEx_PeriphCLKConfig+0x13f8>
70003674:	e014      	b.n	700036a0 <HAL_RCCEx_PeriphCLKConfig+0x1414>
    {
      case RCC_SPI23CLKSOURCE_PLL1Q:  /* PLL1_Q is used as clock source for SPI2/SPI3 */
        /* Enable SPI Clock output generated form System PLL . */
        __HAL_RCC_PLL1CLKOUT_ENABLE(RCC_PLL_QCLK);
70003676:	4b45      	ldr	r3, [pc, #276]	@ (7000378c <HAL_RCCEx_PeriphCLKConfig+0x1500>)
70003678:	6adb      	ldr	r3, [r3, #44]	@ 0x2c
7000367a:	4a44      	ldr	r2, [pc, #272]	@ (7000378c <HAL_RCCEx_PeriphCLKConfig+0x1500>)
7000367c:	f043 0340 	orr.w	r3, r3, #64	@ 0x40
70003680:	62d3      	str	r3, [r2, #44]	@ 0x2c
        /* SPI2/SPI3 clock source configuration done later after clock selection check */
        break;
70003682:	e013      	b.n	700036ac <HAL_RCCEx_PeriphCLKConfig+0x1420>

      case RCC_SPI23CLKSOURCE_PLL2P:  /* PLL2_P is used as clock source for SPI2/SPI3 */
        __HAL_RCC_PLL2CLKOUT_ENABLE(RCC_PLL_PCLK);
70003684:	4b41      	ldr	r3, [pc, #260]	@ (7000378c <HAL_RCCEx_PeriphCLKConfig+0x1500>)
70003686:	6adb      	ldr	r3, [r3, #44]	@ 0x2c
70003688:	4a40      	ldr	r2, [pc, #256]	@ (7000378c <HAL_RCCEx_PeriphCLKConfig+0x1500>)
7000368a:	f443 3380 	orr.w	r3, r3, #65536	@ 0x10000
7000368e:	62d3      	str	r3, [r2, #44]	@ 0x2c
        /* SPI2/SPI3 clock source configuration done later after clock selection check */
        break;
70003690:	e00c      	b.n	700036ac <HAL_RCCEx_PeriphCLKConfig+0x1420>

      case RCC_SPI23CLKSOURCE_PLL3P:  /* PLL3_P is used as clock source for SPI2/SPI3 */
        __HAL_RCC_PLL3CLKOUT_ENABLE(RCC_PLL_PCLK);
70003692:	4b3e      	ldr	r3, [pc, #248]	@ (7000378c <HAL_RCCEx_PeriphCLKConfig+0x1500>)
70003694:	6adb      	ldr	r3, [r3, #44]	@ 0x2c
70003696:	4a3d      	ldr	r2, [pc, #244]	@ (7000378c <HAL_RCCEx_PeriphCLKConfig+0x1500>)
70003698:	f043 6300 	orr.w	r3, r3, #134217728	@ 0x8000000
7000369c:	62d3      	str	r3, [r2, #44]	@ 0x2c
        /* SPI2/SPI3 clock source configuration done later after clock selection check */
        break;
7000369e:	e005      	b.n	700036ac <HAL_RCCEx_PeriphCLKConfig+0x1420>
      case RCC_SPI23CLKSOURCE_CLKP:  /* HSI, HSE, or CSI oscillator is used as source of SPI2/SPI3 clock */
        /* SPI2/SPI3 clock source configuration done later after clock selection check */
        break;

      default:
        ret = HAL_ERROR;
700036a0:	2301      	movs	r3, #1
700036a2:	75fb      	strb	r3, [r7, #23]
        break;
700036a4:	e002      	b.n	700036ac <HAL_RCCEx_PeriphCLKConfig+0x1420>
        break;
700036a6:	bf00      	nop
700036a8:	e000      	b.n	700036ac <HAL_RCCEx_PeriphCLKConfig+0x1420>
        break;
700036aa:	bf00      	nop
    }

    if (ret == HAL_OK)
700036ac:	7dfb      	ldrb	r3, [r7, #23]
700036ae:	2b00      	cmp	r3, #0
700036b0:	d109      	bne.n	700036c6 <HAL_RCCEx_PeriphCLKConfig+0x143a>
    {
      /* Set the source of SPI2/SPI3 clock*/
      __HAL_RCC_SPI23_CONFIG(PeriphClkInit->Spi23ClockSelection);
700036b2:	4b36      	ldr	r3, [pc, #216]	@ (7000378c <HAL_RCCEx_PeriphCLKConfig+0x1500>)
700036b4:	6d1b      	ldr	r3, [r3, #80]	@ 0x50
700036b6:	f023 0270 	bic.w	r2, r3, #112	@ 0x70
700036ba:	687b      	ldr	r3, [r7, #4]
700036bc:	6ddb      	ldr	r3, [r3, #92]	@ 0x5c
700036be:	4933      	ldr	r1, [pc, #204]	@ (7000378c <HAL_RCCEx_PeriphCLKConfig+0x1500>)
700036c0:	4313      	orrs	r3, r2
700036c2:	650b      	str	r3, [r1, #80]	@ 0x50
700036c4:	e001      	b.n	700036ca <HAL_RCCEx_PeriphCLKConfig+0x143e>
    }
    else
    {
      /* set overall return value */
      status = ret;
700036c6:	7dfb      	ldrb	r3, [r7, #23]
700036c8:	75bb      	strb	r3, [r7, #22]
    }
  }

  /*---------------------------- SPI4/5 configuration -------------------------------*/
  if ((PeriphClkInit->PeriphClockSelection & RCC_PERIPHCLK_SPI45) == RCC_PERIPHCLK_SPI45)
700036ca:	687b      	ldr	r3, [r7, #4]
700036cc:	681b      	ldr	r3, [r3, #0]
700036ce:	f003 7300 	and.w	r3, r3, #33554432	@ 0x2000000
700036d2:	2b00      	cmp	r3, #0
700036d4:	d05e      	beq.n	70003794 <HAL_RCCEx_PeriphCLKConfig+0x1508>
  {
    /* Check the parameters */
    assert_param(IS_RCC_SPI45CLKSOURCE(PeriphClkInit->Spi45ClockSelection));
700036d6:	687b      	ldr	r3, [r7, #4]
700036d8:	6e1b      	ldr	r3, [r3, #96]	@ 0x60
700036da:	2b00      	cmp	r3, #0
700036dc:	d018      	beq.n	70003710 <HAL_RCCEx_PeriphCLKConfig+0x1484>
700036de:	687b      	ldr	r3, [r7, #4]
700036e0:	6e1b      	ldr	r3, [r3, #96]	@ 0x60
700036e2:	2b10      	cmp	r3, #16
700036e4:	d014      	beq.n	70003710 <HAL_RCCEx_PeriphCLKConfig+0x1484>
700036e6:	687b      	ldr	r3, [r7, #4]
700036e8:	6e1b      	ldr	r3, [r3, #96]	@ 0x60
700036ea:	2b20      	cmp	r3, #32
700036ec:	d010      	beq.n	70003710 <HAL_RCCEx_PeriphCLKConfig+0x1484>
700036ee:	687b      	ldr	r3, [r7, #4]
700036f0:	6e1b      	ldr	r3, [r3, #96]	@ 0x60
700036f2:	2b30      	cmp	r3, #48	@ 0x30
700036f4:	d00c      	beq.n	70003710 <HAL_RCCEx_PeriphCLKConfig+0x1484>
700036f6:	687b      	ldr	r3, [r7, #4]
700036f8:	6e1b      	ldr	r3, [r3, #96]	@ 0x60
700036fa:	2b40      	cmp	r3, #64	@ 0x40
700036fc:	d008      	beq.n	70003710 <HAL_RCCEx_PeriphCLKConfig+0x1484>
700036fe:	687b      	ldr	r3, [r7, #4]
70003700:	6e1b      	ldr	r3, [r3, #96]	@ 0x60
70003702:	2b50      	cmp	r3, #80	@ 0x50
70003704:	d004      	beq.n	70003710 <HAL_RCCEx_PeriphCLKConfig+0x1484>
70003706:	f240 414f 	movw	r1, #1103	@ 0x44f
7000370a:	481f      	ldr	r0, [pc, #124]	@ (70003788 <HAL_RCCEx_PeriphCLKConfig+0x14fc>)
7000370c:	f7fd fa76 	bl	70000bfc <assert_failed>

    switch (PeriphClkInit->Spi45ClockSelection)
70003710:	687b      	ldr	r3, [r7, #4]
70003712:	6e1b      	ldr	r3, [r3, #96]	@ 0x60
70003714:	2b50      	cmp	r3, #80	@ 0x50
70003716:	d022      	beq.n	7000375e <HAL_RCCEx_PeriphCLKConfig+0x14d2>
70003718:	2b50      	cmp	r3, #80	@ 0x50
7000371a:	d81d      	bhi.n	70003758 <HAL_RCCEx_PeriphCLKConfig+0x14cc>
7000371c:	2b40      	cmp	r3, #64	@ 0x40
7000371e:	d020      	beq.n	70003762 <HAL_RCCEx_PeriphCLKConfig+0x14d6>
70003720:	2b40      	cmp	r3, #64	@ 0x40
70003722:	d819      	bhi.n	70003758 <HAL_RCCEx_PeriphCLKConfig+0x14cc>
70003724:	2b30      	cmp	r3, #48	@ 0x30
70003726:	d01e      	beq.n	70003766 <HAL_RCCEx_PeriphCLKConfig+0x14da>
70003728:	2b30      	cmp	r3, #48	@ 0x30
7000372a:	d815      	bhi.n	70003758 <HAL_RCCEx_PeriphCLKConfig+0x14cc>
7000372c:	2b20      	cmp	r3, #32
7000372e:	d00c      	beq.n	7000374a <HAL_RCCEx_PeriphCLKConfig+0x14be>
70003730:	2b20      	cmp	r3, #32
70003732:	d811      	bhi.n	70003758 <HAL_RCCEx_PeriphCLKConfig+0x14cc>
70003734:	2b00      	cmp	r3, #0
70003736:	d018      	beq.n	7000376a <HAL_RCCEx_PeriphCLKConfig+0x14de>
70003738:	2b10      	cmp	r3, #16
7000373a:	d10d      	bne.n	70003758 <HAL_RCCEx_PeriphCLKConfig+0x14cc>
      case RCC_SPI45CLKSOURCE_PCLK2:  /* PCLK2 as clock source for SPI4/SPI5 */
        /* SPI4/SPI5 clock source configuration done later after clock selection check */
        break;

      case RCC_SPI45CLKSOURCE_PLL2Q:  /* PLL2_Q is used as clock source for SPI4/SPI5 */
        __HAL_RCC_PLL2CLKOUT_ENABLE(RCC_PLL_QCLK);
7000373c:	4b13      	ldr	r3, [pc, #76]	@ (7000378c <HAL_RCCEx_PeriphCLKConfig+0x1500>)
7000373e:	6adb      	ldr	r3, [r3, #44]	@ 0x2c
70003740:	4a12      	ldr	r2, [pc, #72]	@ (7000378c <HAL_RCCEx_PeriphCLKConfig+0x1500>)
70003742:	f443 3300 	orr.w	r3, r3, #131072	@ 0x20000
70003746:	62d3      	str	r3, [r2, #44]	@ 0x2c
        /* SPI4/SPI5 clock source configuration done later after clock selection check */
        break;
70003748:	e010      	b.n	7000376c <HAL_RCCEx_PeriphCLKConfig+0x14e0>

      case RCC_SPI45CLKSOURCE_PLL3Q:  /* PLL3_Q is used as clock source for SPI4/SPI5 */
        __HAL_RCC_PLL3CLKOUT_ENABLE(RCC_PLL_QCLK);
7000374a:	4b10      	ldr	r3, [pc, #64]	@ (7000378c <HAL_RCCEx_PeriphCLKConfig+0x1500>)
7000374c:	6adb      	ldr	r3, [r3, #44]	@ 0x2c
7000374e:	4a0f      	ldr	r2, [pc, #60]	@ (7000378c <HAL_RCCEx_PeriphCLKConfig+0x1500>)
70003750:	f043 5380 	orr.w	r3, r3, #268435456	@ 0x10000000
70003754:	62d3      	str	r3, [r2, #44]	@ 0x2c
        /* SPI4/SPI5 clock source configuration done later after clock selection check */
        break;
70003756:	e009      	b.n	7000376c <HAL_RCCEx_PeriphCLKConfig+0x14e0>
      case RCC_SPI45CLKSOURCE_HSE: /* HSE oscillator clock is used as source of SPI4/SPI5 */
        /* SPI4/SPI5 clock source configuration done later after clock selection check */
        break;

      default:
        ret = HAL_ERROR;
70003758:	2301      	movs	r3, #1
7000375a:	75fb      	strb	r3, [r7, #23]
        break;
7000375c:	e006      	b.n	7000376c <HAL_RCCEx_PeriphCLKConfig+0x14e0>
        break;
7000375e:	bf00      	nop
70003760:	e004      	b.n	7000376c <HAL_RCCEx_PeriphCLKConfig+0x14e0>
        break;
70003762:	bf00      	nop
70003764:	e002      	b.n	7000376c <HAL_RCCEx_PeriphCLKConfig+0x14e0>
        break;
70003766:	bf00      	nop
70003768:	e000      	b.n	7000376c <HAL_RCCEx_PeriphCLKConfig+0x14e0>
        break;
7000376a:	bf00      	nop
    }

    if (ret == HAL_OK)
7000376c:	7dfb      	ldrb	r3, [r7, #23]
7000376e:	2b00      	cmp	r3, #0
70003770:	d10e      	bne.n	70003790 <HAL_RCCEx_PeriphCLKConfig+0x1504>
    {
      /* Set the source of SPI4/SPI5 clock */
      __HAL_RCC_SPI45_CONFIG(PeriphClkInit->Spi45ClockSelection);
70003772:	4b06      	ldr	r3, [pc, #24]	@ (7000378c <HAL_RCCEx_PeriphCLKConfig+0x1500>)
70003774:	6d5b      	ldr	r3, [r3, #84]	@ 0x54
70003776:	f023 0270 	bic.w	r2, r3, #112	@ 0x70
7000377a:	687b      	ldr	r3, [r7, #4]
7000377c:	6e1b      	ldr	r3, [r3, #96]	@ 0x60
7000377e:	4903      	ldr	r1, [pc, #12]	@ (7000378c <HAL_RCCEx_PeriphCLKConfig+0x1500>)
70003780:	4313      	orrs	r3, r2
70003782:	654b      	str	r3, [r1, #84]	@ 0x54
70003784:	e006      	b.n	70003794 <HAL_RCCEx_PeriphCLKConfig+0x1508>
70003786:	bf00      	nop
70003788:	700068ec 	.word	0x700068ec
7000378c:	58024400 	.word	0x58024400
    }
    else
    {
      /* set overall return value */
      status = ret;
70003790:	7dfb      	ldrb	r3, [r7, #23]
70003792:	75bb      	strb	r3, [r7, #22]
    }
  }

  /*---------------------------- SPI6 configuration --------------------------*/
  if ((PeriphClkInit->PeriphClockSelection & RCC_PERIPHCLK_SPI6) == RCC_PERIPHCLK_SPI6)
70003794:	687b      	ldr	r3, [r7, #4]
70003796:	681b      	ldr	r3, [r3, #0]
70003798:	f003 6380 	and.w	r3, r3, #67108864	@ 0x4000000
7000379c:	2b00      	cmp	r3, #0
7000379e:	d059      	beq.n	70003854 <HAL_RCCEx_PeriphCLKConfig+0x15c8>
  {
    /* Check the parameters */
    assert_param(IS_RCC_SPI6CLKSOURCE(PeriphClkInit->Spi6ClockSelection));
700037a0:	687b      	ldr	r3, [r7, #4]
700037a2:	6e5b      	ldr	r3, [r3, #100]	@ 0x64
700037a4:	2b00      	cmp	r3, #0
700037a6:	d018      	beq.n	700037da <HAL_RCCEx_PeriphCLKConfig+0x154e>
700037a8:	687b      	ldr	r3, [r7, #4]
700037aa:	6e5b      	ldr	r3, [r3, #100]	@ 0x64
700037ac:	2b10      	cmp	r3, #16
700037ae:	d014      	beq.n	700037da <HAL_RCCEx_PeriphCLKConfig+0x154e>
700037b0:	687b      	ldr	r3, [r7, #4]
700037b2:	6e5b      	ldr	r3, [r3, #100]	@ 0x64
700037b4:	2b20      	cmp	r3, #32
700037b6:	d010      	beq.n	700037da <HAL_RCCEx_PeriphCLKConfig+0x154e>
700037b8:	687b      	ldr	r3, [r7, #4]
700037ba:	6e5b      	ldr	r3, [r3, #100]	@ 0x64
700037bc:	2b30      	cmp	r3, #48	@ 0x30
700037be:	d00c      	beq.n	700037da <HAL_RCCEx_PeriphCLKConfig+0x154e>
700037c0:	687b      	ldr	r3, [r7, #4]
700037c2:	6e5b      	ldr	r3, [r3, #100]	@ 0x64
700037c4:	2b40      	cmp	r3, #64	@ 0x40
700037c6:	d008      	beq.n	700037da <HAL_RCCEx_PeriphCLKConfig+0x154e>
700037c8:	687b      	ldr	r3, [r7, #4]
700037ca:	6e5b      	ldr	r3, [r3, #100]	@ 0x64
700037cc:	2b50      	cmp	r3, #80	@ 0x50
700037ce:	d004      	beq.n	700037da <HAL_RCCEx_PeriphCLKConfig+0x154e>
700037d0:	f240 4182 	movw	r1, #1154	@ 0x482
700037d4:	4896      	ldr	r0, [pc, #600]	@ (70003a30 <HAL_RCCEx_PeriphCLKConfig+0x17a4>)
700037d6:	f7fd fa11 	bl	70000bfc <assert_failed>

    switch (PeriphClkInit->Spi6ClockSelection)
700037da:	687b      	ldr	r3, [r7, #4]
700037dc:	6e5b      	ldr	r3, [r3, #100]	@ 0x64
700037de:	2b50      	cmp	r3, #80	@ 0x50
700037e0:	d022      	beq.n	70003828 <HAL_RCCEx_PeriphCLKConfig+0x159c>
700037e2:	2b50      	cmp	r3, #80	@ 0x50
700037e4:	d81d      	bhi.n	70003822 <HAL_RCCEx_PeriphCLKConfig+0x1596>
700037e6:	2b40      	cmp	r3, #64	@ 0x40
700037e8:	d020      	beq.n	7000382c <HAL_RCCEx_PeriphCLKConfig+0x15a0>
700037ea:	2b40      	cmp	r3, #64	@ 0x40
700037ec:	d819      	bhi.n	70003822 <HAL_RCCEx_PeriphCLKConfig+0x1596>
700037ee:	2b30      	cmp	r3, #48	@ 0x30
700037f0:	d01e      	beq.n	70003830 <HAL_RCCEx_PeriphCLKConfig+0x15a4>
700037f2:	2b30      	cmp	r3, #48	@ 0x30
700037f4:	d815      	bhi.n	70003822 <HAL_RCCEx_PeriphCLKConfig+0x1596>
700037f6:	2b20      	cmp	r3, #32
700037f8:	d00c      	beq.n	70003814 <HAL_RCCEx_PeriphCLKConfig+0x1588>
700037fa:	2b20      	cmp	r3, #32
700037fc:	d811      	bhi.n	70003822 <HAL_RCCEx_PeriphCLKConfig+0x1596>
700037fe:	2b00      	cmp	r3, #0
70003800:	d018      	beq.n	70003834 <HAL_RCCEx_PeriphCLKConfig+0x15a8>
70003802:	2b10      	cmp	r3, #16
70003804:	d10d      	bne.n	70003822 <HAL_RCCEx_PeriphCLKConfig+0x1596>
      case RCC_SPI6CLKSOURCE_PCLK4: /* PCLK4 as clock source for SPI6 */
        /* SPI6 clock source configuration done later after clock selection check */
        break;

      case RCC_SPI6CLKSOURCE_PLL2Q:  /* PLL2_Q is used as clock source for SPI6 */
        __HAL_RCC_PLL2CLKOUT_ENABLE(RCC_PLL_QCLK);
70003806:	4b8b      	ldr	r3, [pc, #556]	@ (70003a34 <HAL_RCCEx_PeriphCLKConfig+0x17a8>)
70003808:	6adb      	ldr	r3, [r3, #44]	@ 0x2c
7000380a:	4a8a      	ldr	r2, [pc, #552]	@ (70003a34 <HAL_RCCEx_PeriphCLKConfig+0x17a8>)
7000380c:	f443 3300 	orr.w	r3, r3, #131072	@ 0x20000
70003810:	62d3      	str	r3, [r2, #44]	@ 0x2c
        /* SPI6 clock source configuration done later after clock selection check */
        break;
70003812:	e010      	b.n	70003836 <HAL_RCCEx_PeriphCLKConfig+0x15aa>

      case RCC_SPI6CLKSOURCE_PLL3Q:  /* PLL3_Q is used as clock source for SPI6 */
        __HAL_RCC_PLL3CLKOUT_ENABLE(RCC_PLL_QCLK);
70003814:	4b87      	ldr	r3, [pc, #540]	@ (70003a34 <HAL_RCCEx_PeriphCLKConfig+0x17a8>)
70003816:	6adb      	ldr	r3, [r3, #44]	@ 0x2c
70003818:	4a86      	ldr	r2, [pc, #536]	@ (70003a34 <HAL_RCCEx_PeriphCLKConfig+0x17a8>)
7000381a:	f043 5380 	orr.w	r3, r3, #268435456	@ 0x10000000
7000381e:	62d3      	str	r3, [r2, #44]	@ 0x2c
        /* SPI6 clock source configuration done later after clock selection check */
        break;
70003820:	e009      	b.n	70003836 <HAL_RCCEx_PeriphCLKConfig+0x15aa>
      case RCC_SPI6CLKSOURCE_HSE: /* HSE oscillator is used as source for SPI6 */
        /* SPI6 clock source configuration done later after clock selection check */
        break;

      default:
        ret = HAL_ERROR;
70003822:	2301      	movs	r3, #1
70003824:	75fb      	strb	r3, [r7, #23]
        break;
70003826:	e006      	b.n	70003836 <HAL_RCCEx_PeriphCLKConfig+0x15aa>
        break;
70003828:	bf00      	nop
7000382a:	e004      	b.n	70003836 <HAL_RCCEx_PeriphCLKConfig+0x15aa>
        break;
7000382c:	bf00      	nop
7000382e:	e002      	b.n	70003836 <HAL_RCCEx_PeriphCLKConfig+0x15aa>
        break;
70003830:	bf00      	nop
70003832:	e000      	b.n	70003836 <HAL_RCCEx_PeriphCLKConfig+0x15aa>
        break;
70003834:	bf00      	nop
    }

    if (ret == HAL_OK)
70003836:	7dfb      	ldrb	r3, [r7, #23]
70003838:	2b00      	cmp	r3, #0
7000383a:	d109      	bne.n	70003850 <HAL_RCCEx_PeriphCLKConfig+0x15c4>
    {
      /* Set the source of SPI6 clock*/
      __HAL_RCC_SPI6_CONFIG(PeriphClkInit->Spi6ClockSelection);
7000383c:	4b7d      	ldr	r3, [pc, #500]	@ (70003a34 <HAL_RCCEx_PeriphCLKConfig+0x17a8>)
7000383e:	6d9b      	ldr	r3, [r3, #88]	@ 0x58
70003840:	f023 0270 	bic.w	r2, r3, #112	@ 0x70
70003844:	687b      	ldr	r3, [r7, #4]
70003846:	6e5b      	ldr	r3, [r3, #100]	@ 0x64
70003848:	497a      	ldr	r1, [pc, #488]	@ (70003a34 <HAL_RCCEx_PeriphCLKConfig+0x17a8>)
7000384a:	4313      	orrs	r3, r2
7000384c:	658b      	str	r3, [r1, #88]	@ 0x58
7000384e:	e001      	b.n	70003854 <HAL_RCCEx_PeriphCLKConfig+0x15c8>
    }
    else
    {
      /* set overall return value */
      status = ret;
70003850:	7dfb      	ldrb	r3, [r7, #23]
70003852:	75bb      	strb	r3, [r7, #22]
    }
  }

  /*-------------------------- USART1 configuration --------------------------*/
  if ((PeriphClkInit->PeriphClockSelection & RCC_PERIPHCLK_USART1) == RCC_PERIPHCLK_USART1)
70003854:	687b      	ldr	r3, [r7, #4]
70003856:	681b      	ldr	r3, [r3, #0]
70003858:	f003 5380 	and.w	r3, r3, #268435456	@ 0x10000000
7000385c:	2b00      	cmp	r3, #0
7000385e:	d050      	beq.n	70003902 <HAL_RCCEx_PeriphCLKConfig+0x1676>
  {
    /* Check the parameters */
    assert_param(IS_RCC_USART1CLKSOURCE(PeriphClkInit->Usart1ClockSelection));
70003860:	687b      	ldr	r3, [r7, #4]
70003862:	6edb      	ldr	r3, [r3, #108]	@ 0x6c
70003864:	2b00      	cmp	r3, #0
70003866:	d018      	beq.n	7000389a <HAL_RCCEx_PeriphCLKConfig+0x160e>
70003868:	687b      	ldr	r3, [r7, #4]
7000386a:	6edb      	ldr	r3, [r3, #108]	@ 0x6c
7000386c:	2b01      	cmp	r3, #1
7000386e:	d014      	beq.n	7000389a <HAL_RCCEx_PeriphCLKConfig+0x160e>
70003870:	687b      	ldr	r3, [r7, #4]
70003872:	6edb      	ldr	r3, [r3, #108]	@ 0x6c
70003874:	2b02      	cmp	r3, #2
70003876:	d010      	beq.n	7000389a <HAL_RCCEx_PeriphCLKConfig+0x160e>
70003878:	687b      	ldr	r3, [r7, #4]
7000387a:	6edb      	ldr	r3, [r3, #108]	@ 0x6c
7000387c:	2b03      	cmp	r3, #3
7000387e:	d00c      	beq.n	7000389a <HAL_RCCEx_PeriphCLKConfig+0x160e>
70003880:	687b      	ldr	r3, [r7, #4]
70003882:	6edb      	ldr	r3, [r3, #108]	@ 0x6c
70003884:	2b04      	cmp	r3, #4
70003886:	d008      	beq.n	7000389a <HAL_RCCEx_PeriphCLKConfig+0x160e>
70003888:	687b      	ldr	r3, [r7, #4]
7000388a:	6edb      	ldr	r3, [r3, #108]	@ 0x6c
7000388c:	2b05      	cmp	r3, #5
7000388e:	d004      	beq.n	7000389a <HAL_RCCEx_PeriphCLKConfig+0x160e>
70003890:	f240 41b5 	movw	r1, #1205	@ 0x4b5
70003894:	4866      	ldr	r0, [pc, #408]	@ (70003a30 <HAL_RCCEx_PeriphCLKConfig+0x17a4>)
70003896:	f7fd f9b1 	bl	70000bfc <assert_failed>

    switch (PeriphClkInit->Usart1ClockSelection)
7000389a:	687b      	ldr	r3, [r7, #4]
7000389c:	6edb      	ldr	r3, [r3, #108]	@ 0x6c
7000389e:	2b05      	cmp	r3, #5
700038a0:	d81c      	bhi.n	700038dc <HAL_RCCEx_PeriphCLKConfig+0x1650>
700038a2:	a201      	add	r2, pc, #4	@ (adr r2, 700038a8 <HAL_RCCEx_PeriphCLKConfig+0x161c>)
700038a4:	f852 f023 	ldr.w	pc, [r2, r3, lsl #2]
700038a8:	700038e3 	.word	0x700038e3
700038ac:	700038c1 	.word	0x700038c1
700038b0:	700038cf 	.word	0x700038cf
700038b4:	700038e3 	.word	0x700038e3
700038b8:	700038e3 	.word	0x700038e3
700038bc:	700038e3 	.word	0x700038e3
      case RCC_USART1CLKSOURCE_PCLK2: /* PCLK2 as clock source for USART1 */
        /* USART1 clock source configuration done later after clock selection check */
        break;

      case RCC_USART1CLKSOURCE_PLL2Q: /* PLL2_Q is used as clock source for USART1 */
        __HAL_RCC_PLL2CLKOUT_ENABLE(RCC_PLL_QCLK);
700038c0:	4b5c      	ldr	r3, [pc, #368]	@ (70003a34 <HAL_RCCEx_PeriphCLKConfig+0x17a8>)
700038c2:	6adb      	ldr	r3, [r3, #44]	@ 0x2c
700038c4:	4a5b      	ldr	r2, [pc, #364]	@ (70003a34 <HAL_RCCEx_PeriphCLKConfig+0x17a8>)
700038c6:	f443 3300 	orr.w	r3, r3, #131072	@ 0x20000
700038ca:	62d3      	str	r3, [r2, #44]	@ 0x2c
        /* USART1 clock source configuration done later after clock selection check */
        break;
700038cc:	e00a      	b.n	700038e4 <HAL_RCCEx_PeriphCLKConfig+0x1658>

      case RCC_USART1CLKSOURCE_PLL3Q: /* PLL3_Q is used as clock source for USART1 */
        __HAL_RCC_PLL3CLKOUT_ENABLE(RCC_PLL_QCLK);
700038ce:	4b59      	ldr	r3, [pc, #356]	@ (70003a34 <HAL_RCCEx_PeriphCLKConfig+0x17a8>)
700038d0:	6adb      	ldr	r3, [r3, #44]	@ 0x2c
700038d2:	4a58      	ldr	r2, [pc, #352]	@ (70003a34 <HAL_RCCEx_PeriphCLKConfig+0x17a8>)
700038d4:	f043 5380 	orr.w	r3, r3, #268435456	@ 0x10000000
700038d8:	62d3      	str	r3, [r2, #44]	@ 0x2c
        /* USART1 clock source configuration done later after clock selection check */
        break;
700038da:	e003      	b.n	700038e4 <HAL_RCCEx_PeriphCLKConfig+0x1658>
      case RCC_USART1CLKSOURCE_LSE: /* LSE oscillator is used as source for USART1 */
        /* USART1 clock source configuration done later after clock selection check */
        break;

      default:
        ret = HAL_ERROR;
700038dc:	2301      	movs	r3, #1
700038de:	75fb      	strb	r3, [r7, #23]
        break;
700038e0:	e000      	b.n	700038e4 <HAL_RCCEx_PeriphCLKConfig+0x1658>
        break;
700038e2:	bf00      	nop
    }

    if (ret == HAL_OK)
700038e4:	7dfb      	ldrb	r3, [r7, #23]
700038e6:	2b00      	cmp	r3, #0
700038e8:	d109      	bne.n	700038fe <HAL_RCCEx_PeriphCLKConfig+0x1672>
    {
      /* Set the source of USART1 clock */
      __HAL_RCC_USART1_CONFIG(PeriphClkInit->Usart1ClockSelection);
700038ea:	4b52      	ldr	r3, [pc, #328]	@ (70003a34 <HAL_RCCEx_PeriphCLKConfig+0x17a8>)
700038ec:	6d5b      	ldr	r3, [r3, #84]	@ 0x54
700038ee:	f023 0207 	bic.w	r2, r3, #7
700038f2:	687b      	ldr	r3, [r7, #4]
700038f4:	6edb      	ldr	r3, [r3, #108]	@ 0x6c
700038f6:	494f      	ldr	r1, [pc, #316]	@ (70003a34 <HAL_RCCEx_PeriphCLKConfig+0x17a8>)
700038f8:	4313      	orrs	r3, r2
700038fa:	654b      	str	r3, [r1, #84]	@ 0x54
700038fc:	e001      	b.n	70003902 <HAL_RCCEx_PeriphCLKConfig+0x1676>
    }
    else
    {
      /* set overall return value */
      status = ret;
700038fe:	7dfb      	ldrb	r3, [r7, #23]
70003900:	75bb      	strb	r3, [r7, #22]
    }
  }

  /*------------- USART2/USART3/UART4/UART5/UART7/UART8 Configuration --------*/
  if ((PeriphClkInit->PeriphClockSelection & RCC_PERIPHCLK_USART234578) == RCC_PERIPHCLK_USART234578)
70003902:	687b      	ldr	r3, [r7, #4]
70003904:	681b      	ldr	r3, [r3, #0]
70003906:	f003 5300 	and.w	r3, r3, #536870912	@ 0x20000000
7000390a:	2b00      	cmp	r3, #0
7000390c:	d051      	beq.n	700039b2 <HAL_RCCEx_PeriphCLKConfig+0x1726>
  {
    /* Check the parameters */
    assert_param(IS_RCC_USART234578CLKSOURCE(PeriphClkInit->Usart234578ClockSelection));
7000390e:	687b      	ldr	r3, [r7, #4]
70003910:	6f1b      	ldr	r3, [r3, #112]	@ 0x70
70003912:	2b00      	cmp	r3, #0
70003914:	d018      	beq.n	70003948 <HAL_RCCEx_PeriphCLKConfig+0x16bc>
70003916:	687b      	ldr	r3, [r7, #4]
70003918:	6f1b      	ldr	r3, [r3, #112]	@ 0x70
7000391a:	2b01      	cmp	r3, #1
7000391c:	d014      	beq.n	70003948 <HAL_RCCEx_PeriphCLKConfig+0x16bc>
7000391e:	687b      	ldr	r3, [r7, #4]
70003920:	6f1b      	ldr	r3, [r3, #112]	@ 0x70
70003922:	2b02      	cmp	r3, #2
70003924:	d010      	beq.n	70003948 <HAL_RCCEx_PeriphCLKConfig+0x16bc>
70003926:	687b      	ldr	r3, [r7, #4]
70003928:	6f1b      	ldr	r3, [r3, #112]	@ 0x70
7000392a:	2b03      	cmp	r3, #3
7000392c:	d00c      	beq.n	70003948 <HAL_RCCEx_PeriphCLKConfig+0x16bc>
7000392e:	687b      	ldr	r3, [r7, #4]
70003930:	6f1b      	ldr	r3, [r3, #112]	@ 0x70
70003932:	2b05      	cmp	r3, #5
70003934:	d008      	beq.n	70003948 <HAL_RCCEx_PeriphCLKConfig+0x16bc>
70003936:	687b      	ldr	r3, [r7, #4]
70003938:	6f1b      	ldr	r3, [r3, #112]	@ 0x70
7000393a:	2b04      	cmp	r3, #4
7000393c:	d004      	beq.n	70003948 <HAL_RCCEx_PeriphCLKConfig+0x16bc>
7000393e:	f44f 619d 	mov.w	r1, #1256	@ 0x4e8
70003942:	483b      	ldr	r0, [pc, #236]	@ (70003a30 <HAL_RCCEx_PeriphCLKConfig+0x17a4>)
70003944:	f7fd f95a 	bl	70000bfc <assert_failed>

    switch (PeriphClkInit->Usart234578ClockSelection)
70003948:	687b      	ldr	r3, [r7, #4]
7000394a:	6f1b      	ldr	r3, [r3, #112]	@ 0x70
7000394c:	2b05      	cmp	r3, #5
7000394e:	d81d      	bhi.n	7000398c <HAL_RCCEx_PeriphCLKConfig+0x1700>
70003950:	a201      	add	r2, pc, #4	@ (adr r2, 70003958 <HAL_RCCEx_PeriphCLKConfig+0x16cc>)
70003952:	f852 f023 	ldr.w	pc, [r2, r3, lsl #2]
70003956:	bf00      	nop
70003958:	70003993 	.word	0x70003993
7000395c:	70003971 	.word	0x70003971
70003960:	7000397f 	.word	0x7000397f
70003964:	70003993 	.word	0x70003993
70003968:	70003993 	.word	0x70003993
7000396c:	70003993 	.word	0x70003993
      case RCC_USART234578CLKSOURCE_PCLK1: /* PCLK1 as clock source for USART2/USART3/UART4/UART5/UART7/UART8 */
        /* USART2/USART3/UART4/UART5/UART7/UART8 clock source configuration done later after clock selection check */
        break;

      case RCC_USART234578CLKSOURCE_PLL2Q: /* PLL2_Q is used as clock source for USART2/USART3/UART4/UART5/UART7/UART8 */
        __HAL_RCC_PLL2CLKOUT_ENABLE(RCC_PLL_QCLK);
70003970:	4b30      	ldr	r3, [pc, #192]	@ (70003a34 <HAL_RCCEx_PeriphCLKConfig+0x17a8>)
70003972:	6adb      	ldr	r3, [r3, #44]	@ 0x2c
70003974:	4a2f      	ldr	r2, [pc, #188]	@ (70003a34 <HAL_RCCEx_PeriphCLKConfig+0x17a8>)
70003976:	f443 3300 	orr.w	r3, r3, #131072	@ 0x20000
7000397a:	62d3      	str	r3, [r2, #44]	@ 0x2c
        /* USART2/USART3/UART4/UART5/UART7/UART8 clock source configuration done later after clock selection check */
        break;
7000397c:	e00a      	b.n	70003994 <HAL_RCCEx_PeriphCLKConfig+0x1708>

      case RCC_USART234578CLKSOURCE_PLL3Q: /* PLL3_Q is used as clock source for USART2/USART3/UART4/UART5/UART7/UART8 */
        __HAL_RCC_PLL3CLKOUT_ENABLE(RCC_PLL_QCLK);
7000397e:	4b2d      	ldr	r3, [pc, #180]	@ (70003a34 <HAL_RCCEx_PeriphCLKConfig+0x17a8>)
70003980:	6adb      	ldr	r3, [r3, #44]	@ 0x2c
70003982:	4a2c      	ldr	r2, [pc, #176]	@ (70003a34 <HAL_RCCEx_PeriphCLKConfig+0x17a8>)
70003984:	f043 5380 	orr.w	r3, r3, #268435456	@ 0x10000000
70003988:	62d3      	str	r3, [r2, #44]	@ 0x2c
        /* USART2/USART3/UART4/UART5/UART7/UART8 clock source configuration done later after clock selection check */
        break;
7000398a:	e003      	b.n	70003994 <HAL_RCCEx_PeriphCLKConfig+0x1708>
        /* LSE,  oscillator is used as source of USART2/USART3/UART4/UART5/UART7/UART8 clock */
        /* USART2/USART3/UART4/UART5/UART7/UART8 clock source configuration done later after clock selection check */
        break;

      default:
        ret = HAL_ERROR;
7000398c:	2301      	movs	r3, #1
7000398e:	75fb      	strb	r3, [r7, #23]
        break;
70003990:	e000      	b.n	70003994 <HAL_RCCEx_PeriphCLKConfig+0x1708>
        break;
70003992:	bf00      	nop
    }

    if (ret == HAL_OK)
70003994:	7dfb      	ldrb	r3, [r7, #23]
70003996:	2b00      	cmp	r3, #0
70003998:	d109      	bne.n	700039ae <HAL_RCCEx_PeriphCLKConfig+0x1722>
    {
      /* Set the source of USART2/USART3/UART4/UART5/UART7/UART8 clock */
      __HAL_RCC_USART234578_CONFIG(PeriphClkInit->Usart234578ClockSelection);
7000399a:	4b26      	ldr	r3, [pc, #152]	@ (70003a34 <HAL_RCCEx_PeriphCLKConfig+0x17a8>)
7000399c:	6d1b      	ldr	r3, [r3, #80]	@ 0x50
7000399e:	f023 0207 	bic.w	r2, r3, #7
700039a2:	687b      	ldr	r3, [r7, #4]
700039a4:	6f1b      	ldr	r3, [r3, #112]	@ 0x70
700039a6:	4923      	ldr	r1, [pc, #140]	@ (70003a34 <HAL_RCCEx_PeriphCLKConfig+0x17a8>)
700039a8:	4313      	orrs	r3, r2
700039aa:	650b      	str	r3, [r1, #80]	@ 0x50
700039ac:	e001      	b.n	700039b2 <HAL_RCCEx_PeriphCLKConfig+0x1726>
    }
    else
    {
      /* set overall return value */
      status = ret;
700039ae:	7dfb      	ldrb	r3, [r7, #23]
700039b0:	75bb      	strb	r3, [r7, #22]
    }
  }

  /*------------------------------ USBPHYC Configuration ---------------------*/
  if ((PeriphClkInit->PeriphClockSelection & RCC_PERIPHCLK_USBPHYC) == RCC_PERIPHCLK_USBPHYC)
700039b2:	687b      	ldr	r3, [r7, #4]
700039b4:	681b      	ldr	r3, [r3, #0]
700039b6:	f003 4380 	and.w	r3, r3, #1073741824	@ 0x40000000
700039ba:	2b00      	cmp	r3, #0
700039bc:	d03e      	beq.n	70003a3c <HAL_RCCEx_PeriphCLKConfig+0x17b0>
  {
    /* Check the parameters */
    assert_param(IS_RCC_USBPHYCCLKSOURCE(PeriphClkInit->UsbPhycClockSelection));
700039be:	687b      	ldr	r3, [r7, #4]
700039c0:	6f5b      	ldr	r3, [r3, #116]	@ 0x74
700039c2:	2b00      	cmp	r3, #0
700039c4:	d00e      	beq.n	700039e4 <HAL_RCCEx_PeriphCLKConfig+0x1758>
700039c6:	687b      	ldr	r3, [r7, #4]
700039c8:	6f5b      	ldr	r3, [r3, #116]	@ 0x74
700039ca:	f5b3 5f80 	cmp.w	r3, #4096	@ 0x1000
700039ce:	d009      	beq.n	700039e4 <HAL_RCCEx_PeriphCLKConfig+0x1758>
700039d0:	687b      	ldr	r3, [r7, #4]
700039d2:	6f5b      	ldr	r3, [r3, #116]	@ 0x74
700039d4:	f5b3 5f00 	cmp.w	r3, #8192	@ 0x2000
700039d8:	d004      	beq.n	700039e4 <HAL_RCCEx_PeriphCLKConfig+0x1758>
700039da:	f240 511e 	movw	r1, #1310	@ 0x51e
700039de:	4814      	ldr	r0, [pc, #80]	@ (70003a30 <HAL_RCCEx_PeriphCLKConfig+0x17a4>)
700039e0:	f7fd f90c 	bl	70000bfc <assert_failed>

    switch (PeriphClkInit->UsbPhycClockSelection)
700039e4:	687b      	ldr	r3, [r7, #4]
700039e6:	6f5b      	ldr	r3, [r3, #116]	@ 0x74
700039e8:	f5b3 5f00 	cmp.w	r3, #8192	@ 0x2000
700039ec:	d008      	beq.n	70003a00 <HAL_RCCEx_PeriphCLKConfig+0x1774>
700039ee:	f5b3 5f00 	cmp.w	r3, #8192	@ 0x2000
700039f2:	d80c      	bhi.n	70003a0e <HAL_RCCEx_PeriphCLKConfig+0x1782>
700039f4:	2b00      	cmp	r3, #0
700039f6:	d00d      	beq.n	70003a14 <HAL_RCCEx_PeriphCLKConfig+0x1788>
700039f8:	f5b3 5f80 	cmp.w	r3, #4096	@ 0x1000
700039fc:	d00a      	beq.n	70003a14 <HAL_RCCEx_PeriphCLKConfig+0x1788>
700039fe:	e006      	b.n	70003a0e <HAL_RCCEx_PeriphCLKConfig+0x1782>
    {
      case RCC_USBPHYCCLKSOURCE_PLL3Q: /* PLL3_Q is used as clock source for USBPHYC */
        __HAL_RCC_PLL3CLKOUT_ENABLE(RCC_PLL_QCLK);
70003a00:	4b0c      	ldr	r3, [pc, #48]	@ (70003a34 <HAL_RCCEx_PeriphCLKConfig+0x17a8>)
70003a02:	6adb      	ldr	r3, [r3, #44]	@ 0x2c
70003a04:	4a0b      	ldr	r2, [pc, #44]	@ (70003a34 <HAL_RCCEx_PeriphCLKConfig+0x17a8>)
70003a06:	f043 5380 	orr.w	r3, r3, #268435456	@ 0x10000000
70003a0a:	62d3      	str	r3, [r2, #44]	@ 0x2c
        /* USBPHYC clock source configuration done later after clock selection check */
        break;
70003a0c:	e003      	b.n	70003a16 <HAL_RCCEx_PeriphCLKConfig+0x178a>
      case RCC_USBPHYCCLKSOURCE_HSE_DIV2: /* HSE divided by 2 is used as clock source for USBPHYC */
        /* USBPHYC clock source configuration done later after clock selection check */
        break;

      default:
        ret = HAL_ERROR;
70003a0e:	2301      	movs	r3, #1
70003a10:	75fb      	strb	r3, [r7, #23]
        break;
70003a12:	e000      	b.n	70003a16 <HAL_RCCEx_PeriphCLKConfig+0x178a>
        break;
70003a14:	bf00      	nop
    }

    if (ret == HAL_OK)
70003a16:	7dfb      	ldrb	r3, [r7, #23]
70003a18:	2b00      	cmp	r3, #0
70003a1a:	d10d      	bne.n	70003a38 <HAL_RCCEx_PeriphCLKConfig+0x17ac>
    {
      /* Set the source of USBPHYC clock*/
      __HAL_RCC_USBPHYC_CONFIG(PeriphClkInit->UsbPhycClockSelection);
70003a1c:	4b05      	ldr	r3, [pc, #20]	@ (70003a34 <HAL_RCCEx_PeriphCLKConfig+0x17a8>)
70003a1e:	6cdb      	ldr	r3, [r3, #76]	@ 0x4c
70003a20:	f423 5240 	bic.w	r2, r3, #12288	@ 0x3000
70003a24:	687b      	ldr	r3, [r7, #4]
70003a26:	6f5b      	ldr	r3, [r3, #116]	@ 0x74
70003a28:	4902      	ldr	r1, [pc, #8]	@ (70003a34 <HAL_RCCEx_PeriphCLKConfig+0x17a8>)
70003a2a:	4313      	orrs	r3, r2
70003a2c:	64cb      	str	r3, [r1, #76]	@ 0x4c
70003a2e:	e005      	b.n	70003a3c <HAL_RCCEx_PeriphCLKConfig+0x17b0>
70003a30:	700068ec 	.word	0x700068ec
70003a34:	58024400 	.word	0x58024400
    }
    else
    {
      /* set overall return value */
      status = ret;
70003a38:	7dfb      	ldrb	r3, [r7, #23]
70003a3a:	75bb      	strb	r3, [r7, #22]
    }
  }

  /*------------------------------ USBOTGFS Configuration ---------------------*/
  if ((PeriphClkInit->PeriphClockSelection & RCC_PERIPHCLK_USBOTGFS) == RCC_PERIPHCLK_USBOTGFS)
70003a3c:	687b      	ldr	r3, [r7, #4]
70003a3e:	681b      	ldr	r3, [r3, #0]
70003a40:	2b00      	cmp	r3, #0
70003a42:	da44      	bge.n	70003ace <HAL_RCCEx_PeriphCLKConfig+0x1842>
  {
    /* Check the parameters */
    assert_param(IS_RCC_USBOTGFSCLKSOURCE(PeriphClkInit->UsbOtgFsClockSelection));
70003a44:	687b      	ldr	r3, [r7, #4]
70003a46:	6f9b      	ldr	r3, [r3, #120]	@ 0x78
70003a48:	2b00      	cmp	r3, #0
70003a4a:	d013      	beq.n	70003a74 <HAL_RCCEx_PeriphCLKConfig+0x17e8>
70003a4c:	687b      	ldr	r3, [r7, #4]
70003a4e:	6f9b      	ldr	r3, [r3, #120]	@ 0x78
70003a50:	f5b3 4f80 	cmp.w	r3, #16384	@ 0x4000
70003a54:	d00e      	beq.n	70003a74 <HAL_RCCEx_PeriphCLKConfig+0x17e8>
70003a56:	687b      	ldr	r3, [r7, #4]
70003a58:	6f9b      	ldr	r3, [r3, #120]	@ 0x78
70003a5a:	f5b3 4f00 	cmp.w	r3, #32768	@ 0x8000
70003a5e:	d009      	beq.n	70003a74 <HAL_RCCEx_PeriphCLKConfig+0x17e8>
70003a60:	687b      	ldr	r3, [r7, #4]
70003a62:	6f9b      	ldr	r3, [r3, #120]	@ 0x78
70003a64:	f5b3 4f40 	cmp.w	r3, #49152	@ 0xc000
70003a68:	d004      	beq.n	70003a74 <HAL_RCCEx_PeriphCLKConfig+0x17e8>
70003a6a:	f240 5141 	movw	r1, #1345	@ 0x541
70003a6e:	482d      	ldr	r0, [pc, #180]	@ (70003b24 <HAL_RCCEx_PeriphCLKConfig+0x1898>)
70003a70:	f7fd f8c4 	bl	70000bfc <assert_failed>

    switch (PeriphClkInit->UsbOtgFsClockSelection)
70003a74:	687b      	ldr	r3, [r7, #4]
70003a76:	6f9b      	ldr	r3, [r3, #120]	@ 0x78
70003a78:	f5b3 4f40 	cmp.w	r3, #49152	@ 0xc000
70003a7c:	d017      	beq.n	70003aae <HAL_RCCEx_PeriphCLKConfig+0x1822>
70003a7e:	f5b3 4f40 	cmp.w	r3, #49152	@ 0xc000
70003a82:	d811      	bhi.n	70003aa8 <HAL_RCCEx_PeriphCLKConfig+0x181c>
70003a84:	f5b3 4f00 	cmp.w	r3, #32768	@ 0x8000
70003a88:	d011      	beq.n	70003aae <HAL_RCCEx_PeriphCLKConfig+0x1822>
70003a8a:	f5b3 4f00 	cmp.w	r3, #32768	@ 0x8000
70003a8e:	d80b      	bhi.n	70003aa8 <HAL_RCCEx_PeriphCLKConfig+0x181c>
70003a90:	2b00      	cmp	r3, #0
70003a92:	d00c      	beq.n	70003aae <HAL_RCCEx_PeriphCLKConfig+0x1822>
70003a94:	f5b3 4f80 	cmp.w	r3, #16384	@ 0x4000
70003a98:	d106      	bne.n	70003aa8 <HAL_RCCEx_PeriphCLKConfig+0x181c>
    {
      case RCC_USBOTGFSCLKSOURCE_PLL3Q: /* PLL3_Q is used as clock source for USB OTG FS */
        __HAL_RCC_PLL3CLKOUT_ENABLE(RCC_PLL_QCLK);
70003a9a:	4b23      	ldr	r3, [pc, #140]	@ (70003b28 <HAL_RCCEx_PeriphCLKConfig+0x189c>)
70003a9c:	6adb      	ldr	r3, [r3, #44]	@ 0x2c
70003a9e:	4a22      	ldr	r2, [pc, #136]	@ (70003b28 <HAL_RCCEx_PeriphCLKConfig+0x189c>)
70003aa0:	f043 5380 	orr.w	r3, r3, #268435456	@ 0x10000000
70003aa4:	62d3      	str	r3, [r2, #44]	@ 0x2c
        /* USB OTG FS clock source configuration done later after clock selection check */
        break;
70003aa6:	e003      	b.n	70003ab0 <HAL_RCCEx_PeriphCLKConfig+0x1824>
      case RCC_USBOTGFSCLKSOURCE_CLK48: /* USBPHYC CLK48 is used as clock source for USB OTG FS */
        /* USB OTG FS clock source configuration done later after clock selection check */
        break;

      default:
        ret = HAL_ERROR;
70003aa8:	2301      	movs	r3, #1
70003aaa:	75fb      	strb	r3, [r7, #23]
        break;
70003aac:	e000      	b.n	70003ab0 <HAL_RCCEx_PeriphCLKConfig+0x1824>
        break;
70003aae:	bf00      	nop
    }

    if (ret == HAL_OK)
70003ab0:	7dfb      	ldrb	r3, [r7, #23]
70003ab2:	2b00      	cmp	r3, #0
70003ab4:	d109      	bne.n	70003aca <HAL_RCCEx_PeriphCLKConfig+0x183e>
    {
      /* Set the source of USBPHYC clock*/
      __HAL_RCC_USBOTGFS_CONFIG(PeriphClkInit->UsbOtgFsClockSelection);
70003ab6:	4b1c      	ldr	r3, [pc, #112]	@ (70003b28 <HAL_RCCEx_PeriphCLKConfig+0x189c>)
70003ab8:	6cdb      	ldr	r3, [r3, #76]	@ 0x4c
70003aba:	f423 4240 	bic.w	r2, r3, #49152	@ 0xc000
70003abe:	687b      	ldr	r3, [r7, #4]
70003ac0:	6f9b      	ldr	r3, [r3, #120]	@ 0x78
70003ac2:	4919      	ldr	r1, [pc, #100]	@ (70003b28 <HAL_RCCEx_PeriphCLKConfig+0x189c>)
70003ac4:	4313      	orrs	r3, r2
70003ac6:	64cb      	str	r3, [r1, #76]	@ 0x4c
70003ac8:	e001      	b.n	70003ace <HAL_RCCEx_PeriphCLKConfig+0x1842>
    }
    else
    {
      /* set overall return value */
      status = ret;
70003aca:	7dfb      	ldrb	r3, [r7, #23]
70003acc:	75bb      	strb	r3, [r7, #22]
    }
  }

  /*------------------------------------ TIM configuration --------------------------------------*/
  if ((PeriphClkInit->PeriphClockSelection & RCC_PERIPHCLK_TIM) == RCC_PERIPHCLK_TIM)
70003ace:	687b      	ldr	r3, [r7, #4]
70003ad0:	681b      	ldr	r3, [r3, #0]
70003ad2:	f003 6300 	and.w	r3, r3, #134217728	@ 0x8000000
70003ad6:	2b00      	cmp	r3, #0
70003ad8:	d019      	beq.n	70003b0e <HAL_RCCEx_PeriphCLKConfig+0x1882>
  {
    /* Check the parameters */
    assert_param(IS_RCC_TIMCLKPRESCALER(PeriphClkInit->TIMPresSelection));
70003ada:	687b      	ldr	r3, [r7, #4]
70003adc:	f8d3 3080 	ldr.w	r3, [r3, #128]	@ 0x80
70003ae0:	2b00      	cmp	r3, #0
70003ae2:	d00a      	beq.n	70003afa <HAL_RCCEx_PeriphCLKConfig+0x186e>
70003ae4:	687b      	ldr	r3, [r7, #4]
70003ae6:	f8d3 3080 	ldr.w	r3, [r3, #128]	@ 0x80
70003aea:	f5b3 4f00 	cmp.w	r3, #32768	@ 0x8000
70003aee:	d004      	beq.n	70003afa <HAL_RCCEx_PeriphCLKConfig+0x186e>
70003af0:	f240 5165 	movw	r1, #1381	@ 0x565
70003af4:	480b      	ldr	r0, [pc, #44]	@ (70003b24 <HAL_RCCEx_PeriphCLKConfig+0x1898>)
70003af6:	f7fd f881 	bl	70000bfc <assert_failed>

    /* Configure Timer Prescaler */
    __HAL_RCC_TIMCLKPRESCALER_CONFIG(PeriphClkInit->TIMPresSelection);
70003afa:	4b0b      	ldr	r3, [pc, #44]	@ (70003b28 <HAL_RCCEx_PeriphCLKConfig+0x189c>)
70003afc:	691b      	ldr	r3, [r3, #16]
70003afe:	f423 4200 	bic.w	r2, r3, #32768	@ 0x8000
70003b02:	687b      	ldr	r3, [r7, #4]
70003b04:	f8d3 3080 	ldr.w	r3, [r3, #128]	@ 0x80
70003b08:	4907      	ldr	r1, [pc, #28]	@ (70003b28 <HAL_RCCEx_PeriphCLKConfig+0x189c>)
70003b0a:	4313      	orrs	r3, r2
70003b0c:	610b      	str	r3, [r1, #16]
  }

  if (status == HAL_OK)
70003b0e:	7dbb      	ldrb	r3, [r7, #22]
70003b10:	2b00      	cmp	r3, #0
70003b12:	d101      	bne.n	70003b18 <HAL_RCCEx_PeriphCLKConfig+0x188c>
  {
    return HAL_OK;
70003b14:	2300      	movs	r3, #0
70003b16:	e000      	b.n	70003b1a <HAL_RCCEx_PeriphCLKConfig+0x188e>
  }
  return HAL_ERROR;
70003b18:	2301      	movs	r3, #1
}
70003b1a:	4618      	mov	r0, r3
70003b1c:	3718      	adds	r7, #24
70003b1e:	46bd      	mov	sp, r7
70003b20:	bd80      	pop	{r7, pc}
70003b22:	bf00      	nop
70003b24:	700068ec 	.word	0x700068ec
70003b28:	58024400 	.word	0x58024400

70003b2c <HAL_UART_Init>:
  *        parameters in the UART_InitTypeDef and initialize the associated handle.
  * @param huart UART handle.
  * @retval HAL status
  */
HAL_StatusTypeDef HAL_UART_Init(UART_HandleTypeDef *huart)
{
70003b2c:	b580      	push	{r7, lr}
70003b2e:	b082      	sub	sp, #8
70003b30:	af00      	add	r7, sp, #0
70003b32:	6078      	str	r0, [r7, #4]
  /* Check the UART handle allocation */
  if (huart == NULL)
70003b34:	687b      	ldr	r3, [r7, #4]
70003b36:	2b00      	cmp	r3, #0
70003b38:	d101      	bne.n	70003b3e <HAL_UART_Init+0x12>
  {
    return HAL_ERROR;
70003b3a:	2301      	movs	r3, #1
70003b3c:	e0a1      	b.n	70003c82 <HAL_UART_Init+0x156>
  }

  if (huart->Init.HwFlowCtl != UART_HWCONTROL_NONE)
70003b3e:	687b      	ldr	r3, [r7, #4]
70003b40:	699b      	ldr	r3, [r3, #24]
70003b42:	2b00      	cmp	r3, #0
70003b44:	d02d      	beq.n	70003ba2 <HAL_UART_Init+0x76>
  {
    /* Check the parameters */
    assert_param(IS_UART_HWFLOW_INSTANCE(huart->Instance));
70003b46:	687b      	ldr	r3, [r7, #4]
70003b48:	681b      	ldr	r3, [r3, #0]
70003b4a:	4a50      	ldr	r2, [pc, #320]	@ (70003c8c <HAL_UART_Init+0x160>)
70003b4c:	4293      	cmp	r3, r2
70003b4e:	d055      	beq.n	70003bfc <HAL_UART_Init+0xd0>
70003b50:	687b      	ldr	r3, [r7, #4]
70003b52:	681b      	ldr	r3, [r3, #0]
70003b54:	4a4e      	ldr	r2, [pc, #312]	@ (70003c90 <HAL_UART_Init+0x164>)
70003b56:	4293      	cmp	r3, r2
70003b58:	d050      	beq.n	70003bfc <HAL_UART_Init+0xd0>
70003b5a:	687b      	ldr	r3, [r7, #4]
70003b5c:	681b      	ldr	r3, [r3, #0]
70003b5e:	4a4d      	ldr	r2, [pc, #308]	@ (70003c94 <HAL_UART_Init+0x168>)
70003b60:	4293      	cmp	r3, r2
70003b62:	d04b      	beq.n	70003bfc <HAL_UART_Init+0xd0>
70003b64:	687b      	ldr	r3, [r7, #4]
70003b66:	681b      	ldr	r3, [r3, #0]
70003b68:	4a4b      	ldr	r2, [pc, #300]	@ (70003c98 <HAL_UART_Init+0x16c>)
70003b6a:	4293      	cmp	r3, r2
70003b6c:	d046      	beq.n	70003bfc <HAL_UART_Init+0xd0>
70003b6e:	687b      	ldr	r3, [r7, #4]
70003b70:	681b      	ldr	r3, [r3, #0]
70003b72:	4a4a      	ldr	r2, [pc, #296]	@ (70003c9c <HAL_UART_Init+0x170>)
70003b74:	4293      	cmp	r3, r2
70003b76:	d041      	beq.n	70003bfc <HAL_UART_Init+0xd0>
70003b78:	687b      	ldr	r3, [r7, #4]
70003b7a:	681b      	ldr	r3, [r3, #0]
70003b7c:	4a48      	ldr	r2, [pc, #288]	@ (70003ca0 <HAL_UART_Init+0x174>)
70003b7e:	4293      	cmp	r3, r2
70003b80:	d03c      	beq.n	70003bfc <HAL_UART_Init+0xd0>
70003b82:	687b      	ldr	r3, [r7, #4]
70003b84:	681b      	ldr	r3, [r3, #0]
70003b86:	4a47      	ldr	r2, [pc, #284]	@ (70003ca4 <HAL_UART_Init+0x178>)
70003b88:	4293      	cmp	r3, r2
70003b8a:	d037      	beq.n	70003bfc <HAL_UART_Init+0xd0>
70003b8c:	687b      	ldr	r3, [r7, #4]
70003b8e:	681b      	ldr	r3, [r3, #0]
70003b90:	4a45      	ldr	r2, [pc, #276]	@ (70003ca8 <HAL_UART_Init+0x17c>)
70003b92:	4293      	cmp	r3, r2
70003b94:	d032      	beq.n	70003bfc <HAL_UART_Init+0xd0>
70003b96:	f44f 71a0 	mov.w	r1, #320	@ 0x140
70003b9a:	4844      	ldr	r0, [pc, #272]	@ (70003cac <HAL_UART_Init+0x180>)
70003b9c:	f7fd f82e 	bl	70000bfc <assert_failed>
70003ba0:	e02c      	b.n	70003bfc <HAL_UART_Init+0xd0>
  }
  else
  {
    /* Check the parameters */
    assert_param((IS_UART_INSTANCE(huart->Instance)) || (IS_LPUART_INSTANCE(huart->Instance)));
70003ba2:	687b      	ldr	r3, [r7, #4]
70003ba4:	681b      	ldr	r3, [r3, #0]
70003ba6:	4a39      	ldr	r2, [pc, #228]	@ (70003c8c <HAL_UART_Init+0x160>)
70003ba8:	4293      	cmp	r3, r2
70003baa:	d027      	beq.n	70003bfc <HAL_UART_Init+0xd0>
70003bac:	687b      	ldr	r3, [r7, #4]
70003bae:	681b      	ldr	r3, [r3, #0]
70003bb0:	4a37      	ldr	r2, [pc, #220]	@ (70003c90 <HAL_UART_Init+0x164>)
70003bb2:	4293      	cmp	r3, r2
70003bb4:	d022      	beq.n	70003bfc <HAL_UART_Init+0xd0>
70003bb6:	687b      	ldr	r3, [r7, #4]
70003bb8:	681b      	ldr	r3, [r3, #0]
70003bba:	4a36      	ldr	r2, [pc, #216]	@ (70003c94 <HAL_UART_Init+0x168>)
70003bbc:	4293      	cmp	r3, r2
70003bbe:	d01d      	beq.n	70003bfc <HAL_UART_Init+0xd0>
70003bc0:	687b      	ldr	r3, [r7, #4]
70003bc2:	681b      	ldr	r3, [r3, #0]
70003bc4:	4a34      	ldr	r2, [pc, #208]	@ (70003c98 <HAL_UART_Init+0x16c>)
70003bc6:	4293      	cmp	r3, r2
70003bc8:	d018      	beq.n	70003bfc <HAL_UART_Init+0xd0>
70003bca:	687b      	ldr	r3, [r7, #4]
70003bcc:	681b      	ldr	r3, [r3, #0]
70003bce:	4a33      	ldr	r2, [pc, #204]	@ (70003c9c <HAL_UART_Init+0x170>)
70003bd0:	4293      	cmp	r3, r2
70003bd2:	d013      	beq.n	70003bfc <HAL_UART_Init+0xd0>
70003bd4:	687b      	ldr	r3, [r7, #4]
70003bd6:	681b      	ldr	r3, [r3, #0]
70003bd8:	4a31      	ldr	r2, [pc, #196]	@ (70003ca0 <HAL_UART_Init+0x174>)
70003bda:	4293      	cmp	r3, r2
70003bdc:	d00e      	beq.n	70003bfc <HAL_UART_Init+0xd0>
70003bde:	687b      	ldr	r3, [r7, #4]
70003be0:	681b      	ldr	r3, [r3, #0]
70003be2:	4a30      	ldr	r2, [pc, #192]	@ (70003ca4 <HAL_UART_Init+0x178>)
70003be4:	4293      	cmp	r3, r2
70003be6:	d009      	beq.n	70003bfc <HAL_UART_Init+0xd0>
70003be8:	687b      	ldr	r3, [r7, #4]
70003bea:	681b      	ldr	r3, [r3, #0]
70003bec:	4a2e      	ldr	r2, [pc, #184]	@ (70003ca8 <HAL_UART_Init+0x17c>)
70003bee:	4293      	cmp	r3, r2
70003bf0:	d004      	beq.n	70003bfc <HAL_UART_Init+0xd0>
70003bf2:	f240 1145 	movw	r1, #325	@ 0x145
70003bf6:	482d      	ldr	r0, [pc, #180]	@ (70003cac <HAL_UART_Init+0x180>)
70003bf8:	f7fd f800 	bl	70000bfc <assert_failed>
  }

  if (huart->gState == HAL_UART_STATE_RESET)
70003bfc:	687b      	ldr	r3, [r7, #4]
70003bfe:	f8d3 3088 	ldr.w	r3, [r3, #136]	@ 0x88
70003c02:	2b00      	cmp	r3, #0
70003c04:	d106      	bne.n	70003c14 <HAL_UART_Init+0xe8>
  {
    /* Allocate lock resource and initialize it */
    huart->Lock = HAL_UNLOCKED;
70003c06:	687b      	ldr	r3, [r7, #4]
70003c08:	2200      	movs	r2, #0
70003c0a:	f883 2084 	strb.w	r2, [r3, #132]	@ 0x84

    /* Init the low level hardware */
    huart->MspInitCallback(huart);
#else
    /* Init the low level hardware : GPIO, CLOCK */
    HAL_UART_MspInit(huart);
70003c0e:	6878      	ldr	r0, [r7, #4]
70003c10:	f7fd f9ba 	bl	70000f88 <HAL_UART_MspInit>
#endif /* (USE_HAL_UART_REGISTER_CALLBACKS) */
  }

  huart->gState = HAL_UART_STATE_BUSY;
70003c14:	687b      	ldr	r3, [r7, #4]
70003c16:	2224      	movs	r2, #36	@ 0x24
70003c18:	f8c3 2088 	str.w	r2, [r3, #136]	@ 0x88

  __HAL_UART_DISABLE(huart);
70003c1c:	687b      	ldr	r3, [r7, #4]
70003c1e:	681b      	ldr	r3, [r3, #0]
70003c20:	681a      	ldr	r2, [r3, #0]
70003c22:	687b      	ldr	r3, [r7, #4]
70003c24:	681b      	ldr	r3, [r3, #0]
70003c26:	f022 0201 	bic.w	r2, r2, #1
70003c2a:	601a      	str	r2, [r3, #0]

  /* Perform advanced settings configuration */
  /* For some items, configuration requires to be done prior TE and RE bits are set */
  if (huart->AdvancedInit.AdvFeatureInit != UART_ADVFEATURE_NO_INIT)
70003c2c:	687b      	ldr	r3, [r7, #4]
70003c2e:	6a9b      	ldr	r3, [r3, #40]	@ 0x28
70003c30:	2b00      	cmp	r3, #0
70003c32:	d002      	beq.n	70003c3a <HAL_UART_Init+0x10e>
  {
    UART_AdvFeatureConfig(huart);
70003c34:	6878      	ldr	r0, [r7, #4]
70003c36:	f000 fcab 	bl	70004590 <UART_AdvFeatureConfig>
  }

  /* Set the UART Communication parameters */
  if (UART_SetConfig(huart) == HAL_ERROR)
70003c3a:	6878      	ldr	r0, [r7, #4]
70003c3c:	f000 f838 	bl	70003cb0 <UART_SetConfig>
70003c40:	4603      	mov	r3, r0
70003c42:	2b01      	cmp	r3, #1
70003c44:	d101      	bne.n	70003c4a <HAL_UART_Init+0x11e>
  {
    return HAL_ERROR;
70003c46:	2301      	movs	r3, #1
70003c48:	e01b      	b.n	70003c82 <HAL_UART_Init+0x156>
  }

  /* In asynchronous mode, the following bits must be kept cleared:
  - LINEN and CLKEN bits in the USART_CR2 register,
  - SCEN, HDSEL and IREN  bits in the USART_CR3 register.*/
  CLEAR_BIT(huart->Instance->CR2, (USART_CR2_LINEN | USART_CR2_CLKEN));
70003c4a:	687b      	ldr	r3, [r7, #4]
70003c4c:	681b      	ldr	r3, [r3, #0]
70003c4e:	685a      	ldr	r2, [r3, #4]
70003c50:	687b      	ldr	r3, [r7, #4]
70003c52:	681b      	ldr	r3, [r3, #0]
70003c54:	f422 4290 	bic.w	r2, r2, #18432	@ 0x4800
70003c58:	605a      	str	r2, [r3, #4]
  CLEAR_BIT(huart->Instance->CR3, (USART_CR3_SCEN | USART_CR3_HDSEL | USART_CR3_IREN));
70003c5a:	687b      	ldr	r3, [r7, #4]
70003c5c:	681b      	ldr	r3, [r3, #0]
70003c5e:	689a      	ldr	r2, [r3, #8]
70003c60:	687b      	ldr	r3, [r7, #4]
70003c62:	681b      	ldr	r3, [r3, #0]
70003c64:	f022 022a 	bic.w	r2, r2, #42	@ 0x2a
70003c68:	609a      	str	r2, [r3, #8]

  __HAL_UART_ENABLE(huart);
70003c6a:	687b      	ldr	r3, [r7, #4]
70003c6c:	681b      	ldr	r3, [r3, #0]
70003c6e:	681a      	ldr	r2, [r3, #0]
70003c70:	687b      	ldr	r3, [r7, #4]
70003c72:	681b      	ldr	r3, [r3, #0]
70003c74:	f042 0201 	orr.w	r2, r2, #1
70003c78:	601a      	str	r2, [r3, #0]

  /* TEACK and/or REACK to check before moving huart->gState and huart->RxState to Ready */
  return (UART_CheckIdleState(huart));
70003c7a:	6878      	ldr	r0, [r7, #4]
70003c7c:	f000 fdf4 	bl	70004868 <UART_CheckIdleState>
70003c80:	4603      	mov	r3, r0
}
70003c82:	4618      	mov	r0, r3
70003c84:	3708      	adds	r7, #8
70003c86:	46bd      	mov	sp, r7
70003c88:	bd80      	pop	{r7, pc}
70003c8a:	bf00      	nop
70003c8c:	42001000 	.word	0x42001000
70003c90:	40004400 	.word	0x40004400
70003c94:	40004800 	.word	0x40004800
70003c98:	40004c00 	.word	0x40004c00
70003c9c:	40005000 	.word	0x40005000
70003ca0:	40007800 	.word	0x40007800
70003ca4:	40007c00 	.word	0x40007c00
70003ca8:	58000c00 	.word	0x58000c00
70003cac:	70006958 	.word	0x70006958

70003cb0 <UART_SetConfig>:
  * @brief Configure the UART peripheral.
  * @param huart UART handle.
  * @retval HAL status
  */
HAL_StatusTypeDef UART_SetConfig(UART_HandleTypeDef *huart)
{
70003cb0:	e92d 4fb0 	stmdb	sp!, {r4, r5, r7, r8, r9, sl, fp, lr}
70003cb4:	b08c      	sub	sp, #48	@ 0x30
70003cb6:	af00      	add	r7, sp, #0
70003cb8:	6178      	str	r0, [r7, #20]
  uint32_t tmpreg;
  uint16_t brrtemp;
  UART_ClockSourceTypeDef clocksource;
  uint32_t usartdiv;
  HAL_StatusTypeDef ret               = HAL_OK;
70003cba:	2300      	movs	r3, #0
70003cbc:	f887 302a 	strb.w	r3, [r7, #42]	@ 0x2a
  uint32_t lpuart_ker_ck_pres;
  uint32_t pclk;

  /* Check the parameters */
  assert_param(IS_UART_BAUDRATE(huart->Init.BaudRate));
70003cc0:	697b      	ldr	r3, [r7, #20]
70003cc2:	685b      	ldr	r3, [r3, #4]
70003cc4:	4a17      	ldr	r2, [pc, #92]	@ (70003d24 <UART_SetConfig+0x74>)
70003cc6:	4293      	cmp	r3, r2
70003cc8:	d904      	bls.n	70003cd4 <UART_SetConfig+0x24>
70003cca:	f640 414f 	movw	r1, #3151	@ 0xc4f
70003cce:	4816      	ldr	r0, [pc, #88]	@ (70003d28 <UART_SetConfig+0x78>)
70003cd0:	f7fc ff94 	bl	70000bfc <assert_failed>
  assert_param(IS_UART_WORD_LENGTH(huart->Init.WordLength));
70003cd4:	697b      	ldr	r3, [r7, #20]
70003cd6:	689b      	ldr	r3, [r3, #8]
70003cd8:	f1b3 5f80 	cmp.w	r3, #268435456	@ 0x10000000
70003cdc:	d00d      	beq.n	70003cfa <UART_SetConfig+0x4a>
70003cde:	697b      	ldr	r3, [r7, #20]
70003ce0:	689b      	ldr	r3, [r3, #8]
70003ce2:	2b00      	cmp	r3, #0
70003ce4:	d009      	beq.n	70003cfa <UART_SetConfig+0x4a>
70003ce6:	697b      	ldr	r3, [r7, #20]
70003ce8:	689b      	ldr	r3, [r3, #8]
70003cea:	f5b3 5f80 	cmp.w	r3, #4096	@ 0x1000
70003cee:	d004      	beq.n	70003cfa <UART_SetConfig+0x4a>
70003cf0:	f44f 6145 	mov.w	r1, #3152	@ 0xc50
70003cf4:	480c      	ldr	r0, [pc, #48]	@ (70003d28 <UART_SetConfig+0x78>)
70003cf6:	f7fc ff81 	bl	70000bfc <assert_failed>
  if (UART_INSTANCE_LOWPOWER(huart))
70003cfa:	697b      	ldr	r3, [r7, #20]
70003cfc:	681b      	ldr	r3, [r3, #0]
70003cfe:	4a0b      	ldr	r2, [pc, #44]	@ (70003d2c <UART_SetConfig+0x7c>)
70003d00:	4293      	cmp	r3, r2
70003d02:	d115      	bne.n	70003d30 <UART_SetConfig+0x80>
  {
    assert_param(IS_LPUART_STOPBITS(huart->Init.StopBits));
70003d04:	697b      	ldr	r3, [r7, #20]
70003d06:	68db      	ldr	r3, [r3, #12]
70003d08:	2b00      	cmp	r3, #0
70003d0a:	d037      	beq.n	70003d7c <UART_SetConfig+0xcc>
70003d0c:	697b      	ldr	r3, [r7, #20]
70003d0e:	68db      	ldr	r3, [r3, #12]
70003d10:	f5b3 5f00 	cmp.w	r3, #8192	@ 0x2000
70003d14:	d032      	beq.n	70003d7c <UART_SetConfig+0xcc>
70003d16:	f640 4153 	movw	r1, #3155	@ 0xc53
70003d1a:	4803      	ldr	r0, [pc, #12]	@ (70003d28 <UART_SetConfig+0x78>)
70003d1c:	f7fc ff6e 	bl	70000bfc <assert_failed>
70003d20:	e02c      	b.n	70003d7c <UART_SetConfig+0xcc>
70003d22:	bf00      	nop
70003d24:	00ee6b28 	.word	0x00ee6b28
70003d28:	70006958 	.word	0x70006958
70003d2c:	58000c00 	.word	0x58000c00
  }
  else
  {
    assert_param(IS_UART_STOPBITS(huart->Init.StopBits));
70003d30:	697b      	ldr	r3, [r7, #20]
70003d32:	68db      	ldr	r3, [r3, #12]
70003d34:	f5b3 5f80 	cmp.w	r3, #4096	@ 0x1000
70003d38:	d012      	beq.n	70003d60 <UART_SetConfig+0xb0>
70003d3a:	697b      	ldr	r3, [r7, #20]
70003d3c:	68db      	ldr	r3, [r3, #12]
70003d3e:	2b00      	cmp	r3, #0
70003d40:	d00e      	beq.n	70003d60 <UART_SetConfig+0xb0>
70003d42:	697b      	ldr	r3, [r7, #20]
70003d44:	68db      	ldr	r3, [r3, #12]
70003d46:	f5b3 5f40 	cmp.w	r3, #12288	@ 0x3000
70003d4a:	d009      	beq.n	70003d60 <UART_SetConfig+0xb0>
70003d4c:	697b      	ldr	r3, [r7, #20]
70003d4e:	68db      	ldr	r3, [r3, #12]
70003d50:	f5b3 5f00 	cmp.w	r3, #8192	@ 0x2000
70003d54:	d004      	beq.n	70003d60 <UART_SetConfig+0xb0>
70003d56:	f640 4157 	movw	r1, #3159	@ 0xc57
70003d5a:	4883      	ldr	r0, [pc, #524]	@ (70003f68 <UART_SetConfig+0x2b8>)
70003d5c:	f7fc ff4e 	bl	70000bfc <assert_failed>
    assert_param(IS_UART_ONE_BIT_SAMPLE(huart->Init.OneBitSampling));
70003d60:	697b      	ldr	r3, [r7, #20]
70003d62:	6a1b      	ldr	r3, [r3, #32]
70003d64:	2b00      	cmp	r3, #0
70003d66:	d009      	beq.n	70003d7c <UART_SetConfig+0xcc>
70003d68:	697b      	ldr	r3, [r7, #20]
70003d6a:	6a1b      	ldr	r3, [r3, #32]
70003d6c:	f5b3 6f00 	cmp.w	r3, #2048	@ 0x800
70003d70:	d004      	beq.n	70003d7c <UART_SetConfig+0xcc>
70003d72:	f640 4158 	movw	r1, #3160	@ 0xc58
70003d76:	487c      	ldr	r0, [pc, #496]	@ (70003f68 <UART_SetConfig+0x2b8>)
70003d78:	f7fc ff40 	bl	70000bfc <assert_failed>
  }

  assert_param(IS_UART_PARITY(huart->Init.Parity));
70003d7c:	697b      	ldr	r3, [r7, #20]
70003d7e:	691b      	ldr	r3, [r3, #16]
70003d80:	2b00      	cmp	r3, #0
70003d82:	d00e      	beq.n	70003da2 <UART_SetConfig+0xf2>
70003d84:	697b      	ldr	r3, [r7, #20]
70003d86:	691b      	ldr	r3, [r3, #16]
70003d88:	f5b3 6f80 	cmp.w	r3, #1024	@ 0x400
70003d8c:	d009      	beq.n	70003da2 <UART_SetConfig+0xf2>
70003d8e:	697b      	ldr	r3, [r7, #20]
70003d90:	691b      	ldr	r3, [r3, #16]
70003d92:	f5b3 6fc0 	cmp.w	r3, #1536	@ 0x600
70003d96:	d004      	beq.n	70003da2 <UART_SetConfig+0xf2>
70003d98:	f640 415b 	movw	r1, #3163	@ 0xc5b
70003d9c:	4872      	ldr	r0, [pc, #456]	@ (70003f68 <UART_SetConfig+0x2b8>)
70003d9e:	f7fc ff2d 	bl	70000bfc <assert_failed>
  assert_param(IS_UART_MODE(huart->Init.Mode));
70003da2:	697b      	ldr	r3, [r7, #20]
70003da4:	695b      	ldr	r3, [r3, #20]
70003da6:	f023 030c 	bic.w	r3, r3, #12
70003daa:	2b00      	cmp	r3, #0
70003dac:	d103      	bne.n	70003db6 <UART_SetConfig+0x106>
70003dae:	697b      	ldr	r3, [r7, #20]
70003db0:	695b      	ldr	r3, [r3, #20]
70003db2:	2b00      	cmp	r3, #0
70003db4:	d104      	bne.n	70003dc0 <UART_SetConfig+0x110>
70003db6:	f640 415c 	movw	r1, #3164	@ 0xc5c
70003dba:	486b      	ldr	r0, [pc, #428]	@ (70003f68 <UART_SetConfig+0x2b8>)
70003dbc:	f7fc ff1e 	bl	70000bfc <assert_failed>
  assert_param(IS_UART_HARDWARE_FLOW_CONTROL(huart->Init.HwFlowCtl));
70003dc0:	697b      	ldr	r3, [r7, #20]
70003dc2:	699b      	ldr	r3, [r3, #24]
70003dc4:	2b00      	cmp	r3, #0
70003dc6:	d013      	beq.n	70003df0 <UART_SetConfig+0x140>
70003dc8:	697b      	ldr	r3, [r7, #20]
70003dca:	699b      	ldr	r3, [r3, #24]
70003dcc:	f5b3 7f80 	cmp.w	r3, #256	@ 0x100
70003dd0:	d00e      	beq.n	70003df0 <UART_SetConfig+0x140>
70003dd2:	697b      	ldr	r3, [r7, #20]
70003dd4:	699b      	ldr	r3, [r3, #24]
70003dd6:	f5b3 7f00 	cmp.w	r3, #512	@ 0x200
70003dda:	d009      	beq.n	70003df0 <UART_SetConfig+0x140>
70003ddc:	697b      	ldr	r3, [r7, #20]
70003dde:	699b      	ldr	r3, [r3, #24]
70003de0:	f5b3 7f40 	cmp.w	r3, #768	@ 0x300
70003de4:	d004      	beq.n	70003df0 <UART_SetConfig+0x140>
70003de6:	f640 415d 	movw	r1, #3165	@ 0xc5d
70003dea:	485f      	ldr	r0, [pc, #380]	@ (70003f68 <UART_SetConfig+0x2b8>)
70003dec:	f7fc ff06 	bl	70000bfc <assert_failed>
  assert_param(IS_UART_OVERSAMPLING(huart->Init.OverSampling));
70003df0:	697b      	ldr	r3, [r7, #20]
70003df2:	69db      	ldr	r3, [r3, #28]
70003df4:	2b00      	cmp	r3, #0
70003df6:	d009      	beq.n	70003e0c <UART_SetConfig+0x15c>
70003df8:	697b      	ldr	r3, [r7, #20]
70003dfa:	69db      	ldr	r3, [r3, #28]
70003dfc:	f5b3 4f00 	cmp.w	r3, #32768	@ 0x8000
70003e00:	d004      	beq.n	70003e0c <UART_SetConfig+0x15c>
70003e02:	f640 415e 	movw	r1, #3166	@ 0xc5e
70003e06:	4858      	ldr	r0, [pc, #352]	@ (70003f68 <UART_SetConfig+0x2b8>)
70003e08:	f7fc fef8 	bl	70000bfc <assert_failed>
  assert_param(IS_UART_PRESCALER(huart->Init.ClockPrescaler));
70003e0c:	697b      	ldr	r3, [r7, #20]
70003e0e:	6a5b      	ldr	r3, [r3, #36]	@ 0x24
70003e10:	2b00      	cmp	r3, #0
70003e12:	d030      	beq.n	70003e76 <UART_SetConfig+0x1c6>
70003e14:	697b      	ldr	r3, [r7, #20]
70003e16:	6a5b      	ldr	r3, [r3, #36]	@ 0x24
70003e18:	2b01      	cmp	r3, #1
70003e1a:	d02c      	beq.n	70003e76 <UART_SetConfig+0x1c6>
70003e1c:	697b      	ldr	r3, [r7, #20]
70003e1e:	6a5b      	ldr	r3, [r3, #36]	@ 0x24
70003e20:	2b02      	cmp	r3, #2
70003e22:	d028      	beq.n	70003e76 <UART_SetConfig+0x1c6>
70003e24:	697b      	ldr	r3, [r7, #20]
70003e26:	6a5b      	ldr	r3, [r3, #36]	@ 0x24
70003e28:	2b03      	cmp	r3, #3
70003e2a:	d024      	beq.n	70003e76 <UART_SetConfig+0x1c6>
70003e2c:	697b      	ldr	r3, [r7, #20]
70003e2e:	6a5b      	ldr	r3, [r3, #36]	@ 0x24
70003e30:	2b04      	cmp	r3, #4
70003e32:	d020      	beq.n	70003e76 <UART_SetConfig+0x1c6>
70003e34:	697b      	ldr	r3, [r7, #20]
70003e36:	6a5b      	ldr	r3, [r3, #36]	@ 0x24
70003e38:	2b05      	cmp	r3, #5
70003e3a:	d01c      	beq.n	70003e76 <UART_SetConfig+0x1c6>
70003e3c:	697b      	ldr	r3, [r7, #20]
70003e3e:	6a5b      	ldr	r3, [r3, #36]	@ 0x24
70003e40:	2b06      	cmp	r3, #6
70003e42:	d018      	beq.n	70003e76 <UART_SetConfig+0x1c6>
70003e44:	697b      	ldr	r3, [r7, #20]
70003e46:	6a5b      	ldr	r3, [r3, #36]	@ 0x24
70003e48:	2b07      	cmp	r3, #7
70003e4a:	d014      	beq.n	70003e76 <UART_SetConfig+0x1c6>
70003e4c:	697b      	ldr	r3, [r7, #20]
70003e4e:	6a5b      	ldr	r3, [r3, #36]	@ 0x24
70003e50:	2b08      	cmp	r3, #8
70003e52:	d010      	beq.n	70003e76 <UART_SetConfig+0x1c6>
70003e54:	697b      	ldr	r3, [r7, #20]
70003e56:	6a5b      	ldr	r3, [r3, #36]	@ 0x24
70003e58:	2b09      	cmp	r3, #9
70003e5a:	d00c      	beq.n	70003e76 <UART_SetConfig+0x1c6>
70003e5c:	697b      	ldr	r3, [r7, #20]
70003e5e:	6a5b      	ldr	r3, [r3, #36]	@ 0x24
70003e60:	2b0a      	cmp	r3, #10
70003e62:	d008      	beq.n	70003e76 <UART_SetConfig+0x1c6>
70003e64:	697b      	ldr	r3, [r7, #20]
70003e66:	6a5b      	ldr	r3, [r3, #36]	@ 0x24
70003e68:	2b0b      	cmp	r3, #11
70003e6a:	d004      	beq.n	70003e76 <UART_SetConfig+0x1c6>
70003e6c:	f640 415f 	movw	r1, #3167	@ 0xc5f
70003e70:	483d      	ldr	r0, [pc, #244]	@ (70003f68 <UART_SetConfig+0x2b8>)
70003e72:	f7fc fec3 	bl	70000bfc <assert_failed>
  *  the UART Word Length, Parity, Mode and oversampling:
  *  set the M bits according to huart->Init.WordLength value
  *  set PCE and PS bits according to huart->Init.Parity value
  *  set TE and RE bits according to huart->Init.Mode value
  *  set OVER8 bit according to huart->Init.OverSampling value */
  tmpreg = (uint32_t)huart->Init.WordLength | huart->Init.Parity | huart->Init.Mode | huart->Init.OverSampling ;
70003e76:	697b      	ldr	r3, [r7, #20]
70003e78:	689a      	ldr	r2, [r3, #8]
70003e7a:	697b      	ldr	r3, [r7, #20]
70003e7c:	691b      	ldr	r3, [r3, #16]
70003e7e:	431a      	orrs	r2, r3
70003e80:	697b      	ldr	r3, [r7, #20]
70003e82:	695b      	ldr	r3, [r3, #20]
70003e84:	431a      	orrs	r2, r3
70003e86:	697b      	ldr	r3, [r7, #20]
70003e88:	69db      	ldr	r3, [r3, #28]
70003e8a:	4313      	orrs	r3, r2
70003e8c:	62fb      	str	r3, [r7, #44]	@ 0x2c
  MODIFY_REG(huart->Instance->CR1, USART_CR1_FIELDS, tmpreg);
70003e8e:	697b      	ldr	r3, [r7, #20]
70003e90:	681b      	ldr	r3, [r3, #0]
70003e92:	681a      	ldr	r2, [r3, #0]
70003e94:	4b35      	ldr	r3, [pc, #212]	@ (70003f6c <UART_SetConfig+0x2bc>)
70003e96:	4013      	ands	r3, r2
70003e98:	697a      	ldr	r2, [r7, #20]
70003e9a:	6812      	ldr	r2, [r2, #0]
70003e9c:	6af9      	ldr	r1, [r7, #44]	@ 0x2c
70003e9e:	430b      	orrs	r3, r1
70003ea0:	6013      	str	r3, [r2, #0]

  /*-------------------------- USART CR2 Configuration -----------------------*/
  /* Configure the UART Stop Bits: Set STOP[13:12] bits according
  * to huart->Init.StopBits value */
  MODIFY_REG(huart->Instance->CR2, USART_CR2_STOP, huart->Init.StopBits);
70003ea2:	697b      	ldr	r3, [r7, #20]
70003ea4:	681b      	ldr	r3, [r3, #0]
70003ea6:	685b      	ldr	r3, [r3, #4]
70003ea8:	f423 5140 	bic.w	r1, r3, #12288	@ 0x3000
70003eac:	697b      	ldr	r3, [r7, #20]
70003eae:	68da      	ldr	r2, [r3, #12]
70003eb0:	697b      	ldr	r3, [r7, #20]
70003eb2:	681b      	ldr	r3, [r3, #0]
70003eb4:	430a      	orrs	r2, r1
70003eb6:	605a      	str	r2, [r3, #4]
  /* Configure
  * - UART HardWare Flow Control: set CTSE and RTSE bits according
  *   to huart->Init.HwFlowCtl value
  * - one-bit sampling method versus three samples' majority rule according
  *   to huart->Init.OneBitSampling (not applicable to LPUART) */
  tmpreg = (uint32_t)huart->Init.HwFlowCtl;
70003eb8:	697b      	ldr	r3, [r7, #20]
70003eba:	699b      	ldr	r3, [r3, #24]
70003ebc:	62fb      	str	r3, [r7, #44]	@ 0x2c

  if (!(UART_INSTANCE_LOWPOWER(huart)))
70003ebe:	697b      	ldr	r3, [r7, #20]
70003ec0:	681b      	ldr	r3, [r3, #0]
70003ec2:	4a2b      	ldr	r2, [pc, #172]	@ (70003f70 <UART_SetConfig+0x2c0>)
70003ec4:	4293      	cmp	r3, r2
70003ec6:	d004      	beq.n	70003ed2 <UART_SetConfig+0x222>
  {
    tmpreg |= huart->Init.OneBitSampling;
70003ec8:	697b      	ldr	r3, [r7, #20]
70003eca:	6a1b      	ldr	r3, [r3, #32]
70003ecc:	6afa      	ldr	r2, [r7, #44]	@ 0x2c
70003ece:	4313      	orrs	r3, r2
70003ed0:	62fb      	str	r3, [r7, #44]	@ 0x2c
  }
  MODIFY_REG(huart->Instance->CR3, USART_CR3_FIELDS, tmpreg);
70003ed2:	697b      	ldr	r3, [r7, #20]
70003ed4:	681b      	ldr	r3, [r3, #0]
70003ed6:	689a      	ldr	r2, [r3, #8]
70003ed8:	4b26      	ldr	r3, [pc, #152]	@ (70003f74 <UART_SetConfig+0x2c4>)
70003eda:	4013      	ands	r3, r2
70003edc:	697a      	ldr	r2, [r7, #20]
70003ede:	6812      	ldr	r2, [r2, #0]
70003ee0:	6af9      	ldr	r1, [r7, #44]	@ 0x2c
70003ee2:	430b      	orrs	r3, r1
70003ee4:	6093      	str	r3, [r2, #8]

  /*-------------------------- USART PRESC Configuration -----------------------*/
  /* Configure
  * - UART Clock Prescaler : set PRESCALER according to huart->Init.ClockPrescaler value */
  MODIFY_REG(huart->Instance->PRESC, USART_PRESC_PRESCALER, huart->Init.ClockPrescaler);
70003ee6:	697b      	ldr	r3, [r7, #20]
70003ee8:	681b      	ldr	r3, [r3, #0]
70003eea:	6adb      	ldr	r3, [r3, #44]	@ 0x2c
70003eec:	f023 010f 	bic.w	r1, r3, #15
70003ef0:	697b      	ldr	r3, [r7, #20]
70003ef2:	6a5a      	ldr	r2, [r3, #36]	@ 0x24
70003ef4:	697b      	ldr	r3, [r7, #20]
70003ef6:	681b      	ldr	r3, [r3, #0]
70003ef8:	430a      	orrs	r2, r1
70003efa:	62da      	str	r2, [r3, #44]	@ 0x2c

  /*-------------------------- USART BRR Configuration -----------------------*/
  UART_GETCLOCKSOURCE(huart, clocksource);
70003efc:	697b      	ldr	r3, [r7, #20]
70003efe:	681b      	ldr	r3, [r3, #0]
70003f00:	4a1d      	ldr	r2, [pc, #116]	@ (70003f78 <UART_SetConfig+0x2c8>)
70003f02:	4293      	cmp	r3, r2
70003f04:	d13c      	bne.n	70003f80 <UART_SetConfig+0x2d0>
70003f06:	4b1d      	ldr	r3, [pc, #116]	@ (70003f7c <UART_SetConfig+0x2cc>)
70003f08:	6d5b      	ldr	r3, [r3, #84]	@ 0x54
70003f0a:	f003 0307 	and.w	r3, r3, #7
70003f0e:	2b05      	cmp	r3, #5
70003f10:	d826      	bhi.n	70003f60 <UART_SetConfig+0x2b0>
70003f12:	a201      	add	r2, pc, #4	@ (adr r2, 70003f18 <UART_SetConfig+0x268>)
70003f14:	f852 f023 	ldr.w	pc, [r2, r3, lsl #2]
70003f18:	70003f31 	.word	0x70003f31
70003f1c:	70003f39 	.word	0x70003f39
70003f20:	70003f41 	.word	0x70003f41
70003f24:	70003f49 	.word	0x70003f49
70003f28:	70003f51 	.word	0x70003f51
70003f2c:	70003f59 	.word	0x70003f59
70003f30:	2301      	movs	r3, #1
70003f32:	f887 302b 	strb.w	r3, [r7, #43]	@ 0x2b
70003f36:	e0ac      	b.n	70004092 <UART_SetConfig+0x3e2>
70003f38:	2304      	movs	r3, #4
70003f3a:	f887 302b 	strb.w	r3, [r7, #43]	@ 0x2b
70003f3e:	e0a8      	b.n	70004092 <UART_SetConfig+0x3e2>
70003f40:	2308      	movs	r3, #8
70003f42:	f887 302b 	strb.w	r3, [r7, #43]	@ 0x2b
70003f46:	e0a4      	b.n	70004092 <UART_SetConfig+0x3e2>
70003f48:	2310      	movs	r3, #16
70003f4a:	f887 302b 	strb.w	r3, [r7, #43]	@ 0x2b
70003f4e:	e0a0      	b.n	70004092 <UART_SetConfig+0x3e2>
70003f50:	2320      	movs	r3, #32
70003f52:	f887 302b 	strb.w	r3, [r7, #43]	@ 0x2b
70003f56:	e09c      	b.n	70004092 <UART_SetConfig+0x3e2>
70003f58:	2340      	movs	r3, #64	@ 0x40
70003f5a:	f887 302b 	strb.w	r3, [r7, #43]	@ 0x2b
70003f5e:	e098      	b.n	70004092 <UART_SetConfig+0x3e2>
70003f60:	2380      	movs	r3, #128	@ 0x80
70003f62:	f887 302b 	strb.w	r3, [r7, #43]	@ 0x2b
70003f66:	e094      	b.n	70004092 <UART_SetConfig+0x3e2>
70003f68:	70006958 	.word	0x70006958
70003f6c:	cfff69f3 	.word	0xcfff69f3
70003f70:	58000c00 	.word	0x58000c00
70003f74:	11fff4ff 	.word	0x11fff4ff
70003f78:	42001000 	.word	0x42001000
70003f7c:	58024400 	.word	0x58024400
70003f80:	697b      	ldr	r3, [r7, #20]
70003f82:	681b      	ldr	r3, [r3, #0]
70003f84:	4ab7      	ldr	r2, [pc, #732]	@ (70004264 <UART_SetConfig+0x5b4>)
70003f86:	4293      	cmp	r3, r2
70003f88:	d018      	beq.n	70003fbc <UART_SetConfig+0x30c>
70003f8a:	697b      	ldr	r3, [r7, #20]
70003f8c:	681b      	ldr	r3, [r3, #0]
70003f8e:	4ab6      	ldr	r2, [pc, #728]	@ (70004268 <UART_SetConfig+0x5b8>)
70003f90:	4293      	cmp	r3, r2
70003f92:	d013      	beq.n	70003fbc <UART_SetConfig+0x30c>
70003f94:	697b      	ldr	r3, [r7, #20]
70003f96:	681b      	ldr	r3, [r3, #0]
70003f98:	4ab4      	ldr	r2, [pc, #720]	@ (7000426c <UART_SetConfig+0x5bc>)
70003f9a:	4293      	cmp	r3, r2
70003f9c:	d00e      	beq.n	70003fbc <UART_SetConfig+0x30c>
70003f9e:	697b      	ldr	r3, [r7, #20]
70003fa0:	681b      	ldr	r3, [r3, #0]
70003fa2:	4ab3      	ldr	r2, [pc, #716]	@ (70004270 <UART_SetConfig+0x5c0>)
70003fa4:	4293      	cmp	r3, r2
70003fa6:	d009      	beq.n	70003fbc <UART_SetConfig+0x30c>
70003fa8:	697b      	ldr	r3, [r7, #20]
70003faa:	681b      	ldr	r3, [r3, #0]
70003fac:	4ab1      	ldr	r2, [pc, #708]	@ (70004274 <UART_SetConfig+0x5c4>)
70003fae:	4293      	cmp	r3, r2
70003fb0:	d004      	beq.n	70003fbc <UART_SetConfig+0x30c>
70003fb2:	697b      	ldr	r3, [r7, #20]
70003fb4:	681b      	ldr	r3, [r3, #0]
70003fb6:	4ab0      	ldr	r2, [pc, #704]	@ (70004278 <UART_SetConfig+0x5c8>)
70003fb8:	4293      	cmp	r3, r2
70003fba:	d131      	bne.n	70004020 <UART_SetConfig+0x370>
70003fbc:	4baf      	ldr	r3, [pc, #700]	@ (7000427c <UART_SetConfig+0x5cc>)
70003fbe:	6d1b      	ldr	r3, [r3, #80]	@ 0x50
70003fc0:	f003 0307 	and.w	r3, r3, #7
70003fc4:	2b05      	cmp	r3, #5
70003fc6:	d827      	bhi.n	70004018 <UART_SetConfig+0x368>
70003fc8:	a201      	add	r2, pc, #4	@ (adr r2, 70003fd0 <UART_SetConfig+0x320>)
70003fca:	f852 f023 	ldr.w	pc, [r2, r3, lsl #2]
70003fce:	bf00      	nop
70003fd0:	70003fe9 	.word	0x70003fe9
70003fd4:	70003ff1 	.word	0x70003ff1
70003fd8:	70003ff9 	.word	0x70003ff9
70003fdc:	70004001 	.word	0x70004001
70003fe0:	70004009 	.word	0x70004009
70003fe4:	70004011 	.word	0x70004011
70003fe8:	2300      	movs	r3, #0
70003fea:	f887 302b 	strb.w	r3, [r7, #43]	@ 0x2b
70003fee:	e016      	b.n	7000401e <UART_SetConfig+0x36e>
70003ff0:	2304      	movs	r3, #4
70003ff2:	f887 302b 	strb.w	r3, [r7, #43]	@ 0x2b
70003ff6:	e012      	b.n	7000401e <UART_SetConfig+0x36e>
70003ff8:	2308      	movs	r3, #8
70003ffa:	f887 302b 	strb.w	r3, [r7, #43]	@ 0x2b
70003ffe:	e00e      	b.n	7000401e <UART_SetConfig+0x36e>
70004000:	2310      	movs	r3, #16
70004002:	f887 302b 	strb.w	r3, [r7, #43]	@ 0x2b
70004006:	e00a      	b.n	7000401e <UART_SetConfig+0x36e>
70004008:	2320      	movs	r3, #32
7000400a:	f887 302b 	strb.w	r3, [r7, #43]	@ 0x2b
7000400e:	e006      	b.n	7000401e <UART_SetConfig+0x36e>
70004010:	2340      	movs	r3, #64	@ 0x40
70004012:	f887 302b 	strb.w	r3, [r7, #43]	@ 0x2b
70004016:	e002      	b.n	7000401e <UART_SetConfig+0x36e>
70004018:	2380      	movs	r3, #128	@ 0x80
7000401a:	f887 302b 	strb.w	r3, [r7, #43]	@ 0x2b
7000401e:	e038      	b.n	70004092 <UART_SetConfig+0x3e2>
70004020:	697b      	ldr	r3, [r7, #20]
70004022:	681b      	ldr	r3, [r3, #0]
70004024:	4a96      	ldr	r2, [pc, #600]	@ (70004280 <UART_SetConfig+0x5d0>)
70004026:	4293      	cmp	r3, r2
70004028:	d130      	bne.n	7000408c <UART_SetConfig+0x3dc>
7000402a:	4b94      	ldr	r3, [pc, #592]	@ (7000427c <UART_SetConfig+0x5cc>)
7000402c:	6d9b      	ldr	r3, [r3, #88]	@ 0x58
7000402e:	f003 0307 	and.w	r3, r3, #7
70004032:	2b05      	cmp	r3, #5
70004034:	d826      	bhi.n	70004084 <UART_SetConfig+0x3d4>
70004036:	a201      	add	r2, pc, #4	@ (adr r2, 7000403c <UART_SetConfig+0x38c>)
70004038:	f852 f023 	ldr.w	pc, [r2, r3, lsl #2]
7000403c:	70004055 	.word	0x70004055
70004040:	7000405d 	.word	0x7000405d
70004044:	70004065 	.word	0x70004065
70004048:	7000406d 	.word	0x7000406d
7000404c:	70004075 	.word	0x70004075
70004050:	7000407d 	.word	0x7000407d
70004054:	2302      	movs	r3, #2
70004056:	f887 302b 	strb.w	r3, [r7, #43]	@ 0x2b
7000405a:	e01a      	b.n	70004092 <UART_SetConfig+0x3e2>
7000405c:	2304      	movs	r3, #4
7000405e:	f887 302b 	strb.w	r3, [r7, #43]	@ 0x2b
70004062:	e016      	b.n	70004092 <UART_SetConfig+0x3e2>
70004064:	2308      	movs	r3, #8
70004066:	f887 302b 	strb.w	r3, [r7, #43]	@ 0x2b
7000406a:	e012      	b.n	70004092 <UART_SetConfig+0x3e2>
7000406c:	2310      	movs	r3, #16
7000406e:	f887 302b 	strb.w	r3, [r7, #43]	@ 0x2b
70004072:	e00e      	b.n	70004092 <UART_SetConfig+0x3e2>
70004074:	2320      	movs	r3, #32
70004076:	f887 302b 	strb.w	r3, [r7, #43]	@ 0x2b
7000407a:	e00a      	b.n	70004092 <UART_SetConfig+0x3e2>
7000407c:	2340      	movs	r3, #64	@ 0x40
7000407e:	f887 302b 	strb.w	r3, [r7, #43]	@ 0x2b
70004082:	e006      	b.n	70004092 <UART_SetConfig+0x3e2>
70004084:	2380      	movs	r3, #128	@ 0x80
70004086:	f887 302b 	strb.w	r3, [r7, #43]	@ 0x2b
7000408a:	e002      	b.n	70004092 <UART_SetConfig+0x3e2>
7000408c:	2380      	movs	r3, #128	@ 0x80
7000408e:	f887 302b 	strb.w	r3, [r7, #43]	@ 0x2b

  /* Check LPUART instance */
  if (UART_INSTANCE_LOWPOWER(huart))
70004092:	697b      	ldr	r3, [r7, #20]
70004094:	681b      	ldr	r3, [r3, #0]
70004096:	4a7a      	ldr	r2, [pc, #488]	@ (70004280 <UART_SetConfig+0x5d0>)
70004098:	4293      	cmp	r3, r2
7000409a:	f040 80f9 	bne.w	70004290 <UART_SetConfig+0x5e0>
  {
    /* Retrieve frequency clock */
    switch (clocksource)
7000409e:	f897 302b 	ldrb.w	r3, [r7, #43]	@ 0x2b
700040a2:	2b20      	cmp	r3, #32
700040a4:	dc46      	bgt.n	70004134 <UART_SetConfig+0x484>
700040a6:	2b02      	cmp	r3, #2
700040a8:	db6d      	blt.n	70004186 <UART_SetConfig+0x4d6>
700040aa:	3b02      	subs	r3, #2
700040ac:	2b1e      	cmp	r3, #30
700040ae:	d86a      	bhi.n	70004186 <UART_SetConfig+0x4d6>
700040b0:	a201      	add	r2, pc, #4	@ (adr r2, 700040b8 <UART_SetConfig+0x408>)
700040b2:	f852 f023 	ldr.w	pc, [r2, r3, lsl #2]
700040b6:	bf00      	nop
700040b8:	7000414b 	.word	0x7000414b
700040bc:	70004187 	.word	0x70004187
700040c0:	7000413b 	.word	0x7000413b
700040c4:	70004187 	.word	0x70004187
700040c8:	70004187 	.word	0x70004187
700040cc:	70004187 	.word	0x70004187
700040d0:	70004143 	.word	0x70004143
700040d4:	70004187 	.word	0x70004187
700040d8:	70004187 	.word	0x70004187
700040dc:	70004187 	.word	0x70004187
700040e0:	70004187 	.word	0x70004187
700040e4:	70004187 	.word	0x70004187
700040e8:	70004187 	.word	0x70004187
700040ec:	70004187 	.word	0x70004187
700040f0:	70004153 	.word	0x70004153
700040f4:	70004187 	.word	0x70004187
700040f8:	70004187 	.word	0x70004187
700040fc:	70004187 	.word	0x70004187
70004100:	70004187 	.word	0x70004187
70004104:	70004187 	.word	0x70004187
70004108:	70004187 	.word	0x70004187
7000410c:	70004187 	.word	0x70004187
70004110:	70004187 	.word	0x70004187
70004114:	70004187 	.word	0x70004187
70004118:	70004187 	.word	0x70004187
7000411c:	70004187 	.word	0x70004187
70004120:	70004187 	.word	0x70004187
70004124:	70004187 	.word	0x70004187
70004128:	70004187 	.word	0x70004187
7000412c:	70004187 	.word	0x70004187
70004130:	70004179 	.word	0x70004179
70004134:	2b40      	cmp	r3, #64	@ 0x40
70004136:	d022      	beq.n	7000417e <UART_SetConfig+0x4ce>
70004138:	e025      	b.n	70004186 <UART_SetConfig+0x4d6>
    {
      case UART_CLOCKSOURCE_PLL2Q:
        pclk = HAL_RCC_GetPLL2QFreq();
7000413a:	f7fd ff6f 	bl	7000201c <HAL_RCC_GetPLL2QFreq>
7000413e:	6278      	str	r0, [r7, #36]	@ 0x24
        break;
70004140:	e027      	b.n	70004192 <UART_SetConfig+0x4e2>
      case UART_CLOCKSOURCE_PLL3Q:
        pclk = HAL_RCC_GetPLL3QFreq();
70004142:	f7fd ff81 	bl	70002048 <HAL_RCC_GetPLL3QFreq>
70004146:	6278      	str	r0, [r7, #36]	@ 0x24
        break;
70004148:	e023      	b.n	70004192 <UART_SetConfig+0x4e2>
      case UART_CLOCKSOURCE_PCLK4:
        pclk = HAL_RCC_GetPCLK4Freq();
7000414a:	f7fd ff4b 	bl	70001fe4 <HAL_RCC_GetPCLK4Freq>
7000414e:	6278      	str	r0, [r7, #36]	@ 0x24
        break;
70004150:	e01f      	b.n	70004192 <UART_SetConfig+0x4e2>
      case UART_CLOCKSOURCE_HSI:
        if (__HAL_RCC_GET_FLAG(RCC_FLAG_HSIDIV) != 0U)
70004152:	4b4a      	ldr	r3, [pc, #296]	@ (7000427c <UART_SetConfig+0x5cc>)
70004154:	681b      	ldr	r3, [r3, #0]
70004156:	f003 0320 	and.w	r3, r3, #32
7000415a:	2b00      	cmp	r3, #0
7000415c:	d009      	beq.n	70004172 <UART_SetConfig+0x4c2>
        {
          pclk = (uint32_t)(HSI_VALUE >> (__HAL_RCC_GET_HSI_DIVIDER() >> 3U));
7000415e:	4b47      	ldr	r3, [pc, #284]	@ (7000427c <UART_SetConfig+0x5cc>)
70004160:	681b      	ldr	r3, [r3, #0]
70004162:	08db      	lsrs	r3, r3, #3
70004164:	f003 0303 	and.w	r3, r3, #3
70004168:	4a46      	ldr	r2, [pc, #280]	@ (70004284 <UART_SetConfig+0x5d4>)
7000416a:	fa22 f303 	lsr.w	r3, r2, r3
7000416e:	627b      	str	r3, [r7, #36]	@ 0x24
        }
        else
        {
          pclk = (uint32_t) HSI_VALUE;
        }
        break;
70004170:	e00f      	b.n	70004192 <UART_SetConfig+0x4e2>
          pclk = (uint32_t) HSI_VALUE;
70004172:	4b44      	ldr	r3, [pc, #272]	@ (70004284 <UART_SetConfig+0x5d4>)
70004174:	627b      	str	r3, [r7, #36]	@ 0x24
        break;
70004176:	e00c      	b.n	70004192 <UART_SetConfig+0x4e2>
      case UART_CLOCKSOURCE_CSI:
        pclk = (uint32_t) CSI_VALUE;
70004178:	4b43      	ldr	r3, [pc, #268]	@ (70004288 <UART_SetConfig+0x5d8>)
7000417a:	627b      	str	r3, [r7, #36]	@ 0x24
        break;
7000417c:	e009      	b.n	70004192 <UART_SetConfig+0x4e2>
      case UART_CLOCKSOURCE_LSE:
        pclk = (uint32_t) LSE_VALUE;
7000417e:	f44f 4300 	mov.w	r3, #32768	@ 0x8000
70004182:	627b      	str	r3, [r7, #36]	@ 0x24
        break;
70004184:	e005      	b.n	70004192 <UART_SetConfig+0x4e2>
      default:
        pclk = 0U;
70004186:	2300      	movs	r3, #0
70004188:	627b      	str	r3, [r7, #36]	@ 0x24
        ret = HAL_ERROR;
7000418a:	2301      	movs	r3, #1
7000418c:	f887 302a 	strb.w	r3, [r7, #42]	@ 0x2a
        break;
70004190:	bf00      	nop
    }

    /* If proper clock source reported */
    if (pclk != 0U)
70004192:	6a7b      	ldr	r3, [r7, #36]	@ 0x24
70004194:	2b00      	cmp	r3, #0
70004196:	f000 81dd 	beq.w	70004554 <UART_SetConfig+0x8a4>
    {
      /* Compute clock after Prescaler */
      lpuart_ker_ck_pres = (pclk / UARTPrescTable[huart->Init.ClockPrescaler]);
7000419a:	697b      	ldr	r3, [r7, #20]
7000419c:	6a5b      	ldr	r3, [r3, #36]	@ 0x24
7000419e:	4a3b      	ldr	r2, [pc, #236]	@ (7000428c <UART_SetConfig+0x5dc>)
700041a0:	f832 3013 	ldrh.w	r3, [r2, r3, lsl #1]
700041a4:	461a      	mov	r2, r3
700041a6:	6a7b      	ldr	r3, [r7, #36]	@ 0x24
700041a8:	fbb3 f3f2 	udiv	r3, r3, r2
700041ac:	61bb      	str	r3, [r7, #24]

      /* Ensure that Frequency clock is in the range [3 * baudrate, 4096 * baudrate] */
      if ((lpuart_ker_ck_pres < (3U * huart->Init.BaudRate)) ||
700041ae:	697b      	ldr	r3, [r7, #20]
700041b0:	685a      	ldr	r2, [r3, #4]
700041b2:	4613      	mov	r3, r2
700041b4:	005b      	lsls	r3, r3, #1
700041b6:	4413      	add	r3, r2
700041b8:	69ba      	ldr	r2, [r7, #24]
700041ba:	429a      	cmp	r2, r3
700041bc:	d305      	bcc.n	700041ca <UART_SetConfig+0x51a>
          (lpuart_ker_ck_pres > (4096U * huart->Init.BaudRate)))
700041be:	697b      	ldr	r3, [r7, #20]
700041c0:	685b      	ldr	r3, [r3, #4]
700041c2:	031b      	lsls	r3, r3, #12
      if ((lpuart_ker_ck_pres < (3U * huart->Init.BaudRate)) ||
700041c4:	69ba      	ldr	r2, [r7, #24]
700041c6:	429a      	cmp	r2, r3
700041c8:	d903      	bls.n	700041d2 <UART_SetConfig+0x522>
      {
        ret = HAL_ERROR;
700041ca:	2301      	movs	r3, #1
700041cc:	f887 302a 	strb.w	r3, [r7, #42]	@ 0x2a
700041d0:	e1c0      	b.n	70004554 <UART_SetConfig+0x8a4>
      }
      else
      {
        /* Check computed UsartDiv value is in allocated range
           (it is forbidden to write values lower than 0x300 in the LPUART_BRR register) */
        usartdiv = (uint32_t)(UART_DIV_LPUART(pclk, huart->Init.BaudRate, huart->Init.ClockPrescaler));
700041d2:	6a7b      	ldr	r3, [r7, #36]	@ 0x24
700041d4:	2200      	movs	r2, #0
700041d6:	60bb      	str	r3, [r7, #8]
700041d8:	60fa      	str	r2, [r7, #12]
700041da:	697b      	ldr	r3, [r7, #20]
700041dc:	6a5b      	ldr	r3, [r3, #36]	@ 0x24
700041de:	4a2b      	ldr	r2, [pc, #172]	@ (7000428c <UART_SetConfig+0x5dc>)
700041e0:	f832 3013 	ldrh.w	r3, [r2, r3, lsl #1]
700041e4:	b29b      	uxth	r3, r3
700041e6:	2200      	movs	r2, #0
700041e8:	603b      	str	r3, [r7, #0]
700041ea:	607a      	str	r2, [r7, #4]
700041ec:	e9d7 2300 	ldrd	r2, r3, [r7]
700041f0:	e9d7 0102 	ldrd	r0, r1, [r7, #8]
700041f4:	f7fc f9d0 	bl	70000598 <__aeabi_uldivmod>
700041f8:	4602      	mov	r2, r0
700041fa:	460b      	mov	r3, r1
700041fc:	4610      	mov	r0, r2
700041fe:	4619      	mov	r1, r3
70004200:	f04f 0200 	mov.w	r2, #0
70004204:	f04f 0300 	mov.w	r3, #0
70004208:	020b      	lsls	r3, r1, #8
7000420a:	ea43 6310 	orr.w	r3, r3, r0, lsr #24
7000420e:	0202      	lsls	r2, r0, #8
70004210:	6979      	ldr	r1, [r7, #20]
70004212:	6849      	ldr	r1, [r1, #4]
70004214:	0849      	lsrs	r1, r1, #1
70004216:	2000      	movs	r0, #0
70004218:	460c      	mov	r4, r1
7000421a:	4605      	mov	r5, r0
7000421c:	eb12 0804 	adds.w	r8, r2, r4
70004220:	eb43 0905 	adc.w	r9, r3, r5
70004224:	697b      	ldr	r3, [r7, #20]
70004226:	685b      	ldr	r3, [r3, #4]
70004228:	2200      	movs	r2, #0
7000422a:	469a      	mov	sl, r3
7000422c:	4693      	mov	fp, r2
7000422e:	4652      	mov	r2, sl
70004230:	465b      	mov	r3, fp
70004232:	4640      	mov	r0, r8
70004234:	4649      	mov	r1, r9
70004236:	f7fc f9af 	bl	70000598 <__aeabi_uldivmod>
7000423a:	4602      	mov	r2, r0
7000423c:	460b      	mov	r3, r1
7000423e:	4613      	mov	r3, r2
70004240:	623b      	str	r3, [r7, #32]
        if ((usartdiv >= LPUART_BRR_MIN) && (usartdiv <= LPUART_BRR_MAX))
70004242:	6a3b      	ldr	r3, [r7, #32]
70004244:	f5b3 7f40 	cmp.w	r3, #768	@ 0x300
70004248:	d308      	bcc.n	7000425c <UART_SetConfig+0x5ac>
7000424a:	6a3b      	ldr	r3, [r7, #32]
7000424c:	f5b3 1f80 	cmp.w	r3, #1048576	@ 0x100000
70004250:	d204      	bcs.n	7000425c <UART_SetConfig+0x5ac>
        {
          huart->Instance->BRR = usartdiv;
70004252:	697b      	ldr	r3, [r7, #20]
70004254:	681b      	ldr	r3, [r3, #0]
70004256:	6a3a      	ldr	r2, [r7, #32]
70004258:	60da      	str	r2, [r3, #12]
7000425a:	e17b      	b.n	70004554 <UART_SetConfig+0x8a4>
        }
        else
        {
          ret = HAL_ERROR;
7000425c:	2301      	movs	r3, #1
7000425e:	f887 302a 	strb.w	r3, [r7, #42]	@ 0x2a
70004262:	e177      	b.n	70004554 <UART_SetConfig+0x8a4>
70004264:	40004400 	.word	0x40004400
70004268:	40004800 	.word	0x40004800
7000426c:	40004c00 	.word	0x40004c00
70004270:	40005000 	.word	0x40005000
70004274:	40007800 	.word	0x40007800
70004278:	40007c00 	.word	0x40007c00
7000427c:	58024400 	.word	0x58024400
70004280:	58000c00 	.word	0x58000c00
70004284:	03d09000 	.word	0x03d09000
70004288:	003d0900 	.word	0x003d0900
7000428c:	70006a44 	.word	0x70006a44
      } /* if ( (lpuart_ker_ck_pres < (3 * huart->Init.BaudRate) ) ||
                (lpuart_ker_ck_pres > (4096 * huart->Init.BaudRate) )) */
    } /* if (pclk != 0) */
  }
  /* Check UART Over Sampling to set Baud Rate Register */
  else if (huart->Init.OverSampling == UART_OVERSAMPLING_8)
70004290:	697b      	ldr	r3, [r7, #20]
70004292:	69db      	ldr	r3, [r3, #28]
70004294:	f5b3 4f00 	cmp.w	r3, #32768	@ 0x8000
70004298:	f040 80b6 	bne.w	70004408 <UART_SetConfig+0x758>
  {
    switch (clocksource)
7000429c:	f897 302b 	ldrb.w	r3, [r7, #43]	@ 0x2b
700042a0:	2b20      	cmp	r3, #32
700042a2:	dc49      	bgt.n	70004338 <UART_SetConfig+0x688>
700042a4:	2b00      	cmp	r3, #0
700042a6:	db74      	blt.n	70004392 <UART_SetConfig+0x6e2>
700042a8:	2b20      	cmp	r3, #32
700042aa:	d872      	bhi.n	70004392 <UART_SetConfig+0x6e2>
700042ac:	a201      	add	r2, pc, #4	@ (adr r2, 700042b4 <UART_SetConfig+0x604>)
700042ae:	f852 f023 	ldr.w	pc, [r2, r3, lsl #2]
700042b2:	bf00      	nop
700042b4:	7000433f 	.word	0x7000433f
700042b8:	70004347 	.word	0x70004347
700042bc:	70004393 	.word	0x70004393
700042c0:	70004393 	.word	0x70004393
700042c4:	7000434f 	.word	0x7000434f
700042c8:	70004393 	.word	0x70004393
700042cc:	70004393 	.word	0x70004393
700042d0:	70004393 	.word	0x70004393
700042d4:	70004357 	.word	0x70004357
700042d8:	70004393 	.word	0x70004393
700042dc:	70004393 	.word	0x70004393
700042e0:	70004393 	.word	0x70004393
700042e4:	70004393 	.word	0x70004393
700042e8:	70004393 	.word	0x70004393
700042ec:	70004393 	.word	0x70004393
700042f0:	70004393 	.word	0x70004393
700042f4:	7000435f 	.word	0x7000435f
700042f8:	70004393 	.word	0x70004393
700042fc:	70004393 	.word	0x70004393
70004300:	70004393 	.word	0x70004393
70004304:	70004393 	.word	0x70004393
70004308:	70004393 	.word	0x70004393
7000430c:	70004393 	.word	0x70004393
70004310:	70004393 	.word	0x70004393
70004314:	70004393 	.word	0x70004393
70004318:	70004393 	.word	0x70004393
7000431c:	70004393 	.word	0x70004393
70004320:	70004393 	.word	0x70004393
70004324:	70004393 	.word	0x70004393
70004328:	70004393 	.word	0x70004393
7000432c:	70004393 	.word	0x70004393
70004330:	70004393 	.word	0x70004393
70004334:	70004385 	.word	0x70004385
70004338:	2b40      	cmp	r3, #64	@ 0x40
7000433a:	d026      	beq.n	7000438a <UART_SetConfig+0x6da>
7000433c:	e029      	b.n	70004392 <UART_SetConfig+0x6e2>
    {
      case UART_CLOCKSOURCE_PCLK1:
        pclk = HAL_RCC_GetPCLK1Freq();
7000433e:	f7fd fe19 	bl	70001f74 <HAL_RCC_GetPCLK1Freq>
70004342:	6278      	str	r0, [r7, #36]	@ 0x24
        break;
70004344:	e02b      	b.n	7000439e <UART_SetConfig+0x6ee>
      case UART_CLOCKSOURCE_PCLK2:
        pclk = HAL_RCC_GetPCLK2Freq();
70004346:	f7fd fe31 	bl	70001fac <HAL_RCC_GetPCLK2Freq>
7000434a:	6278      	str	r0, [r7, #36]	@ 0x24
        break;
7000434c:	e027      	b.n	7000439e <UART_SetConfig+0x6ee>
      case UART_CLOCKSOURCE_PLL2Q:
        pclk = HAL_RCC_GetPLL2QFreq();
7000434e:	f7fd fe65 	bl	7000201c <HAL_RCC_GetPLL2QFreq>
70004352:	6278      	str	r0, [r7, #36]	@ 0x24
        break;
70004354:	e023      	b.n	7000439e <UART_SetConfig+0x6ee>
      case UART_CLOCKSOURCE_PLL3Q:
        pclk = HAL_RCC_GetPLL3QFreq();
70004356:	f7fd fe77 	bl	70002048 <HAL_RCC_GetPLL3QFreq>
7000435a:	6278      	str	r0, [r7, #36]	@ 0x24
        break;
7000435c:	e01f      	b.n	7000439e <UART_SetConfig+0x6ee>
      case UART_CLOCKSOURCE_HSI:
        if (__HAL_RCC_GET_FLAG(RCC_FLAG_HSIDIV) != 0U)
7000435e:	4b88      	ldr	r3, [pc, #544]	@ (70004580 <UART_SetConfig+0x8d0>)
70004360:	681b      	ldr	r3, [r3, #0]
70004362:	f003 0320 	and.w	r3, r3, #32
70004366:	2b00      	cmp	r3, #0
70004368:	d009      	beq.n	7000437e <UART_SetConfig+0x6ce>
        {
          pclk = (uint32_t)(HSI_VALUE >> (__HAL_RCC_GET_HSI_DIVIDER() >> 3U));
7000436a:	4b85      	ldr	r3, [pc, #532]	@ (70004580 <UART_SetConfig+0x8d0>)
7000436c:	681b      	ldr	r3, [r3, #0]
7000436e:	08db      	lsrs	r3, r3, #3
70004370:	f003 0303 	and.w	r3, r3, #3
70004374:	4a83      	ldr	r2, [pc, #524]	@ (70004584 <UART_SetConfig+0x8d4>)
70004376:	fa22 f303 	lsr.w	r3, r2, r3
7000437a:	627b      	str	r3, [r7, #36]	@ 0x24
        }
        else
        {
          pclk = (uint32_t) HSI_VALUE;
        }
        break;
7000437c:	e00f      	b.n	7000439e <UART_SetConfig+0x6ee>
          pclk = (uint32_t) HSI_VALUE;
7000437e:	4b81      	ldr	r3, [pc, #516]	@ (70004584 <UART_SetConfig+0x8d4>)
70004380:	627b      	str	r3, [r7, #36]	@ 0x24
        break;
70004382:	e00c      	b.n	7000439e <UART_SetConfig+0x6ee>
      case UART_CLOCKSOURCE_CSI:
        pclk = (uint32_t) CSI_VALUE;
70004384:	4b80      	ldr	r3, [pc, #512]	@ (70004588 <UART_SetConfig+0x8d8>)
70004386:	627b      	str	r3, [r7, #36]	@ 0x24
        break;
70004388:	e009      	b.n	7000439e <UART_SetConfig+0x6ee>
      case UART_CLOCKSOURCE_LSE:
        pclk = (uint32_t) LSE_VALUE;
7000438a:	f44f 4300 	mov.w	r3, #32768	@ 0x8000
7000438e:	627b      	str	r3, [r7, #36]	@ 0x24
        break;
70004390:	e005      	b.n	7000439e <UART_SetConfig+0x6ee>
      default:
        pclk = 0U;
70004392:	2300      	movs	r3, #0
70004394:	627b      	str	r3, [r7, #36]	@ 0x24
        ret = HAL_ERROR;
70004396:	2301      	movs	r3, #1
70004398:	f887 302a 	strb.w	r3, [r7, #42]	@ 0x2a
        break;
7000439c:	bf00      	nop
    }

    /* USARTDIV must be greater than or equal to 0d16 */
    if (pclk != 0U)
7000439e:	6a7b      	ldr	r3, [r7, #36]	@ 0x24
700043a0:	2b00      	cmp	r3, #0
700043a2:	f000 80d7 	beq.w	70004554 <UART_SetConfig+0x8a4>
    {
      usartdiv = (uint32_t)(UART_DIV_SAMPLING8(pclk, huart->Init.BaudRate, huart->Init.ClockPrescaler));
700043a6:	697b      	ldr	r3, [r7, #20]
700043a8:	6a5b      	ldr	r3, [r3, #36]	@ 0x24
700043aa:	4a78      	ldr	r2, [pc, #480]	@ (7000458c <UART_SetConfig+0x8dc>)
700043ac:	f832 3013 	ldrh.w	r3, [r2, r3, lsl #1]
700043b0:	461a      	mov	r2, r3
700043b2:	6a7b      	ldr	r3, [r7, #36]	@ 0x24
700043b4:	fbb3 f3f2 	udiv	r3, r3, r2
700043b8:	005a      	lsls	r2, r3, #1
700043ba:	697b      	ldr	r3, [r7, #20]
700043bc:	685b      	ldr	r3, [r3, #4]
700043be:	085b      	lsrs	r3, r3, #1
700043c0:	441a      	add	r2, r3
700043c2:	697b      	ldr	r3, [r7, #20]
700043c4:	685b      	ldr	r3, [r3, #4]
700043c6:	fbb2 f3f3 	udiv	r3, r2, r3
700043ca:	623b      	str	r3, [r7, #32]
      if ((usartdiv >= UART_BRR_MIN) && (usartdiv <= UART_BRR_MAX))
700043cc:	6a3b      	ldr	r3, [r7, #32]
700043ce:	2b0f      	cmp	r3, #15
700043d0:	d916      	bls.n	70004400 <UART_SetConfig+0x750>
700043d2:	6a3b      	ldr	r3, [r7, #32]
700043d4:	f5b3 3f80 	cmp.w	r3, #65536	@ 0x10000
700043d8:	d212      	bcs.n	70004400 <UART_SetConfig+0x750>
      {
        brrtemp = (uint16_t)(usartdiv & 0xFFF0U);
700043da:	6a3b      	ldr	r3, [r7, #32]
700043dc:	b29b      	uxth	r3, r3
700043de:	f023 030f 	bic.w	r3, r3, #15
700043e2:	83fb      	strh	r3, [r7, #30]
        brrtemp |= (uint16_t)((usartdiv & (uint16_t)0x000FU) >> 1U);
700043e4:	6a3b      	ldr	r3, [r7, #32]
700043e6:	085b      	lsrs	r3, r3, #1
700043e8:	b29b      	uxth	r3, r3
700043ea:	f003 0307 	and.w	r3, r3, #7
700043ee:	b29a      	uxth	r2, r3
700043f0:	8bfb      	ldrh	r3, [r7, #30]
700043f2:	4313      	orrs	r3, r2
700043f4:	83fb      	strh	r3, [r7, #30]
        huart->Instance->BRR = brrtemp;
700043f6:	697b      	ldr	r3, [r7, #20]
700043f8:	681b      	ldr	r3, [r3, #0]
700043fa:	8bfa      	ldrh	r2, [r7, #30]
700043fc:	60da      	str	r2, [r3, #12]
700043fe:	e0a9      	b.n	70004554 <UART_SetConfig+0x8a4>
      }
      else
      {
        ret = HAL_ERROR;
70004400:	2301      	movs	r3, #1
70004402:	f887 302a 	strb.w	r3, [r7, #42]	@ 0x2a
70004406:	e0a5      	b.n	70004554 <UART_SetConfig+0x8a4>
      }
    }
  }
  else
  {
    switch (clocksource)
70004408:	f897 302b 	ldrb.w	r3, [r7, #43]	@ 0x2b
7000440c:	2b20      	cmp	r3, #32
7000440e:	dc49      	bgt.n	700044a4 <UART_SetConfig+0x7f4>
70004410:	2b00      	cmp	r3, #0
70004412:	db74      	blt.n	700044fe <UART_SetConfig+0x84e>
70004414:	2b20      	cmp	r3, #32
70004416:	d872      	bhi.n	700044fe <UART_SetConfig+0x84e>
70004418:	a201      	add	r2, pc, #4	@ (adr r2, 70004420 <UART_SetConfig+0x770>)
7000441a:	f852 f023 	ldr.w	pc, [r2, r3, lsl #2]
7000441e:	bf00      	nop
70004420:	700044ab 	.word	0x700044ab
70004424:	700044b3 	.word	0x700044b3
70004428:	700044ff 	.word	0x700044ff
7000442c:	700044ff 	.word	0x700044ff
70004430:	700044bb 	.word	0x700044bb
70004434:	700044ff 	.word	0x700044ff
70004438:	700044ff 	.word	0x700044ff
7000443c:	700044ff 	.word	0x700044ff
70004440:	700044c3 	.word	0x700044c3
70004444:	700044ff 	.word	0x700044ff
70004448:	700044ff 	.word	0x700044ff
7000444c:	700044ff 	.word	0x700044ff
70004450:	700044ff 	.word	0x700044ff
70004454:	700044ff 	.word	0x700044ff
70004458:	700044ff 	.word	0x700044ff
7000445c:	700044ff 	.word	0x700044ff
70004460:	700044cb 	.word	0x700044cb
70004464:	700044ff 	.word	0x700044ff
70004468:	700044ff 	.word	0x700044ff
7000446c:	700044ff 	.word	0x700044ff
70004470:	700044ff 	.word	0x700044ff
70004474:	700044ff 	.word	0x700044ff
70004478:	700044ff 	.word	0x700044ff
7000447c:	700044ff 	.word	0x700044ff
70004480:	700044ff 	.word	0x700044ff
70004484:	700044ff 	.word	0x700044ff
70004488:	700044ff 	.word	0x700044ff
7000448c:	700044ff 	.word	0x700044ff
70004490:	700044ff 	.word	0x700044ff
70004494:	700044ff 	.word	0x700044ff
70004498:	700044ff 	.word	0x700044ff
7000449c:	700044ff 	.word	0x700044ff
700044a0:	700044f1 	.word	0x700044f1
700044a4:	2b40      	cmp	r3, #64	@ 0x40
700044a6:	d026      	beq.n	700044f6 <UART_SetConfig+0x846>
700044a8:	e029      	b.n	700044fe <UART_SetConfig+0x84e>
    {
      case UART_CLOCKSOURCE_PCLK1:
        pclk = HAL_RCC_GetPCLK1Freq();
700044aa:	f7fd fd63 	bl	70001f74 <HAL_RCC_GetPCLK1Freq>
700044ae:	6278      	str	r0, [r7, #36]	@ 0x24
        break;
700044b0:	e02b      	b.n	7000450a <UART_SetConfig+0x85a>
      case UART_CLOCKSOURCE_PCLK2:
        pclk = HAL_RCC_GetPCLK2Freq();
700044b2:	f7fd fd7b 	bl	70001fac <HAL_RCC_GetPCLK2Freq>
700044b6:	6278      	str	r0, [r7, #36]	@ 0x24
        break;
700044b8:	e027      	b.n	7000450a <UART_SetConfig+0x85a>
      case UART_CLOCKSOURCE_PLL2Q:
        pclk = HAL_RCC_GetPLL2QFreq();
700044ba:	f7fd fdaf 	bl	7000201c <HAL_RCC_GetPLL2QFreq>
700044be:	6278      	str	r0, [r7, #36]	@ 0x24
        break;
700044c0:	e023      	b.n	7000450a <UART_SetConfig+0x85a>
      case UART_CLOCKSOURCE_PLL3Q:
        pclk = HAL_RCC_GetPLL3QFreq();
700044c2:	f7fd fdc1 	bl	70002048 <HAL_RCC_GetPLL3QFreq>
700044c6:	6278      	str	r0, [r7, #36]	@ 0x24
        break;
700044c8:	e01f      	b.n	7000450a <UART_SetConfig+0x85a>
      case UART_CLOCKSOURCE_HSI:
        if (__HAL_RCC_GET_FLAG(RCC_FLAG_HSIDIV) != 0U)
700044ca:	4b2d      	ldr	r3, [pc, #180]	@ (70004580 <UART_SetConfig+0x8d0>)
700044cc:	681b      	ldr	r3, [r3, #0]
700044ce:	f003 0320 	and.w	r3, r3, #32
700044d2:	2b00      	cmp	r3, #0
700044d4:	d009      	beq.n	700044ea <UART_SetConfig+0x83a>
        {
          pclk = (uint32_t)(HSI_VALUE >> (__HAL_RCC_GET_HSI_DIVIDER() >> 3U));
700044d6:	4b2a      	ldr	r3, [pc, #168]	@ (70004580 <UART_SetConfig+0x8d0>)
700044d8:	681b      	ldr	r3, [r3, #0]
700044da:	08db      	lsrs	r3, r3, #3
700044dc:	f003 0303 	and.w	r3, r3, #3
700044e0:	4a28      	ldr	r2, [pc, #160]	@ (70004584 <UART_SetConfig+0x8d4>)
700044e2:	fa22 f303 	lsr.w	r3, r2, r3
700044e6:	627b      	str	r3, [r7, #36]	@ 0x24
        }
        else
        {
          pclk = (uint32_t) HSI_VALUE;
        }
        break;
700044e8:	e00f      	b.n	7000450a <UART_SetConfig+0x85a>
          pclk = (uint32_t) HSI_VALUE;
700044ea:	4b26      	ldr	r3, [pc, #152]	@ (70004584 <UART_SetConfig+0x8d4>)
700044ec:	627b      	str	r3, [r7, #36]	@ 0x24
        break;
700044ee:	e00c      	b.n	7000450a <UART_SetConfig+0x85a>
      case UART_CLOCKSOURCE_CSI:
        pclk = (uint32_t) CSI_VALUE;
700044f0:	4b25      	ldr	r3, [pc, #148]	@ (70004588 <UART_SetConfig+0x8d8>)
700044f2:	627b      	str	r3, [r7, #36]	@ 0x24
        break;
700044f4:	e009      	b.n	7000450a <UART_SetConfig+0x85a>
      case UART_CLOCKSOURCE_LSE:
        pclk = (uint32_t) LSE_VALUE;
700044f6:	f44f 4300 	mov.w	r3, #32768	@ 0x8000
700044fa:	627b      	str	r3, [r7, #36]	@ 0x24
        break;
700044fc:	e005      	b.n	7000450a <UART_SetConfig+0x85a>
      default:
        pclk = 0U;
700044fe:	2300      	movs	r3, #0
70004500:	627b      	str	r3, [r7, #36]	@ 0x24
        ret = HAL_ERROR;
70004502:	2301      	movs	r3, #1
70004504:	f887 302a 	strb.w	r3, [r7, #42]	@ 0x2a
        break;
70004508:	bf00      	nop
    }

    if (pclk != 0U)
7000450a:	6a7b      	ldr	r3, [r7, #36]	@ 0x24
7000450c:	2b00      	cmp	r3, #0
7000450e:	d021      	beq.n	70004554 <UART_SetConfig+0x8a4>
    {
      /* USARTDIV must be greater than or equal to 0d16 */
      usartdiv = (uint32_t)(UART_DIV_SAMPLING16(pclk, huart->Init.BaudRate, huart->Init.ClockPrescaler));
70004510:	697b      	ldr	r3, [r7, #20]
70004512:	6a5b      	ldr	r3, [r3, #36]	@ 0x24
70004514:	4a1d      	ldr	r2, [pc, #116]	@ (7000458c <UART_SetConfig+0x8dc>)
70004516:	f832 3013 	ldrh.w	r3, [r2, r3, lsl #1]
7000451a:	461a      	mov	r2, r3
7000451c:	6a7b      	ldr	r3, [r7, #36]	@ 0x24
7000451e:	fbb3 f2f2 	udiv	r2, r3, r2
70004522:	697b      	ldr	r3, [r7, #20]
70004524:	685b      	ldr	r3, [r3, #4]
70004526:	085b      	lsrs	r3, r3, #1
70004528:	441a      	add	r2, r3
7000452a:	697b      	ldr	r3, [r7, #20]
7000452c:	685b      	ldr	r3, [r3, #4]
7000452e:	fbb2 f3f3 	udiv	r3, r2, r3
70004532:	623b      	str	r3, [r7, #32]
      if ((usartdiv >= UART_BRR_MIN) && (usartdiv <= UART_BRR_MAX))
70004534:	6a3b      	ldr	r3, [r7, #32]
70004536:	2b0f      	cmp	r3, #15
70004538:	d909      	bls.n	7000454e <UART_SetConfig+0x89e>
7000453a:	6a3b      	ldr	r3, [r7, #32]
7000453c:	f5b3 3f80 	cmp.w	r3, #65536	@ 0x10000
70004540:	d205      	bcs.n	7000454e <UART_SetConfig+0x89e>
      {
        huart->Instance->BRR = (uint16_t)usartdiv;
70004542:	6a3b      	ldr	r3, [r7, #32]
70004544:	b29a      	uxth	r2, r3
70004546:	697b      	ldr	r3, [r7, #20]
70004548:	681b      	ldr	r3, [r3, #0]
7000454a:	60da      	str	r2, [r3, #12]
7000454c:	e002      	b.n	70004554 <UART_SetConfig+0x8a4>
      }
      else
      {
        ret = HAL_ERROR;
7000454e:	2301      	movs	r3, #1
70004550:	f887 302a 	strb.w	r3, [r7, #42]	@ 0x2a
      }
    }
  }

  /* Initialize the number of data to process during RX/TX ISR execution */
  huart->NbTxDataToProcess = 1;
70004554:	697b      	ldr	r3, [r7, #20]
70004556:	2201      	movs	r2, #1
70004558:	f8a3 206a 	strh.w	r2, [r3, #106]	@ 0x6a
  huart->NbRxDataToProcess = 1;
7000455c:	697b      	ldr	r3, [r7, #20]
7000455e:	2201      	movs	r2, #1
70004560:	f8a3 2068 	strh.w	r2, [r3, #104]	@ 0x68

  /* Clear ISR function pointers */
  huart->RxISR = NULL;
70004564:	697b      	ldr	r3, [r7, #20]
70004566:	2200      	movs	r2, #0
70004568:	675a      	str	r2, [r3, #116]	@ 0x74
  huart->TxISR = NULL;
7000456a:	697b      	ldr	r3, [r7, #20]
7000456c:	2200      	movs	r2, #0
7000456e:	679a      	str	r2, [r3, #120]	@ 0x78

  return ret;
70004570:	f897 302a 	ldrb.w	r3, [r7, #42]	@ 0x2a
}
70004574:	4618      	mov	r0, r3
70004576:	3730      	adds	r7, #48	@ 0x30
70004578:	46bd      	mov	sp, r7
7000457a:	e8bd 8fb0 	ldmia.w	sp!, {r4, r5, r7, r8, r9, sl, fp, pc}
7000457e:	bf00      	nop
70004580:	58024400 	.word	0x58024400
70004584:	03d09000 	.word	0x03d09000
70004588:	003d0900 	.word	0x003d0900
7000458c:	70006a44 	.word	0x70006a44

70004590 <UART_AdvFeatureConfig>:
  * @brief Configure the UART peripheral advanced features.
  * @param huart UART handle.
  * @retval None
  */
void UART_AdvFeatureConfig(UART_HandleTypeDef *huart)
{
70004590:	b580      	push	{r7, lr}
70004592:	b082      	sub	sp, #8
70004594:	af00      	add	r7, sp, #0
70004596:	6078      	str	r0, [r7, #4]
  /* Check whether the set of advanced features to configure is properly set */
  assert_param(IS_UART_ADVFEATURE_INIT(huart->AdvancedInit.AdvFeatureInit));
70004598:	687b      	ldr	r3, [r7, #4]
7000459a:	6a9b      	ldr	r3, [r3, #40]	@ 0x28
7000459c:	2bff      	cmp	r3, #255	@ 0xff
7000459e:	d904      	bls.n	700045aa <UART_AdvFeatureConfig+0x1a>
700045a0:	f640 5147 	movw	r1, #3399	@ 0xd47
700045a4:	4890      	ldr	r0, [pc, #576]	@ (700047e8 <UART_AdvFeatureConfig+0x258>)
700045a6:	f7fc fb29 	bl	70000bfc <assert_failed>

  /* if required, configure RX/TX pins swap */
  if (HAL_IS_BIT_SET(huart->AdvancedInit.AdvFeatureInit, UART_ADVFEATURE_SWAP_INIT))
700045aa:	687b      	ldr	r3, [r7, #4]
700045ac:	6a9b      	ldr	r3, [r3, #40]	@ 0x28
700045ae:	f003 0308 	and.w	r3, r3, #8
700045b2:	2b00      	cmp	r3, #0
700045b4:	d018      	beq.n	700045e8 <UART_AdvFeatureConfig+0x58>
  {
    assert_param(IS_UART_ADVFEATURE_SWAP(huart->AdvancedInit.Swap));
700045b6:	687b      	ldr	r3, [r7, #4]
700045b8:	6b9b      	ldr	r3, [r3, #56]	@ 0x38
700045ba:	2b00      	cmp	r3, #0
700045bc:	d009      	beq.n	700045d2 <UART_AdvFeatureConfig+0x42>
700045be:	687b      	ldr	r3, [r7, #4]
700045c0:	6b9b      	ldr	r3, [r3, #56]	@ 0x38
700045c2:	f5b3 4f00 	cmp.w	r3, #32768	@ 0x8000
700045c6:	d004      	beq.n	700045d2 <UART_AdvFeatureConfig+0x42>
700045c8:	f640 514c 	movw	r1, #3404	@ 0xd4c
700045cc:	4886      	ldr	r0, [pc, #536]	@ (700047e8 <UART_AdvFeatureConfig+0x258>)
700045ce:	f7fc fb15 	bl	70000bfc <assert_failed>
    MODIFY_REG(huart->Instance->CR2, USART_CR2_SWAP, huart->AdvancedInit.Swap);
700045d2:	687b      	ldr	r3, [r7, #4]
700045d4:	681b      	ldr	r3, [r3, #0]
700045d6:	685b      	ldr	r3, [r3, #4]
700045d8:	f423 4100 	bic.w	r1, r3, #32768	@ 0x8000
700045dc:	687b      	ldr	r3, [r7, #4]
700045de:	6b9a      	ldr	r2, [r3, #56]	@ 0x38
700045e0:	687b      	ldr	r3, [r7, #4]
700045e2:	681b      	ldr	r3, [r3, #0]
700045e4:	430a      	orrs	r2, r1
700045e6:	605a      	str	r2, [r3, #4]
  }

  /* if required, configure TX pin active level inversion */
  if (HAL_IS_BIT_SET(huart->AdvancedInit.AdvFeatureInit, UART_ADVFEATURE_TXINVERT_INIT))
700045e8:	687b      	ldr	r3, [r7, #4]
700045ea:	6a9b      	ldr	r3, [r3, #40]	@ 0x28
700045ec:	f003 0301 	and.w	r3, r3, #1
700045f0:	2b00      	cmp	r3, #0
700045f2:	d018      	beq.n	70004626 <UART_AdvFeatureConfig+0x96>
  {
    assert_param(IS_UART_ADVFEATURE_TXINV(huart->AdvancedInit.TxPinLevelInvert));
700045f4:	687b      	ldr	r3, [r7, #4]
700045f6:	6adb      	ldr	r3, [r3, #44]	@ 0x2c
700045f8:	2b00      	cmp	r3, #0
700045fa:	d009      	beq.n	70004610 <UART_AdvFeatureConfig+0x80>
700045fc:	687b      	ldr	r3, [r7, #4]
700045fe:	6adb      	ldr	r3, [r3, #44]	@ 0x2c
70004600:	f5b3 3f00 	cmp.w	r3, #131072	@ 0x20000
70004604:	d004      	beq.n	70004610 <UART_AdvFeatureConfig+0x80>
70004606:	f640 5153 	movw	r1, #3411	@ 0xd53
7000460a:	4877      	ldr	r0, [pc, #476]	@ (700047e8 <UART_AdvFeatureConfig+0x258>)
7000460c:	f7fc faf6 	bl	70000bfc <assert_failed>
    MODIFY_REG(huart->Instance->CR2, USART_CR2_TXINV, huart->AdvancedInit.TxPinLevelInvert);
70004610:	687b      	ldr	r3, [r7, #4]
70004612:	681b      	ldr	r3, [r3, #0]
70004614:	685b      	ldr	r3, [r3, #4]
70004616:	f423 3100 	bic.w	r1, r3, #131072	@ 0x20000
7000461a:	687b      	ldr	r3, [r7, #4]
7000461c:	6ada      	ldr	r2, [r3, #44]	@ 0x2c
7000461e:	687b      	ldr	r3, [r7, #4]
70004620:	681b      	ldr	r3, [r3, #0]
70004622:	430a      	orrs	r2, r1
70004624:	605a      	str	r2, [r3, #4]
  }

  /* if required, configure RX pin active level inversion */
  if (HAL_IS_BIT_SET(huart->AdvancedInit.AdvFeatureInit, UART_ADVFEATURE_RXINVERT_INIT))
70004626:	687b      	ldr	r3, [r7, #4]
70004628:	6a9b      	ldr	r3, [r3, #40]	@ 0x28
7000462a:	f003 0302 	and.w	r3, r3, #2
7000462e:	2b00      	cmp	r3, #0
70004630:	d018      	beq.n	70004664 <UART_AdvFeatureConfig+0xd4>
  {
    assert_param(IS_UART_ADVFEATURE_RXINV(huart->AdvancedInit.RxPinLevelInvert));
70004632:	687b      	ldr	r3, [r7, #4]
70004634:	6b1b      	ldr	r3, [r3, #48]	@ 0x30
70004636:	2b00      	cmp	r3, #0
70004638:	d009      	beq.n	7000464e <UART_AdvFeatureConfig+0xbe>
7000463a:	687b      	ldr	r3, [r7, #4]
7000463c:	6b1b      	ldr	r3, [r3, #48]	@ 0x30
7000463e:	f5b3 3f80 	cmp.w	r3, #65536	@ 0x10000
70004642:	d004      	beq.n	7000464e <UART_AdvFeatureConfig+0xbe>
70004644:	f640 515a 	movw	r1, #3418	@ 0xd5a
70004648:	4867      	ldr	r0, [pc, #412]	@ (700047e8 <UART_AdvFeatureConfig+0x258>)
7000464a:	f7fc fad7 	bl	70000bfc <assert_failed>
    MODIFY_REG(huart->Instance->CR2, USART_CR2_RXINV, huart->AdvancedInit.RxPinLevelInvert);
7000464e:	687b      	ldr	r3, [r7, #4]
70004650:	681b      	ldr	r3, [r3, #0]
70004652:	685b      	ldr	r3, [r3, #4]
70004654:	f423 3180 	bic.w	r1, r3, #65536	@ 0x10000
70004658:	687b      	ldr	r3, [r7, #4]
7000465a:	6b1a      	ldr	r2, [r3, #48]	@ 0x30
7000465c:	687b      	ldr	r3, [r7, #4]
7000465e:	681b      	ldr	r3, [r3, #0]
70004660:	430a      	orrs	r2, r1
70004662:	605a      	str	r2, [r3, #4]
  }

  /* if required, configure data inversion */
  if (HAL_IS_BIT_SET(huart->AdvancedInit.AdvFeatureInit, UART_ADVFEATURE_DATAINVERT_INIT))
70004664:	687b      	ldr	r3, [r7, #4]
70004666:	6a9b      	ldr	r3, [r3, #40]	@ 0x28
70004668:	f003 0304 	and.w	r3, r3, #4
7000466c:	2b00      	cmp	r3, #0
7000466e:	d018      	beq.n	700046a2 <UART_AdvFeatureConfig+0x112>
  {
    assert_param(IS_UART_ADVFEATURE_DATAINV(huart->AdvancedInit.DataInvert));
70004670:	687b      	ldr	r3, [r7, #4]
70004672:	6b5b      	ldr	r3, [r3, #52]	@ 0x34
70004674:	2b00      	cmp	r3, #0
70004676:	d009      	beq.n	7000468c <UART_AdvFeatureConfig+0xfc>
70004678:	687b      	ldr	r3, [r7, #4]
7000467a:	6b5b      	ldr	r3, [r3, #52]	@ 0x34
7000467c:	f5b3 2f80 	cmp.w	r3, #262144	@ 0x40000
70004680:	d004      	beq.n	7000468c <UART_AdvFeatureConfig+0xfc>
70004682:	f640 5161 	movw	r1, #3425	@ 0xd61
70004686:	4858      	ldr	r0, [pc, #352]	@ (700047e8 <UART_AdvFeatureConfig+0x258>)
70004688:	f7fc fab8 	bl	70000bfc <assert_failed>
    MODIFY_REG(huart->Instance->CR2, USART_CR2_DATAINV, huart->AdvancedInit.DataInvert);
7000468c:	687b      	ldr	r3, [r7, #4]
7000468e:	681b      	ldr	r3, [r3, #0]
70004690:	685b      	ldr	r3, [r3, #4]
70004692:	f423 2180 	bic.w	r1, r3, #262144	@ 0x40000
70004696:	687b      	ldr	r3, [r7, #4]
70004698:	6b5a      	ldr	r2, [r3, #52]	@ 0x34
7000469a:	687b      	ldr	r3, [r7, #4]
7000469c:	681b      	ldr	r3, [r3, #0]
7000469e:	430a      	orrs	r2, r1
700046a0:	605a      	str	r2, [r3, #4]
  }

  /* if required, configure RX overrun detection disabling */
  if (HAL_IS_BIT_SET(huart->AdvancedInit.AdvFeatureInit, UART_ADVFEATURE_RXOVERRUNDISABLE_INIT))
700046a2:	687b      	ldr	r3, [r7, #4]
700046a4:	6a9b      	ldr	r3, [r3, #40]	@ 0x28
700046a6:	f003 0310 	and.w	r3, r3, #16
700046aa:	2b00      	cmp	r3, #0
700046ac:	d018      	beq.n	700046e0 <UART_AdvFeatureConfig+0x150>
  {
    assert_param(IS_UART_OVERRUN(huart->AdvancedInit.OverrunDisable));
700046ae:	687b      	ldr	r3, [r7, #4]
700046b0:	6bdb      	ldr	r3, [r3, #60]	@ 0x3c
700046b2:	2b00      	cmp	r3, #0
700046b4:	d009      	beq.n	700046ca <UART_AdvFeatureConfig+0x13a>
700046b6:	687b      	ldr	r3, [r7, #4]
700046b8:	6bdb      	ldr	r3, [r3, #60]	@ 0x3c
700046ba:	f5b3 5f80 	cmp.w	r3, #4096	@ 0x1000
700046be:	d004      	beq.n	700046ca <UART_AdvFeatureConfig+0x13a>
700046c0:	f640 5168 	movw	r1, #3432	@ 0xd68
700046c4:	4848      	ldr	r0, [pc, #288]	@ (700047e8 <UART_AdvFeatureConfig+0x258>)
700046c6:	f7fc fa99 	bl	70000bfc <assert_failed>
    MODIFY_REG(huart->Instance->CR3, USART_CR3_OVRDIS, huart->AdvancedInit.OverrunDisable);
700046ca:	687b      	ldr	r3, [r7, #4]
700046cc:	681b      	ldr	r3, [r3, #0]
700046ce:	689b      	ldr	r3, [r3, #8]
700046d0:	f423 5180 	bic.w	r1, r3, #4096	@ 0x1000
700046d4:	687b      	ldr	r3, [r7, #4]
700046d6:	6bda      	ldr	r2, [r3, #60]	@ 0x3c
700046d8:	687b      	ldr	r3, [r7, #4]
700046da:	681b      	ldr	r3, [r3, #0]
700046dc:	430a      	orrs	r2, r1
700046de:	609a      	str	r2, [r3, #8]
  }

#if defined(HAL_DMA_MODULE_ENABLED)
  /* if required, configure DMA disabling on reception error */
  if (HAL_IS_BIT_SET(huart->AdvancedInit.AdvFeatureInit, UART_ADVFEATURE_DMADISABLEONERROR_INIT))
700046e0:	687b      	ldr	r3, [r7, #4]
700046e2:	6a9b      	ldr	r3, [r3, #40]	@ 0x28
700046e4:	f003 0320 	and.w	r3, r3, #32
700046e8:	2b00      	cmp	r3, #0
700046ea:	d018      	beq.n	7000471e <UART_AdvFeatureConfig+0x18e>
  {
    assert_param(IS_UART_ADVFEATURE_DMAONRXERROR(huart->AdvancedInit.DMADisableonRxError));
700046ec:	687b      	ldr	r3, [r7, #4]
700046ee:	6c1b      	ldr	r3, [r3, #64]	@ 0x40
700046f0:	2b00      	cmp	r3, #0
700046f2:	d009      	beq.n	70004708 <UART_AdvFeatureConfig+0x178>
700046f4:	687b      	ldr	r3, [r7, #4]
700046f6:	6c1b      	ldr	r3, [r3, #64]	@ 0x40
700046f8:	f5b3 5f00 	cmp.w	r3, #8192	@ 0x2000
700046fc:	d004      	beq.n	70004708 <UART_AdvFeatureConfig+0x178>
700046fe:	f44f 6157 	mov.w	r1, #3440	@ 0xd70
70004702:	4839      	ldr	r0, [pc, #228]	@ (700047e8 <UART_AdvFeatureConfig+0x258>)
70004704:	f7fc fa7a 	bl	70000bfc <assert_failed>
    MODIFY_REG(huart->Instance->CR3, USART_CR3_DDRE, huart->AdvancedInit.DMADisableonRxError);
70004708:	687b      	ldr	r3, [r7, #4]
7000470a:	681b      	ldr	r3, [r3, #0]
7000470c:	689b      	ldr	r3, [r3, #8]
7000470e:	f423 5100 	bic.w	r1, r3, #8192	@ 0x2000
70004712:	687b      	ldr	r3, [r7, #4]
70004714:	6c1a      	ldr	r2, [r3, #64]	@ 0x40
70004716:	687b      	ldr	r3, [r7, #4]
70004718:	681b      	ldr	r3, [r3, #0]
7000471a:	430a      	orrs	r2, r1
7000471c:	609a      	str	r2, [r3, #8]
  }
#endif /* HAL_DMA_MODULE_ENABLED */

  /* if required, configure auto Baud rate detection scheme */
  if (HAL_IS_BIT_SET(huart->AdvancedInit.AdvFeatureInit, UART_ADVFEATURE_AUTOBAUDRATE_INIT))
7000471e:	687b      	ldr	r3, [r7, #4]
70004720:	6a9b      	ldr	r3, [r3, #40]	@ 0x28
70004722:	f003 0340 	and.w	r3, r3, #64	@ 0x40
70004726:	2b00      	cmp	r3, #0
70004728:	d079      	beq.n	7000481e <UART_AdvFeatureConfig+0x28e>
  {
    assert_param(IS_USART_AUTOBAUDRATE_DETECTION_INSTANCE(huart->Instance));
7000472a:	687b      	ldr	r3, [r7, #4]
7000472c:	681b      	ldr	r3, [r3, #0]
7000472e:	4a2f      	ldr	r2, [pc, #188]	@ (700047ec <UART_AdvFeatureConfig+0x25c>)
70004730:	4293      	cmp	r3, r2
70004732:	d022      	beq.n	7000477a <UART_AdvFeatureConfig+0x1ea>
70004734:	687b      	ldr	r3, [r7, #4]
70004736:	681b      	ldr	r3, [r3, #0]
70004738:	4a2d      	ldr	r2, [pc, #180]	@ (700047f0 <UART_AdvFeatureConfig+0x260>)
7000473a:	4293      	cmp	r3, r2
7000473c:	d01d      	beq.n	7000477a <UART_AdvFeatureConfig+0x1ea>
7000473e:	687b      	ldr	r3, [r7, #4]
70004740:	681b      	ldr	r3, [r3, #0]
70004742:	4a2c      	ldr	r2, [pc, #176]	@ (700047f4 <UART_AdvFeatureConfig+0x264>)
70004744:	4293      	cmp	r3, r2
70004746:	d018      	beq.n	7000477a <UART_AdvFeatureConfig+0x1ea>
70004748:	687b      	ldr	r3, [r7, #4]
7000474a:	681b      	ldr	r3, [r3, #0]
7000474c:	4a2a      	ldr	r2, [pc, #168]	@ (700047f8 <UART_AdvFeatureConfig+0x268>)
7000474e:	4293      	cmp	r3, r2
70004750:	d013      	beq.n	7000477a <UART_AdvFeatureConfig+0x1ea>
70004752:	687b      	ldr	r3, [r7, #4]
70004754:	681b      	ldr	r3, [r3, #0]
70004756:	4a29      	ldr	r2, [pc, #164]	@ (700047fc <UART_AdvFeatureConfig+0x26c>)
70004758:	4293      	cmp	r3, r2
7000475a:	d00e      	beq.n	7000477a <UART_AdvFeatureConfig+0x1ea>
7000475c:	687b      	ldr	r3, [r7, #4]
7000475e:	681b      	ldr	r3, [r3, #0]
70004760:	4a27      	ldr	r2, [pc, #156]	@ (70004800 <UART_AdvFeatureConfig+0x270>)
70004762:	4293      	cmp	r3, r2
70004764:	d009      	beq.n	7000477a <UART_AdvFeatureConfig+0x1ea>
70004766:	687b      	ldr	r3, [r7, #4]
70004768:	681b      	ldr	r3, [r3, #0]
7000476a:	4a26      	ldr	r2, [pc, #152]	@ (70004804 <UART_AdvFeatureConfig+0x274>)
7000476c:	4293      	cmp	r3, r2
7000476e:	d004      	beq.n	7000477a <UART_AdvFeatureConfig+0x1ea>
70004770:	f640 5178 	movw	r1, #3448	@ 0xd78
70004774:	481c      	ldr	r0, [pc, #112]	@ (700047e8 <UART_AdvFeatureConfig+0x258>)
70004776:	f7fc fa41 	bl	70000bfc <assert_failed>
    assert_param(IS_UART_ADVFEATURE_AUTOBAUDRATE(huart->AdvancedInit.AutoBaudRateEnable));
7000477a:	687b      	ldr	r3, [r7, #4]
7000477c:	6c5b      	ldr	r3, [r3, #68]	@ 0x44
7000477e:	2b00      	cmp	r3, #0
70004780:	d009      	beq.n	70004796 <UART_AdvFeatureConfig+0x206>
70004782:	687b      	ldr	r3, [r7, #4]
70004784:	6c5b      	ldr	r3, [r3, #68]	@ 0x44
70004786:	f5b3 1f80 	cmp.w	r3, #1048576	@ 0x100000
7000478a:	d004      	beq.n	70004796 <UART_AdvFeatureConfig+0x206>
7000478c:	f640 5179 	movw	r1, #3449	@ 0xd79
70004790:	4815      	ldr	r0, [pc, #84]	@ (700047e8 <UART_AdvFeatureConfig+0x258>)
70004792:	f7fc fa33 	bl	70000bfc <assert_failed>
    MODIFY_REG(huart->Instance->CR2, USART_CR2_ABREN, huart->AdvancedInit.AutoBaudRateEnable);
70004796:	687b      	ldr	r3, [r7, #4]
70004798:	681b      	ldr	r3, [r3, #0]
7000479a:	685b      	ldr	r3, [r3, #4]
7000479c:	f423 1180 	bic.w	r1, r3, #1048576	@ 0x100000
700047a0:	687b      	ldr	r3, [r7, #4]
700047a2:	6c5a      	ldr	r2, [r3, #68]	@ 0x44
700047a4:	687b      	ldr	r3, [r7, #4]
700047a6:	681b      	ldr	r3, [r3, #0]
700047a8:	430a      	orrs	r2, r1
700047aa:	605a      	str	r2, [r3, #4]
    /* set auto Baudrate detection parameters if detection is enabled */
    if (huart->AdvancedInit.AutoBaudRateEnable == UART_ADVFEATURE_AUTOBAUDRATE_ENABLE)
700047ac:	687b      	ldr	r3, [r7, #4]
700047ae:	6c5b      	ldr	r3, [r3, #68]	@ 0x44
700047b0:	f5b3 1f80 	cmp.w	r3, #1048576	@ 0x100000
700047b4:	d133      	bne.n	7000481e <UART_AdvFeatureConfig+0x28e>
    {
      assert_param(IS_UART_ADVFEATURE_AUTOBAUDRATEMODE(huart->AdvancedInit.AutoBaudRateMode));
700047b6:	687b      	ldr	r3, [r7, #4]
700047b8:	6c9b      	ldr	r3, [r3, #72]	@ 0x48
700047ba:	2b00      	cmp	r3, #0
700047bc:	d024      	beq.n	70004808 <UART_AdvFeatureConfig+0x278>
700047be:	687b      	ldr	r3, [r7, #4]
700047c0:	6c9b      	ldr	r3, [r3, #72]	@ 0x48
700047c2:	f5b3 1f00 	cmp.w	r3, #2097152	@ 0x200000
700047c6:	d01f      	beq.n	70004808 <UART_AdvFeatureConfig+0x278>
700047c8:	687b      	ldr	r3, [r7, #4]
700047ca:	6c9b      	ldr	r3, [r3, #72]	@ 0x48
700047cc:	f5b3 0f80 	cmp.w	r3, #4194304	@ 0x400000
700047d0:	d01a      	beq.n	70004808 <UART_AdvFeatureConfig+0x278>
700047d2:	687b      	ldr	r3, [r7, #4]
700047d4:	6c9b      	ldr	r3, [r3, #72]	@ 0x48
700047d6:	f5b3 0fc0 	cmp.w	r3, #6291456	@ 0x600000
700047da:	d015      	beq.n	70004808 <UART_AdvFeatureConfig+0x278>
700047dc:	f640 517e 	movw	r1, #3454	@ 0xd7e
700047e0:	4801      	ldr	r0, [pc, #4]	@ (700047e8 <UART_AdvFeatureConfig+0x258>)
700047e2:	f7fc fa0b 	bl	70000bfc <assert_failed>
700047e6:	e00f      	b.n	70004808 <UART_AdvFeatureConfig+0x278>
700047e8:	70006958 	.word	0x70006958
700047ec:	42001000 	.word	0x42001000
700047f0:	40004400 	.word	0x40004400
700047f4:	40004800 	.word	0x40004800
700047f8:	40004c00 	.word	0x40004c00
700047fc:	40005000 	.word	0x40005000
70004800:	40007800 	.word	0x40007800
70004804:	40007c00 	.word	0x40007c00
      MODIFY_REG(huart->Instance->CR2, USART_CR2_ABRMODE, huart->AdvancedInit.AutoBaudRateMode);
70004808:	687b      	ldr	r3, [r7, #4]
7000480a:	681b      	ldr	r3, [r3, #0]
7000480c:	685b      	ldr	r3, [r3, #4]
7000480e:	f423 01c0 	bic.w	r1, r3, #6291456	@ 0x600000
70004812:	687b      	ldr	r3, [r7, #4]
70004814:	6c9a      	ldr	r2, [r3, #72]	@ 0x48
70004816:	687b      	ldr	r3, [r7, #4]
70004818:	681b      	ldr	r3, [r3, #0]
7000481a:	430a      	orrs	r2, r1
7000481c:	605a      	str	r2, [r3, #4]
    }
  }

  /* if required, configure MSB first on communication line */
  if (HAL_IS_BIT_SET(huart->AdvancedInit.AdvFeatureInit, UART_ADVFEATURE_MSBFIRST_INIT))
7000481e:	687b      	ldr	r3, [r7, #4]
70004820:	6a9b      	ldr	r3, [r3, #40]	@ 0x28
70004822:	f003 0380 	and.w	r3, r3, #128	@ 0x80
70004826:	2b00      	cmp	r3, #0
70004828:	d018      	beq.n	7000485c <UART_AdvFeatureConfig+0x2cc>
  {
    assert_param(IS_UART_ADVFEATURE_MSBFIRST(huart->AdvancedInit.MSBFirst));
7000482a:	687b      	ldr	r3, [r7, #4]
7000482c:	6cdb      	ldr	r3, [r3, #76]	@ 0x4c
7000482e:	2b00      	cmp	r3, #0
70004830:	d009      	beq.n	70004846 <UART_AdvFeatureConfig+0x2b6>
70004832:	687b      	ldr	r3, [r7, #4]
70004834:	6cdb      	ldr	r3, [r3, #76]	@ 0x4c
70004836:	f5b3 2f00 	cmp.w	r3, #524288	@ 0x80000
7000483a:	d004      	beq.n	70004846 <UART_AdvFeatureConfig+0x2b6>
7000483c:	f640 5186 	movw	r1, #3462	@ 0xd86
70004840:	4808      	ldr	r0, [pc, #32]	@ (70004864 <UART_AdvFeatureConfig+0x2d4>)
70004842:	f7fc f9db 	bl	70000bfc <assert_failed>
    MODIFY_REG(huart->Instance->CR2, USART_CR2_MSBFIRST, huart->AdvancedInit.MSBFirst);
70004846:	687b      	ldr	r3, [r7, #4]
70004848:	681b      	ldr	r3, [r3, #0]
7000484a:	685b      	ldr	r3, [r3, #4]
7000484c:	f423 2100 	bic.w	r1, r3, #524288	@ 0x80000
70004850:	687b      	ldr	r3, [r7, #4]
70004852:	6cda      	ldr	r2, [r3, #76]	@ 0x4c
70004854:	687b      	ldr	r3, [r7, #4]
70004856:	681b      	ldr	r3, [r3, #0]
70004858:	430a      	orrs	r2, r1
7000485a:	605a      	str	r2, [r3, #4]
  }
}
7000485c:	bf00      	nop
7000485e:	3708      	adds	r7, #8
70004860:	46bd      	mov	sp, r7
70004862:	bd80      	pop	{r7, pc}
70004864:	70006958 	.word	0x70006958

70004868 <UART_CheckIdleState>:
  * @brief Check the UART Idle State.
  * @param huart UART handle.
  * @retval HAL status
  */
HAL_StatusTypeDef UART_CheckIdleState(UART_HandleTypeDef *huart)
{
70004868:	b580      	push	{r7, lr}
7000486a:	b098      	sub	sp, #96	@ 0x60
7000486c:	af02      	add	r7, sp, #8
7000486e:	6078      	str	r0, [r7, #4]
  uint32_t tickstart;

  /* Initialize the UART ErrorCode */
  huart->ErrorCode = HAL_UART_ERROR_NONE;
70004870:	687b      	ldr	r3, [r7, #4]
70004872:	2200      	movs	r2, #0
70004874:	f8c3 2090 	str.w	r2, [r3, #144]	@ 0x90

  /* Init tickstart for timeout management */
  tickstart = HAL_GetTick();
70004878:	f7fc fc66 	bl	70001148 <HAL_GetTick>
7000487c:	6578      	str	r0, [r7, #84]	@ 0x54

  /* Check if the Transmitter is enabled */
  if ((huart->Instance->CR1 & USART_CR1_TE) == USART_CR1_TE)
7000487e:	687b      	ldr	r3, [r7, #4]
70004880:	681b      	ldr	r3, [r3, #0]
70004882:	681b      	ldr	r3, [r3, #0]
70004884:	f003 0308 	and.w	r3, r3, #8
70004888:	2b08      	cmp	r3, #8
7000488a:	d12f      	bne.n	700048ec <UART_CheckIdleState+0x84>
  {
    /* Wait until TEACK flag is set */
    if (UART_WaitOnFlagUntilTimeout(huart, USART_ISR_TEACK, RESET, tickstart, HAL_UART_TIMEOUT_VALUE) != HAL_OK)
7000488c:	f06f 437e 	mvn.w	r3, #4261412864	@ 0xfe000000
70004890:	9300      	str	r3, [sp, #0]
70004892:	6d7b      	ldr	r3, [r7, #84]	@ 0x54
70004894:	2200      	movs	r2, #0
70004896:	f44f 1100 	mov.w	r1, #2097152	@ 0x200000
7000489a:	6878      	ldr	r0, [r7, #4]
7000489c:	f000 f88e 	bl	700049bc <UART_WaitOnFlagUntilTimeout>
700048a0:	4603      	mov	r3, r0
700048a2:	2b00      	cmp	r3, #0
700048a4:	d022      	beq.n	700048ec <UART_CheckIdleState+0x84>
    {
      /* Disable TXE interrupt for the interrupt process */
      ATOMIC_CLEAR_BIT(huart->Instance->CR1, (USART_CR1_TXEIE_TXFNFIE));
700048a6:	687b      	ldr	r3, [r7, #4]
700048a8:	681b      	ldr	r3, [r3, #0]
700048aa:	63bb      	str	r3, [r7, #56]	@ 0x38
   __ASM volatile ("ldrex %0, %1" : "=r" (result) : "Q" (*addr) );
700048ac:	6bbb      	ldr	r3, [r7, #56]	@ 0x38
700048ae:	e853 3f00 	ldrex	r3, [r3]
700048b2:	637b      	str	r3, [r7, #52]	@ 0x34
   return(result);
700048b4:	6b7b      	ldr	r3, [r7, #52]	@ 0x34
700048b6:	f023 0380 	bic.w	r3, r3, #128	@ 0x80
700048ba:	653b      	str	r3, [r7, #80]	@ 0x50
700048bc:	687b      	ldr	r3, [r7, #4]
700048be:	681b      	ldr	r3, [r3, #0]
700048c0:	461a      	mov	r2, r3
700048c2:	6d3b      	ldr	r3, [r7, #80]	@ 0x50
700048c4:	647b      	str	r3, [r7, #68]	@ 0x44
700048c6:	643a      	str	r2, [r7, #64]	@ 0x40
   __ASM volatile ("strex %0, %2, %1" : "=&r" (result), "=Q" (*addr) : "r" (value) );
700048c8:	6c39      	ldr	r1, [r7, #64]	@ 0x40
700048ca:	6c7a      	ldr	r2, [r7, #68]	@ 0x44
700048cc:	e841 2300 	strex	r3, r2, [r1]
700048d0:	63fb      	str	r3, [r7, #60]	@ 0x3c
   return(result);
700048d2:	6bfb      	ldr	r3, [r7, #60]	@ 0x3c
700048d4:	2b00      	cmp	r3, #0
700048d6:	d1e6      	bne.n	700048a6 <UART_CheckIdleState+0x3e>

      huart->gState = HAL_UART_STATE_READY;
700048d8:	687b      	ldr	r3, [r7, #4]
700048da:	2220      	movs	r2, #32
700048dc:	f8c3 2088 	str.w	r2, [r3, #136]	@ 0x88

      __HAL_UNLOCK(huart);
700048e0:	687b      	ldr	r3, [r7, #4]
700048e2:	2200      	movs	r2, #0
700048e4:	f883 2084 	strb.w	r2, [r3, #132]	@ 0x84

      /* Timeout occurred */
      return HAL_TIMEOUT;
700048e8:	2303      	movs	r3, #3
700048ea:	e063      	b.n	700049b4 <UART_CheckIdleState+0x14c>
    }
  }

  /* Check if the Receiver is enabled */
  if ((huart->Instance->CR1 & USART_CR1_RE) == USART_CR1_RE)
700048ec:	687b      	ldr	r3, [r7, #4]
700048ee:	681b      	ldr	r3, [r3, #0]
700048f0:	681b      	ldr	r3, [r3, #0]
700048f2:	f003 0304 	and.w	r3, r3, #4
700048f6:	2b04      	cmp	r3, #4
700048f8:	d149      	bne.n	7000498e <UART_CheckIdleState+0x126>
  {
    /* Wait until REACK flag is set */
    if (UART_WaitOnFlagUntilTimeout(huart, USART_ISR_REACK, RESET, tickstart, HAL_UART_TIMEOUT_VALUE) != HAL_OK)
700048fa:	f06f 437e 	mvn.w	r3, #4261412864	@ 0xfe000000
700048fe:	9300      	str	r3, [sp, #0]
70004900:	6d7b      	ldr	r3, [r7, #84]	@ 0x54
70004902:	2200      	movs	r2, #0
70004904:	f44f 0180 	mov.w	r1, #4194304	@ 0x400000
70004908:	6878      	ldr	r0, [r7, #4]
7000490a:	f000 f857 	bl	700049bc <UART_WaitOnFlagUntilTimeout>
7000490e:	4603      	mov	r3, r0
70004910:	2b00      	cmp	r3, #0
70004912:	d03c      	beq.n	7000498e <UART_CheckIdleState+0x126>
    {
      /* Disable RXNE, PE and ERR (Frame error, noise error, overrun error)
      interrupts for the interrupt process */
      ATOMIC_CLEAR_BIT(huart->Instance->CR1, (USART_CR1_RXNEIE_RXFNEIE | USART_CR1_PEIE));
70004914:	687b      	ldr	r3, [r7, #4]
70004916:	681b      	ldr	r3, [r3, #0]
70004918:	627b      	str	r3, [r7, #36]	@ 0x24
   __ASM volatile ("ldrex %0, %1" : "=r" (result) : "Q" (*addr) );
7000491a:	6a7b      	ldr	r3, [r7, #36]	@ 0x24
7000491c:	e853 3f00 	ldrex	r3, [r3]
70004920:	623b      	str	r3, [r7, #32]
   return(result);
70004922:	6a3b      	ldr	r3, [r7, #32]
70004924:	f423 7390 	bic.w	r3, r3, #288	@ 0x120
70004928:	64fb      	str	r3, [r7, #76]	@ 0x4c
7000492a:	687b      	ldr	r3, [r7, #4]
7000492c:	681b      	ldr	r3, [r3, #0]
7000492e:	461a      	mov	r2, r3
70004930:	6cfb      	ldr	r3, [r7, #76]	@ 0x4c
70004932:	633b      	str	r3, [r7, #48]	@ 0x30
70004934:	62fa      	str	r2, [r7, #44]	@ 0x2c
   __ASM volatile ("strex %0, %2, %1" : "=&r" (result), "=Q" (*addr) : "r" (value) );
70004936:	6af9      	ldr	r1, [r7, #44]	@ 0x2c
70004938:	6b3a      	ldr	r2, [r7, #48]	@ 0x30
7000493a:	e841 2300 	strex	r3, r2, [r1]
7000493e:	62bb      	str	r3, [r7, #40]	@ 0x28
   return(result);
70004940:	6abb      	ldr	r3, [r7, #40]	@ 0x28
70004942:	2b00      	cmp	r3, #0
70004944:	d1e6      	bne.n	70004914 <UART_CheckIdleState+0xac>
      ATOMIC_CLEAR_BIT(huart->Instance->CR3, USART_CR3_EIE);
70004946:	687b      	ldr	r3, [r7, #4]
70004948:	681b      	ldr	r3, [r3, #0]
7000494a:	3308      	adds	r3, #8
7000494c:	613b      	str	r3, [r7, #16]
   __ASM volatile ("ldrex %0, %1" : "=r" (result) : "Q" (*addr) );
7000494e:	693b      	ldr	r3, [r7, #16]
70004950:	e853 3f00 	ldrex	r3, [r3]
70004954:	60fb      	str	r3, [r7, #12]
   return(result);
70004956:	68fb      	ldr	r3, [r7, #12]
70004958:	f023 0301 	bic.w	r3, r3, #1
7000495c:	64bb      	str	r3, [r7, #72]	@ 0x48
7000495e:	687b      	ldr	r3, [r7, #4]
70004960:	681b      	ldr	r3, [r3, #0]
70004962:	3308      	adds	r3, #8
70004964:	6cba      	ldr	r2, [r7, #72]	@ 0x48
70004966:	61fa      	str	r2, [r7, #28]
70004968:	61bb      	str	r3, [r7, #24]
   __ASM volatile ("strex %0, %2, %1" : "=&r" (result), "=Q" (*addr) : "r" (value) );
7000496a:	69b9      	ldr	r1, [r7, #24]
7000496c:	69fa      	ldr	r2, [r7, #28]
7000496e:	e841 2300 	strex	r3, r2, [r1]
70004972:	617b      	str	r3, [r7, #20]
   return(result);
70004974:	697b      	ldr	r3, [r7, #20]
70004976:	2b00      	cmp	r3, #0
70004978:	d1e5      	bne.n	70004946 <UART_CheckIdleState+0xde>

      huart->RxState = HAL_UART_STATE_READY;
7000497a:	687b      	ldr	r3, [r7, #4]
7000497c:	2220      	movs	r2, #32
7000497e:	f8c3 208c 	str.w	r2, [r3, #140]	@ 0x8c

      __HAL_UNLOCK(huart);
70004982:	687b      	ldr	r3, [r7, #4]
70004984:	2200      	movs	r2, #0
70004986:	f883 2084 	strb.w	r2, [r3, #132]	@ 0x84

      /* Timeout occurred */
      return HAL_TIMEOUT;
7000498a:	2303      	movs	r3, #3
7000498c:	e012      	b.n	700049b4 <UART_CheckIdleState+0x14c>
    }
  }

  /* Initialize the UART State */
  huart->gState = HAL_UART_STATE_READY;
7000498e:	687b      	ldr	r3, [r7, #4]
70004990:	2220      	movs	r2, #32
70004992:	f8c3 2088 	str.w	r2, [r3, #136]	@ 0x88
  huart->RxState = HAL_UART_STATE_READY;
70004996:	687b      	ldr	r3, [r7, #4]
70004998:	2220      	movs	r2, #32
7000499a:	f8c3 208c 	str.w	r2, [r3, #140]	@ 0x8c
  huart->ReceptionType = HAL_UART_RECEPTION_STANDARD;
7000499e:	687b      	ldr	r3, [r7, #4]
700049a0:	2200      	movs	r2, #0
700049a2:	66da      	str	r2, [r3, #108]	@ 0x6c
  huart->RxEventType = HAL_UART_RXEVENT_TC;
700049a4:	687b      	ldr	r3, [r7, #4]
700049a6:	2200      	movs	r2, #0
700049a8:	671a      	str	r2, [r3, #112]	@ 0x70

  __HAL_UNLOCK(huart);
700049aa:	687b      	ldr	r3, [r7, #4]
700049ac:	2200      	movs	r2, #0
700049ae:	f883 2084 	strb.w	r2, [r3, #132]	@ 0x84

  return HAL_OK;
700049b2:	2300      	movs	r3, #0
}
700049b4:	4618      	mov	r0, r3
700049b6:	3758      	adds	r7, #88	@ 0x58
700049b8:	46bd      	mov	sp, r7
700049ba:	bd80      	pop	{r7, pc}

700049bc <UART_WaitOnFlagUntilTimeout>:
  * @param Timeout   Timeout duration
  * @retval HAL status
  */
HAL_StatusTypeDef UART_WaitOnFlagUntilTimeout(UART_HandleTypeDef *huart, uint32_t Flag, FlagStatus Status,
                                              uint32_t Tickstart, uint32_t Timeout)
{
700049bc:	b580      	push	{r7, lr}
700049be:	b084      	sub	sp, #16
700049c0:	af00      	add	r7, sp, #0
700049c2:	60f8      	str	r0, [r7, #12]
700049c4:	60b9      	str	r1, [r7, #8]
700049c6:	603b      	str	r3, [r7, #0]
700049c8:	4613      	mov	r3, r2
700049ca:	71fb      	strb	r3, [r7, #7]
  /* Wait until flag is set */
  while ((__HAL_UART_GET_FLAG(huart, Flag) ? SET : RESET) == Status)
700049cc:	e04f      	b.n	70004a6e <UART_WaitOnFlagUntilTimeout+0xb2>
  {
    /* Check for the Timeout */
    if (Timeout != HAL_MAX_DELAY)
700049ce:	69bb      	ldr	r3, [r7, #24]
700049d0:	f1b3 3fff 	cmp.w	r3, #4294967295
700049d4:	d04b      	beq.n	70004a6e <UART_WaitOnFlagUntilTimeout+0xb2>
    {
      if (((HAL_GetTick() - Tickstart) > Timeout) || (Timeout == 0U))
700049d6:	f7fc fbb7 	bl	70001148 <HAL_GetTick>
700049da:	4602      	mov	r2, r0
700049dc:	683b      	ldr	r3, [r7, #0]
700049de:	1ad3      	subs	r3, r2, r3
700049e0:	69ba      	ldr	r2, [r7, #24]
700049e2:	429a      	cmp	r2, r3
700049e4:	d302      	bcc.n	700049ec <UART_WaitOnFlagUntilTimeout+0x30>
700049e6:	69bb      	ldr	r3, [r7, #24]
700049e8:	2b00      	cmp	r3, #0
700049ea:	d101      	bne.n	700049f0 <UART_WaitOnFlagUntilTimeout+0x34>
      {

        return HAL_TIMEOUT;
700049ec:	2303      	movs	r3, #3
700049ee:	e04e      	b.n	70004a8e <UART_WaitOnFlagUntilTimeout+0xd2>
      }

      if ((READ_BIT(huart->Instance->CR1, USART_CR1_RE) != 0U) && (Flag != UART_FLAG_TXE) && (Flag != UART_FLAG_TC))
700049f0:	68fb      	ldr	r3, [r7, #12]
700049f2:	681b      	ldr	r3, [r3, #0]
700049f4:	681b      	ldr	r3, [r3, #0]
700049f6:	f003 0304 	and.w	r3, r3, #4
700049fa:	2b00      	cmp	r3, #0
700049fc:	d037      	beq.n	70004a6e <UART_WaitOnFlagUntilTimeout+0xb2>
700049fe:	68bb      	ldr	r3, [r7, #8]
70004a00:	2b80      	cmp	r3, #128	@ 0x80
70004a02:	d034      	beq.n	70004a6e <UART_WaitOnFlagUntilTimeout+0xb2>
70004a04:	68bb      	ldr	r3, [r7, #8]
70004a06:	2b40      	cmp	r3, #64	@ 0x40
70004a08:	d031      	beq.n	70004a6e <UART_WaitOnFlagUntilTimeout+0xb2>
      {
        if (__HAL_UART_GET_FLAG(huart, UART_FLAG_ORE) == SET)
70004a0a:	68fb      	ldr	r3, [r7, #12]
70004a0c:	681b      	ldr	r3, [r3, #0]
70004a0e:	69db      	ldr	r3, [r3, #28]
70004a10:	f003 0308 	and.w	r3, r3, #8
70004a14:	2b08      	cmp	r3, #8
70004a16:	d110      	bne.n	70004a3a <UART_WaitOnFlagUntilTimeout+0x7e>
        {
          /* Clear Overrun Error flag*/
          __HAL_UART_CLEAR_FLAG(huart, UART_CLEAR_OREF);
70004a18:	68fb      	ldr	r3, [r7, #12]
70004a1a:	681b      	ldr	r3, [r3, #0]
70004a1c:	2208      	movs	r2, #8
70004a1e:	621a      	str	r2, [r3, #32]

          /* Blocking error : transfer is aborted
          Set the UART state ready to be able to start again the process,
          Disable Rx Interrupts if ongoing */
          UART_EndRxTransfer(huart);
70004a20:	68f8      	ldr	r0, [r7, #12]
70004a22:	f000 f839 	bl	70004a98 <UART_EndRxTransfer>

          huart->ErrorCode = HAL_UART_ERROR_ORE;
70004a26:	68fb      	ldr	r3, [r7, #12]
70004a28:	2208      	movs	r2, #8
70004a2a:	f8c3 2090 	str.w	r2, [r3, #144]	@ 0x90

          /* Process Unlocked */
          __HAL_UNLOCK(huart);
70004a2e:	68fb      	ldr	r3, [r7, #12]
70004a30:	2200      	movs	r2, #0
70004a32:	f883 2084 	strb.w	r2, [r3, #132]	@ 0x84

          return HAL_ERROR;
70004a36:	2301      	movs	r3, #1
70004a38:	e029      	b.n	70004a8e <UART_WaitOnFlagUntilTimeout+0xd2>
        }
        if (__HAL_UART_GET_FLAG(huart, UART_FLAG_RTOF) == SET)
70004a3a:	68fb      	ldr	r3, [r7, #12]
70004a3c:	681b      	ldr	r3, [r3, #0]
70004a3e:	69db      	ldr	r3, [r3, #28]
70004a40:	f403 6300 	and.w	r3, r3, #2048	@ 0x800
70004a44:	f5b3 6f00 	cmp.w	r3, #2048	@ 0x800
70004a48:	d111      	bne.n	70004a6e <UART_WaitOnFlagUntilTimeout+0xb2>
        {
          /* Clear Receiver Timeout flag*/
          __HAL_UART_CLEAR_FLAG(huart, UART_CLEAR_RTOF);
70004a4a:	68fb      	ldr	r3, [r7, #12]
70004a4c:	681b      	ldr	r3, [r3, #0]
70004a4e:	f44f 6200 	mov.w	r2, #2048	@ 0x800
70004a52:	621a      	str	r2, [r3, #32]

          /* Blocking error : transfer is aborted
          Set the UART state ready to be able to start again the process,
          Disable Rx Interrupts if ongoing */
          UART_EndRxTransfer(huart);
70004a54:	68f8      	ldr	r0, [r7, #12]
70004a56:	f000 f81f 	bl	70004a98 <UART_EndRxTransfer>

          huart->ErrorCode = HAL_UART_ERROR_RTO;
70004a5a:	68fb      	ldr	r3, [r7, #12]
70004a5c:	2220      	movs	r2, #32
70004a5e:	f8c3 2090 	str.w	r2, [r3, #144]	@ 0x90

          /* Process Unlocked */
          __HAL_UNLOCK(huart);
70004a62:	68fb      	ldr	r3, [r7, #12]
70004a64:	2200      	movs	r2, #0
70004a66:	f883 2084 	strb.w	r2, [r3, #132]	@ 0x84

          return HAL_TIMEOUT;
70004a6a:	2303      	movs	r3, #3
70004a6c:	e00f      	b.n	70004a8e <UART_WaitOnFlagUntilTimeout+0xd2>
  while ((__HAL_UART_GET_FLAG(huart, Flag) ? SET : RESET) == Status)
70004a6e:	68fb      	ldr	r3, [r7, #12]
70004a70:	681b      	ldr	r3, [r3, #0]
70004a72:	69da      	ldr	r2, [r3, #28]
70004a74:	68bb      	ldr	r3, [r7, #8]
70004a76:	4013      	ands	r3, r2
70004a78:	68ba      	ldr	r2, [r7, #8]
70004a7a:	429a      	cmp	r2, r3
70004a7c:	bf0c      	ite	eq
70004a7e:	2301      	moveq	r3, #1
70004a80:	2300      	movne	r3, #0
70004a82:	b2db      	uxtb	r3, r3
70004a84:	461a      	mov	r2, r3
70004a86:	79fb      	ldrb	r3, [r7, #7]
70004a88:	429a      	cmp	r2, r3
70004a8a:	d0a0      	beq.n	700049ce <UART_WaitOnFlagUntilTimeout+0x12>
        }
      }
    }
  }
  return HAL_OK;
70004a8c:	2300      	movs	r3, #0
}
70004a8e:	4618      	mov	r0, r3
70004a90:	3710      	adds	r7, #16
70004a92:	46bd      	mov	sp, r7
70004a94:	bd80      	pop	{r7, pc}
	...

70004a98 <UART_EndRxTransfer>:
  * @brief  End ongoing Rx transfer on UART peripheral (following error detection or Reception completion).
  * @param  huart UART handle.
  * @retval None
  */
static void UART_EndRxTransfer(UART_HandleTypeDef *huart)
{
70004a98:	b480      	push	{r7}
70004a9a:	b095      	sub	sp, #84	@ 0x54
70004a9c:	af00      	add	r7, sp, #0
70004a9e:	6078      	str	r0, [r7, #4]
  /* Disable RXNE, PE and ERR (Frame error, noise error, overrun error) interrupts */
  ATOMIC_CLEAR_BIT(huart->Instance->CR1, (USART_CR1_RXNEIE_RXFNEIE | USART_CR1_PEIE));
70004aa0:	687b      	ldr	r3, [r7, #4]
70004aa2:	681b      	ldr	r3, [r3, #0]
70004aa4:	637b      	str	r3, [r7, #52]	@ 0x34
   __ASM volatile ("ldrex %0, %1" : "=r" (result) : "Q" (*addr) );
70004aa6:	6b7b      	ldr	r3, [r7, #52]	@ 0x34
70004aa8:	e853 3f00 	ldrex	r3, [r3]
70004aac:	633b      	str	r3, [r7, #48]	@ 0x30
   return(result);
70004aae:	6b3b      	ldr	r3, [r7, #48]	@ 0x30
70004ab0:	f423 7390 	bic.w	r3, r3, #288	@ 0x120
70004ab4:	64fb      	str	r3, [r7, #76]	@ 0x4c
70004ab6:	687b      	ldr	r3, [r7, #4]
70004ab8:	681b      	ldr	r3, [r3, #0]
70004aba:	461a      	mov	r2, r3
70004abc:	6cfb      	ldr	r3, [r7, #76]	@ 0x4c
70004abe:	643b      	str	r3, [r7, #64]	@ 0x40
70004ac0:	63fa      	str	r2, [r7, #60]	@ 0x3c
   __ASM volatile ("strex %0, %2, %1" : "=&r" (result), "=Q" (*addr) : "r" (value) );
70004ac2:	6bf9      	ldr	r1, [r7, #60]	@ 0x3c
70004ac4:	6c3a      	ldr	r2, [r7, #64]	@ 0x40
70004ac6:	e841 2300 	strex	r3, r2, [r1]
70004aca:	63bb      	str	r3, [r7, #56]	@ 0x38
   return(result);
70004acc:	6bbb      	ldr	r3, [r7, #56]	@ 0x38
70004ace:	2b00      	cmp	r3, #0
70004ad0:	d1e6      	bne.n	70004aa0 <UART_EndRxTransfer+0x8>
  ATOMIC_CLEAR_BIT(huart->Instance->CR3, (USART_CR3_EIE | USART_CR3_RXFTIE));
70004ad2:	687b      	ldr	r3, [r7, #4]
70004ad4:	681b      	ldr	r3, [r3, #0]
70004ad6:	3308      	adds	r3, #8
70004ad8:	623b      	str	r3, [r7, #32]
   __ASM volatile ("ldrex %0, %1" : "=r" (result) : "Q" (*addr) );
70004ada:	6a3b      	ldr	r3, [r7, #32]
70004adc:	e853 3f00 	ldrex	r3, [r3]
70004ae0:	61fb      	str	r3, [r7, #28]
   return(result);
70004ae2:	69fa      	ldr	r2, [r7, #28]
70004ae4:	4b1e      	ldr	r3, [pc, #120]	@ (70004b60 <UART_EndRxTransfer+0xc8>)
70004ae6:	4013      	ands	r3, r2
70004ae8:	64bb      	str	r3, [r7, #72]	@ 0x48
70004aea:	687b      	ldr	r3, [r7, #4]
70004aec:	681b      	ldr	r3, [r3, #0]
70004aee:	3308      	adds	r3, #8
70004af0:	6cba      	ldr	r2, [r7, #72]	@ 0x48
70004af2:	62fa      	str	r2, [r7, #44]	@ 0x2c
70004af4:	62bb      	str	r3, [r7, #40]	@ 0x28
   __ASM volatile ("strex %0, %2, %1" : "=&r" (result), "=Q" (*addr) : "r" (value) );
70004af6:	6ab9      	ldr	r1, [r7, #40]	@ 0x28
70004af8:	6afa      	ldr	r2, [r7, #44]	@ 0x2c
70004afa:	e841 2300 	strex	r3, r2, [r1]
70004afe:	627b      	str	r3, [r7, #36]	@ 0x24
   return(result);
70004b00:	6a7b      	ldr	r3, [r7, #36]	@ 0x24
70004b02:	2b00      	cmp	r3, #0
70004b04:	d1e5      	bne.n	70004ad2 <UART_EndRxTransfer+0x3a>

  /* In case of reception waiting for IDLE event, disable also the IDLE IE interrupt source */
  if (huart->ReceptionType == HAL_UART_RECEPTION_TOIDLE)
70004b06:	687b      	ldr	r3, [r7, #4]
70004b08:	6edb      	ldr	r3, [r3, #108]	@ 0x6c
70004b0a:	2b01      	cmp	r3, #1
70004b0c:	d118      	bne.n	70004b40 <UART_EndRxTransfer+0xa8>
  {
    ATOMIC_CLEAR_BIT(huart->Instance->CR1, USART_CR1_IDLEIE);
70004b0e:	687b      	ldr	r3, [r7, #4]
70004b10:	681b      	ldr	r3, [r3, #0]
70004b12:	60fb      	str	r3, [r7, #12]
   __ASM volatile ("ldrex %0, %1" : "=r" (result) : "Q" (*addr) );
70004b14:	68fb      	ldr	r3, [r7, #12]
70004b16:	e853 3f00 	ldrex	r3, [r3]
70004b1a:	60bb      	str	r3, [r7, #8]
   return(result);
70004b1c:	68bb      	ldr	r3, [r7, #8]
70004b1e:	f023 0310 	bic.w	r3, r3, #16
70004b22:	647b      	str	r3, [r7, #68]	@ 0x44
70004b24:	687b      	ldr	r3, [r7, #4]
70004b26:	681b      	ldr	r3, [r3, #0]
70004b28:	461a      	mov	r2, r3
70004b2a:	6c7b      	ldr	r3, [r7, #68]	@ 0x44
70004b2c:	61bb      	str	r3, [r7, #24]
70004b2e:	617a      	str	r2, [r7, #20]
   __ASM volatile ("strex %0, %2, %1" : "=&r" (result), "=Q" (*addr) : "r" (value) );
70004b30:	6979      	ldr	r1, [r7, #20]
70004b32:	69ba      	ldr	r2, [r7, #24]
70004b34:	e841 2300 	strex	r3, r2, [r1]
70004b38:	613b      	str	r3, [r7, #16]
   return(result);
70004b3a:	693b      	ldr	r3, [r7, #16]
70004b3c:	2b00      	cmp	r3, #0
70004b3e:	d1e6      	bne.n	70004b0e <UART_EndRxTransfer+0x76>
  }

  /* At end of Rx process, restore huart->RxState to Ready */
  huart->RxState = HAL_UART_STATE_READY;
70004b40:	687b      	ldr	r3, [r7, #4]
70004b42:	2220      	movs	r2, #32
70004b44:	f8c3 208c 	str.w	r2, [r3, #140]	@ 0x8c
  huart->ReceptionType = HAL_UART_RECEPTION_STANDARD;
70004b48:	687b      	ldr	r3, [r7, #4]
70004b4a:	2200      	movs	r2, #0
70004b4c:	66da      	str	r2, [r3, #108]	@ 0x6c

  /* Reset RxIsr function pointer */
  huart->RxISR = NULL;
70004b4e:	687b      	ldr	r3, [r7, #4]
70004b50:	2200      	movs	r2, #0
70004b52:	675a      	str	r2, [r3, #116]	@ 0x74
}
70004b54:	bf00      	nop
70004b56:	3754      	adds	r7, #84	@ 0x54
70004b58:	46bd      	mov	sp, r7
70004b5a:	f85d 7b04 	ldr.w	r7, [sp], #4
70004b5e:	4770      	bx	lr
70004b60:	effffffe 	.word	0xeffffffe

70004b64 <HAL_UARTEx_DisableFifoMode>:
  * @brief  Disable the FIFO mode.
  * @param huart      UART handle.
  * @retval HAL status
  */
HAL_StatusTypeDef HAL_UARTEx_DisableFifoMode(UART_HandleTypeDef *huart)
{
70004b64:	b580      	push	{r7, lr}
70004b66:	b084      	sub	sp, #16
70004b68:	af00      	add	r7, sp, #0
70004b6a:	6078      	str	r0, [r7, #4]
  uint32_t tmpcr1;

  /* Check parameters */
  assert_param(IS_UART_FIFO_INSTANCE(huart->Instance));
70004b6c:	687b      	ldr	r3, [r7, #4]
70004b6e:	681b      	ldr	r3, [r3, #0]
70004b70:	4a2e      	ldr	r2, [pc, #184]	@ (70004c2c <HAL_UARTEx_DisableFifoMode+0xc8>)
70004b72:	4293      	cmp	r3, r2
70004b74:	d027      	beq.n	70004bc6 <HAL_UARTEx_DisableFifoMode+0x62>
70004b76:	687b      	ldr	r3, [r7, #4]
70004b78:	681b      	ldr	r3, [r3, #0]
70004b7a:	4a2d      	ldr	r2, [pc, #180]	@ (70004c30 <HAL_UARTEx_DisableFifoMode+0xcc>)
70004b7c:	4293      	cmp	r3, r2
70004b7e:	d022      	beq.n	70004bc6 <HAL_UARTEx_DisableFifoMode+0x62>
70004b80:	687b      	ldr	r3, [r7, #4]
70004b82:	681b      	ldr	r3, [r3, #0]
70004b84:	4a2b      	ldr	r2, [pc, #172]	@ (70004c34 <HAL_UARTEx_DisableFifoMode+0xd0>)
70004b86:	4293      	cmp	r3, r2
70004b88:	d01d      	beq.n	70004bc6 <HAL_UARTEx_DisableFifoMode+0x62>
70004b8a:	687b      	ldr	r3, [r7, #4]
70004b8c:	681b      	ldr	r3, [r3, #0]
70004b8e:	4a2a      	ldr	r2, [pc, #168]	@ (70004c38 <HAL_UARTEx_DisableFifoMode+0xd4>)
70004b90:	4293      	cmp	r3, r2
70004b92:	d018      	beq.n	70004bc6 <HAL_UARTEx_DisableFifoMode+0x62>
70004b94:	687b      	ldr	r3, [r7, #4]
70004b96:	681b      	ldr	r3, [r3, #0]
70004b98:	4a28      	ldr	r2, [pc, #160]	@ (70004c3c <HAL_UARTEx_DisableFifoMode+0xd8>)
70004b9a:	4293      	cmp	r3, r2
70004b9c:	d013      	beq.n	70004bc6 <HAL_UARTEx_DisableFifoMode+0x62>
70004b9e:	687b      	ldr	r3, [r7, #4]
70004ba0:	681b      	ldr	r3, [r3, #0]
70004ba2:	4a27      	ldr	r2, [pc, #156]	@ (70004c40 <HAL_UARTEx_DisableFifoMode+0xdc>)
70004ba4:	4293      	cmp	r3, r2
70004ba6:	d00e      	beq.n	70004bc6 <HAL_UARTEx_DisableFifoMode+0x62>
70004ba8:	687b      	ldr	r3, [r7, #4]
70004baa:	681b      	ldr	r3, [r3, #0]
70004bac:	4a25      	ldr	r2, [pc, #148]	@ (70004c44 <HAL_UARTEx_DisableFifoMode+0xe0>)
70004bae:	4293      	cmp	r3, r2
70004bb0:	d009      	beq.n	70004bc6 <HAL_UARTEx_DisableFifoMode+0x62>
70004bb2:	687b      	ldr	r3, [r7, #4]
70004bb4:	681b      	ldr	r3, [r3, #0]
70004bb6:	4a24      	ldr	r2, [pc, #144]	@ (70004c48 <HAL_UARTEx_DisableFifoMode+0xe4>)
70004bb8:	4293      	cmp	r3, r2
70004bba:	d004      	beq.n	70004bc6 <HAL_UARTEx_DisableFifoMode+0x62>
70004bbc:	f240 2136 	movw	r1, #566	@ 0x236
70004bc0:	4822      	ldr	r0, [pc, #136]	@ (70004c4c <HAL_UARTEx_DisableFifoMode+0xe8>)
70004bc2:	f7fc f81b 	bl	70000bfc <assert_failed>

  /* Process Locked */
  __HAL_LOCK(huart);
70004bc6:	687b      	ldr	r3, [r7, #4]
70004bc8:	f893 3084 	ldrb.w	r3, [r3, #132]	@ 0x84
70004bcc:	2b01      	cmp	r3, #1
70004bce:	d101      	bne.n	70004bd4 <HAL_UARTEx_DisableFifoMode+0x70>
70004bd0:	2302      	movs	r3, #2
70004bd2:	e027      	b.n	70004c24 <HAL_UARTEx_DisableFifoMode+0xc0>
70004bd4:	687b      	ldr	r3, [r7, #4]
70004bd6:	2201      	movs	r2, #1
70004bd8:	f883 2084 	strb.w	r2, [r3, #132]	@ 0x84

  huart->gState = HAL_UART_STATE_BUSY;
70004bdc:	687b      	ldr	r3, [r7, #4]
70004bde:	2224      	movs	r2, #36	@ 0x24
70004be0:	f8c3 2088 	str.w	r2, [r3, #136]	@ 0x88

  /* Save actual UART configuration */
  tmpcr1 = READ_REG(huart->Instance->CR1);
70004be4:	687b      	ldr	r3, [r7, #4]
70004be6:	681b      	ldr	r3, [r3, #0]
70004be8:	681b      	ldr	r3, [r3, #0]
70004bea:	60fb      	str	r3, [r7, #12]

  /* Disable UART */
  __HAL_UART_DISABLE(huart);
70004bec:	687b      	ldr	r3, [r7, #4]
70004bee:	681b      	ldr	r3, [r3, #0]
70004bf0:	681a      	ldr	r2, [r3, #0]
70004bf2:	687b      	ldr	r3, [r7, #4]
70004bf4:	681b      	ldr	r3, [r3, #0]
70004bf6:	f022 0201 	bic.w	r2, r2, #1
70004bfa:	601a      	str	r2, [r3, #0]

  /* Disable FIFO mode */
  CLEAR_BIT(tmpcr1, USART_CR1_FIFOEN);
70004bfc:	68fb      	ldr	r3, [r7, #12]
70004bfe:	f023 5300 	bic.w	r3, r3, #536870912	@ 0x20000000
70004c02:	60fb      	str	r3, [r7, #12]
  huart->FifoMode = UART_FIFOMODE_DISABLE;
70004c04:	687b      	ldr	r3, [r7, #4]
70004c06:	2200      	movs	r2, #0
70004c08:	665a      	str	r2, [r3, #100]	@ 0x64

  /* Restore UART configuration */
  WRITE_REG(huart->Instance->CR1, tmpcr1);
70004c0a:	687b      	ldr	r3, [r7, #4]
70004c0c:	681b      	ldr	r3, [r3, #0]
70004c0e:	68fa      	ldr	r2, [r7, #12]
70004c10:	601a      	str	r2, [r3, #0]

  huart->gState = HAL_UART_STATE_READY;
70004c12:	687b      	ldr	r3, [r7, #4]
70004c14:	2220      	movs	r2, #32
70004c16:	f8c3 2088 	str.w	r2, [r3, #136]	@ 0x88

  /* Process Unlocked */
  __HAL_UNLOCK(huart);
70004c1a:	687b      	ldr	r3, [r7, #4]
70004c1c:	2200      	movs	r2, #0
70004c1e:	f883 2084 	strb.w	r2, [r3, #132]	@ 0x84

  return HAL_OK;
70004c22:	2300      	movs	r3, #0
}
70004c24:	4618      	mov	r0, r3
70004c26:	3710      	adds	r7, #16
70004c28:	46bd      	mov	sp, r7
70004c2a:	bd80      	pop	{r7, pc}
70004c2c:	42001000 	.word	0x42001000
70004c30:	40004400 	.word	0x40004400
70004c34:	40004800 	.word	0x40004800
70004c38:	40004c00 	.word	0x40004c00
70004c3c:	40005000 	.word	0x40005000
70004c40:	40007800 	.word	0x40007800
70004c44:	40007c00 	.word	0x40007c00
70004c48:	58000c00 	.word	0x58000c00
70004c4c:	700069c4 	.word	0x700069c4

70004c50 <HAL_UARTEx_SetTxFifoThreshold>:
  *            @arg @ref UART_TXFIFO_THRESHOLD_7_8
  *            @arg @ref UART_TXFIFO_THRESHOLD_8_8
  * @retval HAL status
  */
HAL_StatusTypeDef HAL_UARTEx_SetTxFifoThreshold(UART_HandleTypeDef *huart, uint32_t Threshold)
{
70004c50:	b580      	push	{r7, lr}
70004c52:	b084      	sub	sp, #16
70004c54:	af00      	add	r7, sp, #0
70004c56:	6078      	str	r0, [r7, #4]
70004c58:	6039      	str	r1, [r7, #0]
  uint32_t tmpcr1;

  /* Check parameters */
  assert_param(IS_UART_FIFO_INSTANCE(huart->Instance));
70004c5a:	687b      	ldr	r3, [r7, #4]
70004c5c:	681b      	ldr	r3, [r3, #0]
70004c5e:	4a40      	ldr	r2, [pc, #256]	@ (70004d60 <HAL_UARTEx_SetTxFifoThreshold+0x110>)
70004c60:	4293      	cmp	r3, r2
70004c62:	d027      	beq.n	70004cb4 <HAL_UARTEx_SetTxFifoThreshold+0x64>
70004c64:	687b      	ldr	r3, [r7, #4]
70004c66:	681b      	ldr	r3, [r3, #0]
70004c68:	4a3e      	ldr	r2, [pc, #248]	@ (70004d64 <HAL_UARTEx_SetTxFifoThreshold+0x114>)
70004c6a:	4293      	cmp	r3, r2
70004c6c:	d022      	beq.n	70004cb4 <HAL_UARTEx_SetTxFifoThreshold+0x64>
70004c6e:	687b      	ldr	r3, [r7, #4]
70004c70:	681b      	ldr	r3, [r3, #0]
70004c72:	4a3d      	ldr	r2, [pc, #244]	@ (70004d68 <HAL_UARTEx_SetTxFifoThreshold+0x118>)
70004c74:	4293      	cmp	r3, r2
70004c76:	d01d      	beq.n	70004cb4 <HAL_UARTEx_SetTxFifoThreshold+0x64>
70004c78:	687b      	ldr	r3, [r7, #4]
70004c7a:	681b      	ldr	r3, [r3, #0]
70004c7c:	4a3b      	ldr	r2, [pc, #236]	@ (70004d6c <HAL_UARTEx_SetTxFifoThreshold+0x11c>)
70004c7e:	4293      	cmp	r3, r2
70004c80:	d018      	beq.n	70004cb4 <HAL_UARTEx_SetTxFifoThreshold+0x64>
70004c82:	687b      	ldr	r3, [r7, #4]
70004c84:	681b      	ldr	r3, [r3, #0]
70004c86:	4a3a      	ldr	r2, [pc, #232]	@ (70004d70 <HAL_UARTEx_SetTxFifoThreshold+0x120>)
70004c88:	4293      	cmp	r3, r2
70004c8a:	d013      	beq.n	70004cb4 <HAL_UARTEx_SetTxFifoThreshold+0x64>
70004c8c:	687b      	ldr	r3, [r7, #4]
70004c8e:	681b      	ldr	r3, [r3, #0]
70004c90:	4a38      	ldr	r2, [pc, #224]	@ (70004d74 <HAL_UARTEx_SetTxFifoThreshold+0x124>)
70004c92:	4293      	cmp	r3, r2
70004c94:	d00e      	beq.n	70004cb4 <HAL_UARTEx_SetTxFifoThreshold+0x64>
70004c96:	687b      	ldr	r3, [r7, #4]
70004c98:	681b      	ldr	r3, [r3, #0]
70004c9a:	4a37      	ldr	r2, [pc, #220]	@ (70004d78 <HAL_UARTEx_SetTxFifoThreshold+0x128>)
70004c9c:	4293      	cmp	r3, r2
70004c9e:	d009      	beq.n	70004cb4 <HAL_UARTEx_SetTxFifoThreshold+0x64>
70004ca0:	687b      	ldr	r3, [r7, #4]
70004ca2:	681b      	ldr	r3, [r3, #0]
70004ca4:	4a35      	ldr	r2, [pc, #212]	@ (70004d7c <HAL_UARTEx_SetTxFifoThreshold+0x12c>)
70004ca6:	4293      	cmp	r3, r2
70004ca8:	d004      	beq.n	70004cb4 <HAL_UARTEx_SetTxFifoThreshold+0x64>
70004caa:	f44f 7119 	mov.w	r1, #612	@ 0x264
70004cae:	4834      	ldr	r0, [pc, #208]	@ (70004d80 <HAL_UARTEx_SetTxFifoThreshold+0x130>)
70004cb0:	f7fb ffa4 	bl	70000bfc <assert_failed>
  assert_param(IS_UART_TXFIFO_THRESHOLD(Threshold));
70004cb4:	683b      	ldr	r3, [r7, #0]
70004cb6:	2b00      	cmp	r3, #0
70004cb8:	d018      	beq.n	70004cec <HAL_UARTEx_SetTxFifoThreshold+0x9c>
70004cba:	683b      	ldr	r3, [r7, #0]
70004cbc:	f1b3 5f00 	cmp.w	r3, #536870912	@ 0x20000000
70004cc0:	d014      	beq.n	70004cec <HAL_UARTEx_SetTxFifoThreshold+0x9c>
70004cc2:	683b      	ldr	r3, [r7, #0]
70004cc4:	f1b3 4f80 	cmp.w	r3, #1073741824	@ 0x40000000
70004cc8:	d010      	beq.n	70004cec <HAL_UARTEx_SetTxFifoThreshold+0x9c>
70004cca:	683b      	ldr	r3, [r7, #0]
70004ccc:	f1b3 4fc0 	cmp.w	r3, #1610612736	@ 0x60000000
70004cd0:	d00c      	beq.n	70004cec <HAL_UARTEx_SetTxFifoThreshold+0x9c>
70004cd2:	683b      	ldr	r3, [r7, #0]
70004cd4:	f1b3 4f00 	cmp.w	r3, #2147483648	@ 0x80000000
70004cd8:	d008      	beq.n	70004cec <HAL_UARTEx_SetTxFifoThreshold+0x9c>
70004cda:	683b      	ldr	r3, [r7, #0]
70004cdc:	f1b3 4f20 	cmp.w	r3, #2684354560	@ 0xa0000000
70004ce0:	d004      	beq.n	70004cec <HAL_UARTEx_SetTxFifoThreshold+0x9c>
70004ce2:	f240 2165 	movw	r1, #613	@ 0x265
70004ce6:	4826      	ldr	r0, [pc, #152]	@ (70004d80 <HAL_UARTEx_SetTxFifoThreshold+0x130>)
70004ce8:	f7fb ff88 	bl	70000bfc <assert_failed>

  /* Process Locked */
  __HAL_LOCK(huart);
70004cec:	687b      	ldr	r3, [r7, #4]
70004cee:	f893 3084 	ldrb.w	r3, [r3, #132]	@ 0x84
70004cf2:	2b01      	cmp	r3, #1
70004cf4:	d101      	bne.n	70004cfa <HAL_UARTEx_SetTxFifoThreshold+0xaa>
70004cf6:	2302      	movs	r3, #2
70004cf8:	e02d      	b.n	70004d56 <HAL_UARTEx_SetTxFifoThreshold+0x106>
70004cfa:	687b      	ldr	r3, [r7, #4]
70004cfc:	2201      	movs	r2, #1
70004cfe:	f883 2084 	strb.w	r2, [r3, #132]	@ 0x84

  huart->gState = HAL_UART_STATE_BUSY;
70004d02:	687b      	ldr	r3, [r7, #4]
70004d04:	2224      	movs	r2, #36	@ 0x24
70004d06:	f8c3 2088 	str.w	r2, [r3, #136]	@ 0x88

  /* Save actual UART configuration */
  tmpcr1 = READ_REG(huart->Instance->CR1);
70004d0a:	687b      	ldr	r3, [r7, #4]
70004d0c:	681b      	ldr	r3, [r3, #0]
70004d0e:	681b      	ldr	r3, [r3, #0]
70004d10:	60fb      	str	r3, [r7, #12]

  /* Disable UART */
  __HAL_UART_DISABLE(huart);
70004d12:	687b      	ldr	r3, [r7, #4]
70004d14:	681b      	ldr	r3, [r3, #0]
70004d16:	681a      	ldr	r2, [r3, #0]
70004d18:	687b      	ldr	r3, [r7, #4]
70004d1a:	681b      	ldr	r3, [r3, #0]
70004d1c:	f022 0201 	bic.w	r2, r2, #1
70004d20:	601a      	str	r2, [r3, #0]

  /* Update TX threshold configuration */
  MODIFY_REG(huart->Instance->CR3, USART_CR3_TXFTCFG, Threshold);
70004d22:	687b      	ldr	r3, [r7, #4]
70004d24:	681b      	ldr	r3, [r3, #0]
70004d26:	689b      	ldr	r3, [r3, #8]
70004d28:	f023 4160 	bic.w	r1, r3, #3758096384	@ 0xe0000000
70004d2c:	687b      	ldr	r3, [r7, #4]
70004d2e:	681b      	ldr	r3, [r3, #0]
70004d30:	683a      	ldr	r2, [r7, #0]
70004d32:	430a      	orrs	r2, r1
70004d34:	609a      	str	r2, [r3, #8]

  /* Determine the number of data to process during RX/TX ISR execution */
  UARTEx_SetNbDataToProcess(huart);
70004d36:	6878      	ldr	r0, [r7, #4]
70004d38:	f000 f8be 	bl	70004eb8 <UARTEx_SetNbDataToProcess>

  /* Restore UART configuration */
  WRITE_REG(huart->Instance->CR1, tmpcr1);
70004d3c:	687b      	ldr	r3, [r7, #4]
70004d3e:	681b      	ldr	r3, [r3, #0]
70004d40:	68fa      	ldr	r2, [r7, #12]
70004d42:	601a      	str	r2, [r3, #0]

  huart->gState = HAL_UART_STATE_READY;
70004d44:	687b      	ldr	r3, [r7, #4]
70004d46:	2220      	movs	r2, #32
70004d48:	f8c3 2088 	str.w	r2, [r3, #136]	@ 0x88

  /* Process Unlocked */
  __HAL_UNLOCK(huart);
70004d4c:	687b      	ldr	r3, [r7, #4]
70004d4e:	2200      	movs	r2, #0
70004d50:	f883 2084 	strb.w	r2, [r3, #132]	@ 0x84

  return HAL_OK;
70004d54:	2300      	movs	r3, #0
}
70004d56:	4618      	mov	r0, r3
70004d58:	3710      	adds	r7, #16
70004d5a:	46bd      	mov	sp, r7
70004d5c:	bd80      	pop	{r7, pc}
70004d5e:	bf00      	nop
70004d60:	42001000 	.word	0x42001000
70004d64:	40004400 	.word	0x40004400
70004d68:	40004800 	.word	0x40004800
70004d6c:	40004c00 	.word	0x40004c00
70004d70:	40005000 	.word	0x40005000
70004d74:	40007800 	.word	0x40007800
70004d78:	40007c00 	.word	0x40007c00
70004d7c:	58000c00 	.word	0x58000c00
70004d80:	700069c4 	.word	0x700069c4

70004d84 <HAL_UARTEx_SetRxFifoThreshold>:
  *            @arg @ref UART_RXFIFO_THRESHOLD_7_8
  *            @arg @ref UART_RXFIFO_THRESHOLD_8_8
  * @retval HAL status
  */
HAL_StatusTypeDef HAL_UARTEx_SetRxFifoThreshold(UART_HandleTypeDef *huart, uint32_t Threshold)
{
70004d84:	b580      	push	{r7, lr}
70004d86:	b084      	sub	sp, #16
70004d88:	af00      	add	r7, sp, #0
70004d8a:	6078      	str	r0, [r7, #4]
70004d8c:	6039      	str	r1, [r7, #0]
  uint32_t tmpcr1;

  /* Check the parameters */
  assert_param(IS_UART_FIFO_INSTANCE(huart->Instance));
70004d8e:	687b      	ldr	r3, [r7, #4]
70004d90:	681b      	ldr	r3, [r3, #0]
70004d92:	4a40      	ldr	r2, [pc, #256]	@ (70004e94 <HAL_UARTEx_SetRxFifoThreshold+0x110>)
70004d94:	4293      	cmp	r3, r2
70004d96:	d027      	beq.n	70004de8 <HAL_UARTEx_SetRxFifoThreshold+0x64>
70004d98:	687b      	ldr	r3, [r7, #4]
70004d9a:	681b      	ldr	r3, [r3, #0]
70004d9c:	4a3e      	ldr	r2, [pc, #248]	@ (70004e98 <HAL_UARTEx_SetRxFifoThreshold+0x114>)
70004d9e:	4293      	cmp	r3, r2
70004da0:	d022      	beq.n	70004de8 <HAL_UARTEx_SetRxFifoThreshold+0x64>
70004da2:	687b      	ldr	r3, [r7, #4]
70004da4:	681b      	ldr	r3, [r3, #0]
70004da6:	4a3d      	ldr	r2, [pc, #244]	@ (70004e9c <HAL_UARTEx_SetRxFifoThreshold+0x118>)
70004da8:	4293      	cmp	r3, r2
70004daa:	d01d      	beq.n	70004de8 <HAL_UARTEx_SetRxFifoThreshold+0x64>
70004dac:	687b      	ldr	r3, [r7, #4]
70004dae:	681b      	ldr	r3, [r3, #0]
70004db0:	4a3b      	ldr	r2, [pc, #236]	@ (70004ea0 <HAL_UARTEx_SetRxFifoThreshold+0x11c>)
70004db2:	4293      	cmp	r3, r2
70004db4:	d018      	beq.n	70004de8 <HAL_UARTEx_SetRxFifoThreshold+0x64>
70004db6:	687b      	ldr	r3, [r7, #4]
70004db8:	681b      	ldr	r3, [r3, #0]
70004dba:	4a3a      	ldr	r2, [pc, #232]	@ (70004ea4 <HAL_UARTEx_SetRxFifoThreshold+0x120>)
70004dbc:	4293      	cmp	r3, r2
70004dbe:	d013      	beq.n	70004de8 <HAL_UARTEx_SetRxFifoThreshold+0x64>
70004dc0:	687b      	ldr	r3, [r7, #4]
70004dc2:	681b      	ldr	r3, [r3, #0]
70004dc4:	4a38      	ldr	r2, [pc, #224]	@ (70004ea8 <HAL_UARTEx_SetRxFifoThreshold+0x124>)
70004dc6:	4293      	cmp	r3, r2
70004dc8:	d00e      	beq.n	70004de8 <HAL_UARTEx_SetRxFifoThreshold+0x64>
70004dca:	687b      	ldr	r3, [r7, #4]
70004dcc:	681b      	ldr	r3, [r3, #0]
70004dce:	4a37      	ldr	r2, [pc, #220]	@ (70004eac <HAL_UARTEx_SetRxFifoThreshold+0x128>)
70004dd0:	4293      	cmp	r3, r2
70004dd2:	d009      	beq.n	70004de8 <HAL_UARTEx_SetRxFifoThreshold+0x64>
70004dd4:	687b      	ldr	r3, [r7, #4]
70004dd6:	681b      	ldr	r3, [r3, #0]
70004dd8:	4a35      	ldr	r2, [pc, #212]	@ (70004eb0 <HAL_UARTEx_SetRxFifoThreshold+0x12c>)
70004dda:	4293      	cmp	r3, r2
70004ddc:	d004      	beq.n	70004de8 <HAL_UARTEx_SetRxFifoThreshold+0x64>
70004dde:	f240 2195 	movw	r1, #661	@ 0x295
70004de2:	4834      	ldr	r0, [pc, #208]	@ (70004eb4 <HAL_UARTEx_SetRxFifoThreshold+0x130>)
70004de4:	f7fb ff0a 	bl	70000bfc <assert_failed>
  assert_param(IS_UART_RXFIFO_THRESHOLD(Threshold));
70004de8:	683b      	ldr	r3, [r7, #0]
70004dea:	2b00      	cmp	r3, #0
70004dec:	d018      	beq.n	70004e20 <HAL_UARTEx_SetRxFifoThreshold+0x9c>
70004dee:	683b      	ldr	r3, [r7, #0]
70004df0:	f1b3 7f00 	cmp.w	r3, #33554432	@ 0x2000000
70004df4:	d014      	beq.n	70004e20 <HAL_UARTEx_SetRxFifoThreshold+0x9c>
70004df6:	683b      	ldr	r3, [r7, #0]
70004df8:	f1b3 6f80 	cmp.w	r3, #67108864	@ 0x4000000
70004dfc:	d010      	beq.n	70004e20 <HAL_UARTEx_SetRxFifoThreshold+0x9c>
70004dfe:	683b      	ldr	r3, [r7, #0]
70004e00:	f1b3 6fc0 	cmp.w	r3, #100663296	@ 0x6000000
70004e04:	d00c      	beq.n	70004e20 <HAL_UARTEx_SetRxFifoThreshold+0x9c>
70004e06:	683b      	ldr	r3, [r7, #0]
70004e08:	f1b3 6f00 	cmp.w	r3, #134217728	@ 0x8000000
70004e0c:	d008      	beq.n	70004e20 <HAL_UARTEx_SetRxFifoThreshold+0x9c>
70004e0e:	683b      	ldr	r3, [r7, #0]
70004e10:	f1b3 6f20 	cmp.w	r3, #167772160	@ 0xa000000
70004e14:	d004      	beq.n	70004e20 <HAL_UARTEx_SetRxFifoThreshold+0x9c>
70004e16:	f240 2196 	movw	r1, #662	@ 0x296
70004e1a:	4826      	ldr	r0, [pc, #152]	@ (70004eb4 <HAL_UARTEx_SetRxFifoThreshold+0x130>)
70004e1c:	f7fb feee 	bl	70000bfc <assert_failed>

  /* Process Locked */
  __HAL_LOCK(huart);
70004e20:	687b      	ldr	r3, [r7, #4]
70004e22:	f893 3084 	ldrb.w	r3, [r3, #132]	@ 0x84
70004e26:	2b01      	cmp	r3, #1
70004e28:	d101      	bne.n	70004e2e <HAL_UARTEx_SetRxFifoThreshold+0xaa>
70004e2a:	2302      	movs	r3, #2
70004e2c:	e02d      	b.n	70004e8a <HAL_UARTEx_SetRxFifoThreshold+0x106>
70004e2e:	687b      	ldr	r3, [r7, #4]
70004e30:	2201      	movs	r2, #1
70004e32:	f883 2084 	strb.w	r2, [r3, #132]	@ 0x84

  huart->gState = HAL_UART_STATE_BUSY;
70004e36:	687b      	ldr	r3, [r7, #4]
70004e38:	2224      	movs	r2, #36	@ 0x24
70004e3a:	f8c3 2088 	str.w	r2, [r3, #136]	@ 0x88

  /* Save actual UART configuration */
  tmpcr1 = READ_REG(huart->Instance->CR1);
70004e3e:	687b      	ldr	r3, [r7, #4]
70004e40:	681b      	ldr	r3, [r3, #0]
70004e42:	681b      	ldr	r3, [r3, #0]
70004e44:	60fb      	str	r3, [r7, #12]

  /* Disable UART */
  __HAL_UART_DISABLE(huart);
70004e46:	687b      	ldr	r3, [r7, #4]
70004e48:	681b      	ldr	r3, [r3, #0]
70004e4a:	681a      	ldr	r2, [r3, #0]
70004e4c:	687b      	ldr	r3, [r7, #4]
70004e4e:	681b      	ldr	r3, [r3, #0]
70004e50:	f022 0201 	bic.w	r2, r2, #1
70004e54:	601a      	str	r2, [r3, #0]

  /* Update RX threshold configuration */
  MODIFY_REG(huart->Instance->CR3, USART_CR3_RXFTCFG, Threshold);
70004e56:	687b      	ldr	r3, [r7, #4]
70004e58:	681b      	ldr	r3, [r3, #0]
70004e5a:	689b      	ldr	r3, [r3, #8]
70004e5c:	f023 6160 	bic.w	r1, r3, #234881024	@ 0xe000000
70004e60:	687b      	ldr	r3, [r7, #4]
70004e62:	681b      	ldr	r3, [r3, #0]
70004e64:	683a      	ldr	r2, [r7, #0]
70004e66:	430a      	orrs	r2, r1
70004e68:	609a      	str	r2, [r3, #8]

  /* Determine the number of data to process during RX/TX ISR execution */
  UARTEx_SetNbDataToProcess(huart);
70004e6a:	6878      	ldr	r0, [r7, #4]
70004e6c:	f000 f824 	bl	70004eb8 <UARTEx_SetNbDataToProcess>

  /* Restore UART configuration */
  WRITE_REG(huart->Instance->CR1, tmpcr1);
70004e70:	687b      	ldr	r3, [r7, #4]
70004e72:	681b      	ldr	r3, [r3, #0]
70004e74:	68fa      	ldr	r2, [r7, #12]
70004e76:	601a      	str	r2, [r3, #0]

  huart->gState = HAL_UART_STATE_READY;
70004e78:	687b      	ldr	r3, [r7, #4]
70004e7a:	2220      	movs	r2, #32
70004e7c:	f8c3 2088 	str.w	r2, [r3, #136]	@ 0x88

  /* Process Unlocked */
  __HAL_UNLOCK(huart);
70004e80:	687b      	ldr	r3, [r7, #4]
70004e82:	2200      	movs	r2, #0
70004e84:	f883 2084 	strb.w	r2, [r3, #132]	@ 0x84

  return HAL_OK;
70004e88:	2300      	movs	r3, #0
}
70004e8a:	4618      	mov	r0, r3
70004e8c:	3710      	adds	r7, #16
70004e8e:	46bd      	mov	sp, r7
70004e90:	bd80      	pop	{r7, pc}
70004e92:	bf00      	nop
70004e94:	42001000 	.word	0x42001000
70004e98:	40004400 	.word	0x40004400
70004e9c:	40004800 	.word	0x40004800
70004ea0:	40004c00 	.word	0x40004c00
70004ea4:	40005000 	.word	0x40005000
70004ea8:	40007800 	.word	0x40007800
70004eac:	40007c00 	.word	0x40007c00
70004eb0:	58000c00 	.word	0x58000c00
70004eb4:	700069c4 	.word	0x700069c4

70004eb8 <UARTEx_SetNbDataToProcess>:
  *       the UART configuration registers.
  * @param huart UART handle.
  * @retval None
  */
static void UARTEx_SetNbDataToProcess(UART_HandleTypeDef *huart)
{
70004eb8:	b480      	push	{r7}
70004eba:	b085      	sub	sp, #20
70004ebc:	af00      	add	r7, sp, #0
70004ebe:	6078      	str	r0, [r7, #4]
  uint8_t rx_fifo_threshold;
  uint8_t tx_fifo_threshold;
  static const uint8_t numerator[] = {1U, 1U, 1U, 3U, 7U, 1U, 0U, 0U};
  static const uint8_t denominator[] = {8U, 4U, 2U, 4U, 8U, 1U, 1U, 1U};

  if (huart->FifoMode == UART_FIFOMODE_DISABLE)
70004ec0:	687b      	ldr	r3, [r7, #4]
70004ec2:	6e5b      	ldr	r3, [r3, #100]	@ 0x64
70004ec4:	2b00      	cmp	r3, #0
70004ec6:	d108      	bne.n	70004eda <UARTEx_SetNbDataToProcess+0x22>
  {
    huart->NbTxDataToProcess = 1U;
70004ec8:	687b      	ldr	r3, [r7, #4]
70004eca:	2201      	movs	r2, #1
70004ecc:	f8a3 206a 	strh.w	r2, [r3, #106]	@ 0x6a
    huart->NbRxDataToProcess = 1U;
70004ed0:	687b      	ldr	r3, [r7, #4]
70004ed2:	2201      	movs	r2, #1
70004ed4:	f8a3 2068 	strh.w	r2, [r3, #104]	@ 0x68
    huart->NbTxDataToProcess = ((uint16_t)tx_fifo_depth * numerator[tx_fifo_threshold]) /
                               (uint16_t)denominator[tx_fifo_threshold];
    huart->NbRxDataToProcess = ((uint16_t)rx_fifo_depth * numerator[rx_fifo_threshold]) /
                               (uint16_t)denominator[rx_fifo_threshold];
  }
}
70004ed8:	e031      	b.n	70004f3e <UARTEx_SetNbDataToProcess+0x86>
    rx_fifo_depth = RX_FIFO_DEPTH;
70004eda:	2310      	movs	r3, #16
70004edc:	73fb      	strb	r3, [r7, #15]
    tx_fifo_depth = TX_FIFO_DEPTH;
70004ede:	2310      	movs	r3, #16
70004ee0:	73bb      	strb	r3, [r7, #14]
    rx_fifo_threshold = (uint8_t)(READ_BIT(huart->Instance->CR3, USART_CR3_RXFTCFG) >> USART_CR3_RXFTCFG_Pos);
70004ee2:	687b      	ldr	r3, [r7, #4]
70004ee4:	681b      	ldr	r3, [r3, #0]
70004ee6:	689b      	ldr	r3, [r3, #8]
70004ee8:	0e5b      	lsrs	r3, r3, #25
70004eea:	b2db      	uxtb	r3, r3
70004eec:	f003 0307 	and.w	r3, r3, #7
70004ef0:	737b      	strb	r3, [r7, #13]
    tx_fifo_threshold = (uint8_t)(READ_BIT(huart->Instance->CR3, USART_CR3_TXFTCFG) >> USART_CR3_TXFTCFG_Pos);
70004ef2:	687b      	ldr	r3, [r7, #4]
70004ef4:	681b      	ldr	r3, [r3, #0]
70004ef6:	689b      	ldr	r3, [r3, #8]
70004ef8:	0f5b      	lsrs	r3, r3, #29
70004efa:	b2db      	uxtb	r3, r3
70004efc:	f003 0307 	and.w	r3, r3, #7
70004f00:	733b      	strb	r3, [r7, #12]
    huart->NbTxDataToProcess = ((uint16_t)tx_fifo_depth * numerator[tx_fifo_threshold]) /
70004f02:	7bbb      	ldrb	r3, [r7, #14]
70004f04:	7b3a      	ldrb	r2, [r7, #12]
70004f06:	4911      	ldr	r1, [pc, #68]	@ (70004f4c <UARTEx_SetNbDataToProcess+0x94>)
70004f08:	5c8a      	ldrb	r2, [r1, r2]
70004f0a:	fb02 f303 	mul.w	r3, r2, r3
                               (uint16_t)denominator[tx_fifo_threshold];
70004f0e:	7b3a      	ldrb	r2, [r7, #12]
70004f10:	490f      	ldr	r1, [pc, #60]	@ (70004f50 <UARTEx_SetNbDataToProcess+0x98>)
70004f12:	5c8a      	ldrb	r2, [r1, r2]
    huart->NbTxDataToProcess = ((uint16_t)tx_fifo_depth * numerator[tx_fifo_threshold]) /
70004f14:	fb93 f3f2 	sdiv	r3, r3, r2
70004f18:	b29a      	uxth	r2, r3
70004f1a:	687b      	ldr	r3, [r7, #4]
70004f1c:	f8a3 206a 	strh.w	r2, [r3, #106]	@ 0x6a
    huart->NbRxDataToProcess = ((uint16_t)rx_fifo_depth * numerator[rx_fifo_threshold]) /
70004f20:	7bfb      	ldrb	r3, [r7, #15]
70004f22:	7b7a      	ldrb	r2, [r7, #13]
70004f24:	4909      	ldr	r1, [pc, #36]	@ (70004f4c <UARTEx_SetNbDataToProcess+0x94>)
70004f26:	5c8a      	ldrb	r2, [r1, r2]
70004f28:	fb02 f303 	mul.w	r3, r2, r3
                               (uint16_t)denominator[rx_fifo_threshold];
70004f2c:	7b7a      	ldrb	r2, [r7, #13]
70004f2e:	4908      	ldr	r1, [pc, #32]	@ (70004f50 <UARTEx_SetNbDataToProcess+0x98>)
70004f30:	5c8a      	ldrb	r2, [r1, r2]
    huart->NbRxDataToProcess = ((uint16_t)rx_fifo_depth * numerator[rx_fifo_threshold]) /
70004f32:	fb93 f3f2 	sdiv	r3, r3, r2
70004f36:	b29a      	uxth	r2, r3
70004f38:	687b      	ldr	r3, [r7, #4]
70004f3a:	f8a3 2068 	strh.w	r2, [r3, #104]	@ 0x68
}
70004f3e:	bf00      	nop
70004f40:	3714      	adds	r7, #20
70004f42:	46bd      	mov	sp, r7
70004f44:	f85d 7b04 	ldr.w	r7, [sp], #4
70004f48:	4770      	bx	lr
70004f4a:	bf00      	nop
70004f4c:	70006a5c 	.word	0x70006a5c
70004f50:	70006a64 	.word	0x70006a64

70004f54 <_tx_byte_pool_create>:
/*  09-30-2020     Yuxin Zhou               Modified comment(s),          */
/*                                            resulting in version 6.1    */
/*                                                                        */
/**************************************************************************/
UINT  _tx_byte_pool_create(TX_BYTE_POOL *pool_ptr, CHAR *name_ptr, VOID *pool_start, ULONG pool_size)
{
70004f54:	b590      	push	{r4, r7, lr}
70004f56:	b08b      	sub	sp, #44	@ 0x2c
70004f58:	af00      	add	r7, sp, #0
70004f5a:	60f8      	str	r0, [r7, #12]
70004f5c:	60b9      	str	r1, [r7, #8]
70004f5e:	607a      	str	r2, [r7, #4]
70004f60:	603b      	str	r3, [r7, #0]
TX_BYTE_POOL        *previous_pool;
ALIGN_TYPE          *free_ptr;


    /* Initialize the byte pool control block to all zeros.  */
    TX_MEMSET(pool_ptr, 0, (sizeof(TX_BYTE_POOL)));
70004f62:	2234      	movs	r2, #52	@ 0x34
70004f64:	2100      	movs	r1, #0
70004f66:	68f8      	ldr	r0, [r7, #12]
70004f68:	f001 fbd6 	bl	70006718 <memset>

    /* Round the pool size down to something that is evenly divisible by
       an ULONG.  */
    pool_size =   (pool_size/(sizeof(ALIGN_TYPE))) * (sizeof(ALIGN_TYPE));
70004f6c:	683b      	ldr	r3, [r7, #0]
70004f6e:	f023 0303 	bic.w	r3, r3, #3
70004f72:	603b      	str	r3, [r7, #0]

    /* Setup the basic byte pool fields.  */
    pool_ptr -> tx_byte_pool_name =              name_ptr;
70004f74:	68fb      	ldr	r3, [r7, #12]
70004f76:	68ba      	ldr	r2, [r7, #8]
70004f78:	605a      	str	r2, [r3, #4]

    /* Save the start and size of the pool.  */
    pool_ptr -> tx_byte_pool_start =   TX_VOID_TO_UCHAR_POINTER_CONVERT(pool_start);
70004f7a:	68fb      	ldr	r3, [r7, #12]
70004f7c:	687a      	ldr	r2, [r7, #4]
70004f7e:	619a      	str	r2, [r3, #24]
    pool_ptr -> tx_byte_pool_size =    pool_size;
70004f80:	68fb      	ldr	r3, [r7, #12]
70004f82:	683a      	ldr	r2, [r7, #0]
70004f84:	61da      	str	r2, [r3, #28]

    /* Setup memory list to the beginning as well as the search pointer.  */
    pool_ptr -> tx_byte_pool_list =    TX_VOID_TO_UCHAR_POINTER_CONVERT(pool_start);
70004f86:	68fb      	ldr	r3, [r7, #12]
70004f88:	687a      	ldr	r2, [r7, #4]
70004f8a:	611a      	str	r2, [r3, #16]
    pool_ptr -> tx_byte_pool_search =  TX_VOID_TO_UCHAR_POINTER_CONVERT(pool_start);
70004f8c:	68fb      	ldr	r3, [r7, #12]
70004f8e:	687a      	ldr	r2, [r7, #4]
70004f90:	615a      	str	r2, [r3, #20]

    /* Initially, the pool will have two blocks.  One large block at the
       beginning that is available and a small allocated block at the end
       of the pool that is there just for the algorithm.  Be sure to count
       the available block's header in the available bytes count.  */
    pool_ptr -> tx_byte_pool_available =   pool_size - ((sizeof(VOID *)) + (sizeof(ALIGN_TYPE)));
70004f92:	683b      	ldr	r3, [r7, #0]
70004f94:	f1a3 0208 	sub.w	r2, r3, #8
70004f98:	68fb      	ldr	r3, [r7, #12]
70004f9a:	609a      	str	r2, [r3, #8]
    pool_ptr -> tx_byte_pool_fragments =   ((UINT) 2);
70004f9c:	68fb      	ldr	r3, [r7, #12]
70004f9e:	2202      	movs	r2, #2
70004fa0:	60da      	str	r2, [r3, #12]
    /* Each block contains a "next" pointer that points to the next block in the pool followed by a ALIGN_TYPE
       field that contains either the constant TX_BYTE_BLOCK_FREE (if the block is free) or a pointer to the
       owning pool (if the block is allocated).  */

    /* Calculate the end of the pool's memory area.  */
    block_ptr =  TX_VOID_TO_UCHAR_POINTER_CONVERT(pool_start);
70004fa2:	687b      	ldr	r3, [r7, #4]
70004fa4:	627b      	str	r3, [r7, #36]	@ 0x24
    block_ptr =  TX_UCHAR_POINTER_ADD(block_ptr, pool_size);
70004fa6:	6a7a      	ldr	r2, [r7, #36]	@ 0x24
70004fa8:	683b      	ldr	r3, [r7, #0]
70004faa:	4413      	add	r3, r2
70004fac:	627b      	str	r3, [r7, #36]	@ 0x24

    /* Backup the end of the pool pointer and build the pre-allocated block.  */
    block_ptr =  TX_UCHAR_POINTER_SUB(block_ptr, (sizeof(ALIGN_TYPE)));
70004fae:	6a7b      	ldr	r3, [r7, #36]	@ 0x24
70004fb0:	3b04      	subs	r3, #4
70004fb2:	627b      	str	r3, [r7, #36]	@ 0x24

    /* Cast the pool pointer into a ULONG.  */
    temp_ptr =             TX_BYTE_POOL_TO_UCHAR_POINTER_CONVERT(pool_ptr);
70004fb4:	68fb      	ldr	r3, [r7, #12]
70004fb6:	623b      	str	r3, [r7, #32]
    block_indirect_ptr =   TX_UCHAR_TO_INDIRECT_UCHAR_POINTER_CONVERT(block_ptr);
70004fb8:	6a7b      	ldr	r3, [r7, #36]	@ 0x24
70004fba:	61fb      	str	r3, [r7, #28]
    *block_indirect_ptr =  temp_ptr;
70004fbc:	69fb      	ldr	r3, [r7, #28]
70004fbe:	6a3a      	ldr	r2, [r7, #32]
70004fc0:	601a      	str	r2, [r3, #0]

    block_ptr =            TX_UCHAR_POINTER_SUB(block_ptr, (sizeof(UCHAR *)));
70004fc2:	6a7b      	ldr	r3, [r7, #36]	@ 0x24
70004fc4:	3b04      	subs	r3, #4
70004fc6:	627b      	str	r3, [r7, #36]	@ 0x24
    block_indirect_ptr =   TX_UCHAR_TO_INDIRECT_UCHAR_POINTER_CONVERT(block_ptr);
70004fc8:	6a7b      	ldr	r3, [r7, #36]	@ 0x24
70004fca:	61fb      	str	r3, [r7, #28]
    *block_indirect_ptr =  TX_VOID_TO_UCHAR_POINTER_CONVERT(pool_start);
70004fcc:	69fb      	ldr	r3, [r7, #28]
70004fce:	687a      	ldr	r2, [r7, #4]
70004fd0:	601a      	str	r2, [r3, #0]

    /* Now setup the large available block in the pool.  */
    temp_ptr =             TX_VOID_TO_UCHAR_POINTER_CONVERT(pool_start);
70004fd2:	687b      	ldr	r3, [r7, #4]
70004fd4:	623b      	str	r3, [r7, #32]
    block_indirect_ptr =   TX_UCHAR_TO_INDIRECT_UCHAR_POINTER_CONVERT(temp_ptr);
70004fd6:	6a3b      	ldr	r3, [r7, #32]
70004fd8:	61fb      	str	r3, [r7, #28]
    *block_indirect_ptr =  block_ptr;
70004fda:	69fb      	ldr	r3, [r7, #28]
70004fdc:	6a7a      	ldr	r2, [r7, #36]	@ 0x24
70004fde:	601a      	str	r2, [r3, #0]
    block_ptr =            TX_VOID_TO_UCHAR_POINTER_CONVERT(pool_start);
70004fe0:	687b      	ldr	r3, [r7, #4]
70004fe2:	627b      	str	r3, [r7, #36]	@ 0x24
    block_ptr =            TX_UCHAR_POINTER_ADD(block_ptr, (sizeof(UCHAR *)));
70004fe4:	6a7b      	ldr	r3, [r7, #36]	@ 0x24
70004fe6:	3304      	adds	r3, #4
70004fe8:	627b      	str	r3, [r7, #36]	@ 0x24
    free_ptr =             TX_UCHAR_TO_ALIGN_TYPE_POINTER_CONVERT(block_ptr);
70004fea:	6a7b      	ldr	r3, [r7, #36]	@ 0x24
70004fec:	61bb      	str	r3, [r7, #24]
    *free_ptr =            TX_BYTE_BLOCK_FREE;
70004fee:	69bb      	ldr	r3, [r7, #24]
70004ff0:	4a1b      	ldr	r2, [pc, #108]	@ (70005060 <_tx_byte_pool_create+0x10c>)
70004ff2:	601a      	str	r2, [r3, #0]

    /* Clear the owner id.  */
    pool_ptr -> tx_byte_pool_owner =  TX_NULL;
70004ff4:	68fb      	ldr	r3, [r7, #12]
70004ff6:	2200      	movs	r2, #0
70004ff8:	621a      	str	r2, [r3, #32]

    /* Disable interrupts to place the byte pool on the created list.  */
    TX_DISABLE
70004ffa:	f7fb f9b9 	bl	70000370 <_tx_thread_interrupt_disable>
70004ffe:	4604      	mov	r4, r0

    /* Setup the byte pool ID to make it valid.  */
    pool_ptr -> tx_byte_pool_id =  TX_BYTE_POOL_ID;
70005000:	68fb      	ldr	r3, [r7, #12]
70005002:	4a18      	ldr	r2, [pc, #96]	@ (70005064 <_tx_byte_pool_create+0x110>)
70005004:	601a      	str	r2, [r3, #0]

    /* Place the byte pool on the list of created byte pools.  First,
       check for an empty list.  */
    if (_tx_byte_pool_created_count == TX_EMPTY)
70005006:	4b18      	ldr	r3, [pc, #96]	@ (70005068 <_tx_byte_pool_create+0x114>)
70005008:	681b      	ldr	r3, [r3, #0]
7000500a:	2b00      	cmp	r3, #0
7000500c:	d109      	bne.n	70005022 <_tx_byte_pool_create+0xce>
    {

        /* The created byte pool list is empty.  Add byte pool to empty list.  */
        _tx_byte_pool_created_ptr =                  pool_ptr;
7000500e:	4a17      	ldr	r2, [pc, #92]	@ (7000506c <_tx_byte_pool_create+0x118>)
70005010:	68fb      	ldr	r3, [r7, #12]
70005012:	6013      	str	r3, [r2, #0]
        pool_ptr -> tx_byte_pool_created_next =      pool_ptr;
70005014:	68fb      	ldr	r3, [r7, #12]
70005016:	68fa      	ldr	r2, [r7, #12]
70005018:	62da      	str	r2, [r3, #44]	@ 0x2c
        pool_ptr -> tx_byte_pool_created_previous =  pool_ptr;
7000501a:	68fb      	ldr	r3, [r7, #12]
7000501c:	68fa      	ldr	r2, [r7, #12]
7000501e:	631a      	str	r2, [r3, #48]	@ 0x30
70005020:	e011      	b.n	70005046 <_tx_byte_pool_create+0xf2>
    }
    else
    {

        /* This list is not NULL, add to the end of the list.  */
        next_pool =      _tx_byte_pool_created_ptr;
70005022:	4b12      	ldr	r3, [pc, #72]	@ (7000506c <_tx_byte_pool_create+0x118>)
70005024:	681b      	ldr	r3, [r3, #0]
70005026:	617b      	str	r3, [r7, #20]
        previous_pool =  next_pool -> tx_byte_pool_created_previous;
70005028:	697b      	ldr	r3, [r7, #20]
7000502a:	6b1b      	ldr	r3, [r3, #48]	@ 0x30
7000502c:	613b      	str	r3, [r7, #16]

        /* Place the new byte pool in the list.  */
        next_pool -> tx_byte_pool_created_previous =  pool_ptr;
7000502e:	697b      	ldr	r3, [r7, #20]
70005030:	68fa      	ldr	r2, [r7, #12]
70005032:	631a      	str	r2, [r3, #48]	@ 0x30
        previous_pool -> tx_byte_pool_created_next =  pool_ptr;
70005034:	693b      	ldr	r3, [r7, #16]
70005036:	68fa      	ldr	r2, [r7, #12]
70005038:	62da      	str	r2, [r3, #44]	@ 0x2c

        /* Setup this byte pool's created links.  */
        pool_ptr -> tx_byte_pool_created_previous =  previous_pool;
7000503a:	68fb      	ldr	r3, [r7, #12]
7000503c:	693a      	ldr	r2, [r7, #16]
7000503e:	631a      	str	r2, [r3, #48]	@ 0x30
        pool_ptr -> tx_byte_pool_created_next =      next_pool;
70005040:	68fb      	ldr	r3, [r7, #12]
70005042:	697a      	ldr	r2, [r7, #20]
70005044:	62da      	str	r2, [r3, #44]	@ 0x2c
    }

    /* Increment the number of created byte pools.  */
    _tx_byte_pool_created_count++;
70005046:	4b08      	ldr	r3, [pc, #32]	@ (70005068 <_tx_byte_pool_create+0x114>)
70005048:	681b      	ldr	r3, [r3, #0]
7000504a:	3301      	adds	r3, #1
7000504c:	4a06      	ldr	r2, [pc, #24]	@ (70005068 <_tx_byte_pool_create+0x114>)
7000504e:	6013      	str	r3, [r2, #0]

    /* Log this kernel call.  */
    TX_EL_BYTE_POOL_CREATE_INSERT

    /* Restore interrupts.  */
    TX_RESTORE
70005050:	4620      	mov	r0, r4
70005052:	f7fb f995 	bl	70000380 <_tx_thread_interrupt_restore>

    /* Return TX_SUCCESS.  */
    return(TX_SUCCESS);
70005056:	2300      	movs	r3, #0
}
70005058:	4618      	mov	r0, r3
7000505a:	372c      	adds	r7, #44	@ 0x2c
7000505c:	46bd      	mov	sp, r7
7000505e:	bd90      	pop	{r4, r7, pc}
70005060:	ffffeeee 	.word	0xffffeeee
70005064:	42595445 	.word	0x42595445
70005068:	240083d4 	.word	0x240083d4
7000506c:	240083d0 	.word	0x240083d0

70005070 <_tx_initialize_high_level>:
/*  09-30-2020     Yuxin Zhou               Modified comment(s),          */
/*                                            resulting in version 6.1    */
/*                                                                        */
/**************************************************************************/
VOID    _tx_initialize_high_level(VOID)
{
70005070:	b580      	push	{r7, lr}
70005072:	af00      	add	r7, sp, #0

    /* Initialize the event log, if enabled.  */
    TX_EL_INITIALIZE

    /* Call the thread control initialization function.  */
    _tx_thread_initialize();
70005074:	f000 f968 	bl	70005348 <_tx_thread_initialize>

#ifndef TX_NO_TIMER

    /* Call the timer control initialization function.  */
    _tx_timer_initialize();
70005078:	f000 ffec 	bl	70006054 <_tx_timer_initialize>
#endif

#ifndef TX_DISABLE_REDUNDANT_CLEARING

    /* Call the semaphore initialization function.  */
    _tx_semaphore_initialize();
7000507c:	4b12      	ldr	r3, [pc, #72]	@ (700050c8 <_tx_initialize_high_level+0x58>)
7000507e:	2200      	movs	r2, #0
70005080:	601a      	str	r2, [r3, #0]
70005082:	4b12      	ldr	r3, [pc, #72]	@ (700050cc <_tx_initialize_high_level+0x5c>)
70005084:	2200      	movs	r2, #0
70005086:	601a      	str	r2, [r3, #0]

    /* Call the queue initialization function.  */
    _tx_queue_initialize();
70005088:	4b11      	ldr	r3, [pc, #68]	@ (700050d0 <_tx_initialize_high_level+0x60>)
7000508a:	2200      	movs	r2, #0
7000508c:	601a      	str	r2, [r3, #0]
7000508e:	4b11      	ldr	r3, [pc, #68]	@ (700050d4 <_tx_initialize_high_level+0x64>)
70005090:	2200      	movs	r2, #0
70005092:	601a      	str	r2, [r3, #0]

    /* Call the event flag initialization function.  */
    _tx_event_flags_initialize();
70005094:	4b10      	ldr	r3, [pc, #64]	@ (700050d8 <_tx_initialize_high_level+0x68>)
70005096:	2200      	movs	r2, #0
70005098:	601a      	str	r2, [r3, #0]
7000509a:	4b10      	ldr	r3, [pc, #64]	@ (700050dc <_tx_initialize_high_level+0x6c>)
7000509c:	2200      	movs	r2, #0
7000509e:	601a      	str	r2, [r3, #0]

    /* Call the block pool initialization function.  */
    _tx_block_pool_initialize();
700050a0:	4b0f      	ldr	r3, [pc, #60]	@ (700050e0 <_tx_initialize_high_level+0x70>)
700050a2:	2200      	movs	r2, #0
700050a4:	601a      	str	r2, [r3, #0]
700050a6:	4b0f      	ldr	r3, [pc, #60]	@ (700050e4 <_tx_initialize_high_level+0x74>)
700050a8:	2200      	movs	r2, #0
700050aa:	601a      	str	r2, [r3, #0]

    /* Call the byte pool initialization function.  */
    _tx_byte_pool_initialize();
700050ac:	4b0e      	ldr	r3, [pc, #56]	@ (700050e8 <_tx_initialize_high_level+0x78>)
700050ae:	2200      	movs	r2, #0
700050b0:	601a      	str	r2, [r3, #0]
700050b2:	4b0e      	ldr	r3, [pc, #56]	@ (700050ec <_tx_initialize_high_level+0x7c>)
700050b4:	2200      	movs	r2, #0
700050b6:	601a      	str	r2, [r3, #0]

    /* Call the mutex initialization function.  */
    _tx_mutex_initialize();
700050b8:	4b0d      	ldr	r3, [pc, #52]	@ (700050f0 <_tx_initialize_high_level+0x80>)
700050ba:	2200      	movs	r2, #0
700050bc:	601a      	str	r2, [r3, #0]
700050be:	4b0d      	ldr	r3, [pc, #52]	@ (700050f4 <_tx_initialize_high_level+0x84>)
700050c0:	2200      	movs	r2, #0
700050c2:	601a      	str	r2, [r3, #0]
#endif
}
700050c4:	bf00      	nop
700050c6:	bd80      	pop	{r7, pc}
700050c8:	240083a8 	.word	0x240083a8
700050cc:	240083ac 	.word	0x240083ac
700050d0:	240083b0 	.word	0x240083b0
700050d4:	240083b4 	.word	0x240083b4
700050d8:	240083b8 	.word	0x240083b8
700050dc:	240083bc 	.word	0x240083bc
700050e0:	240083c8 	.word	0x240083c8
700050e4:	240083cc 	.word	0x240083cc
700050e8:	240083d0 	.word	0x240083d0
700050ec:	240083d4 	.word	0x240083d4
700050f0:	240083c0 	.word	0x240083c0
700050f4:	240083c4 	.word	0x240083c4

700050f8 <_tx_initialize_kernel_enter>:
/*                                            initialization,             */
/*                                            resulting in version 6.3.0  */
/*                                                                        */
/**************************************************************************/
VOID  _tx_initialize_kernel_enter(VOID)
{
700050f8:	b580      	push	{r7, lr}
700050fa:	af00      	add	r7, sp, #0

    /* Determine if the compiler has pre-initialized ThreadX.  */
    if (_tx_thread_system_state != TX_INITIALIZE_ALMOST_DONE)
700050fc:	4b10      	ldr	r3, [pc, #64]	@ (70005140 <_tx_initialize_kernel_enter+0x48>)
700050fe:	681b      	ldr	r3, [r3, #0]
70005100:	f113 3f0f 	cmn.w	r3, #252645135	@ 0xf0f0f0f
70005104:	d00c      	beq.n	70005120 <_tx_initialize_kernel_enter+0x28>
        /* No, the initialization still needs to take place.  */

        /* Ensure that the system state variable is set to indicate
           initialization is in progress.  Note that this variable is
           later used to represent interrupt nesting.  */
        _tx_thread_system_state =  TX_INITIALIZE_IN_PROGRESS;
70005106:	4b0e      	ldr	r3, [pc, #56]	@ (70005140 <_tx_initialize_kernel_enter+0x48>)
70005108:	f04f 32f0 	mov.w	r2, #4042322160	@ 0xf0f0f0f0
7000510c:	601a      	str	r2, [r3, #0]
        /* Call any port specific preprocessing.  */
        TX_PORT_SPECIFIC_PRE_INITIALIZATION

        /* Invoke the low-level initialization to handle all processor specific
           initialization issues.  */
        _tx_initialize_low_level();
7000510e:	f7fb f8ef 	bl	700002f0 <_tx_initialize_low_level>

        /* Invoke the high-level initialization to exercise all of the
           ThreadX components and the application's initialization
           function.  */
        _tx_initialize_high_level();
70005112:	f7ff ffad 	bl	70005070 <_tx_initialize_high_level>

        /* Call any port specific post-processing.  */
        TX_PORT_SPECIFIC_POST_INITIALIZATION
70005116:	4b0b      	ldr	r3, [pc, #44]	@ (70005144 <_tx_initialize_kernel_enter+0x4c>)
70005118:	681b      	ldr	r3, [r3, #0]
7000511a:	3301      	adds	r3, #1
7000511c:	4a09      	ldr	r2, [pc, #36]	@ (70005144 <_tx_initialize_kernel_enter+0x4c>)
7000511e:	6013      	str	r3, [r2, #0]
    TX_INITIALIZE_KERNEL_ENTER_EXTENSION

    /* Ensure that the system state variable is set to indicate
       initialization is in progress.  Note that this variable is
       later used to represent interrupt nesting.  */
    _tx_thread_system_state =  TX_INITIALIZE_IN_PROGRESS;
70005120:	4b07      	ldr	r3, [pc, #28]	@ (70005140 <_tx_initialize_kernel_enter+0x48>)
70005122:	f04f 32f0 	mov.w	r2, #4042322160	@ 0xf0f0f0f0
70005126:	601a      	str	r2, [r3, #0]
    /* Optional random number generator initialization.  */
    TX_INITIALIZE_RANDOM_GENERATOR_INITIALIZATION

    /* Call the application provided initialization function.  Pass the
       first available memory address to it.  */
    tx_application_define(_tx_initialize_unused_memory);
70005128:	4b07      	ldr	r3, [pc, #28]	@ (70005148 <_tx_initialize_kernel_enter+0x50>)
7000512a:	681b      	ldr	r3, [r3, #0]
7000512c:	4618      	mov	r0, r3
7000512e:	f7fb fbe3 	bl	700008f8 <tx_application_define>

    /* Set the system state in preparation for entering the thread
       scheduler.  */
    _tx_thread_system_state =  TX_INITIALIZE_IS_FINISHED;
70005132:	4b03      	ldr	r3, [pc, #12]	@ (70005140 <_tx_initialize_kernel_enter+0x48>)
70005134:	2200      	movs	r2, #0
70005136:	601a      	str	r2, [r3, #0]
    /* Initialize Execution Profile Kit.  */
    _tx_execution_initialize();
#endif

    /* Enter the scheduling loop to start executing threads!  */
    _tx_thread_schedule();
70005138:	f7fb f92a 	bl	70000390 <_tx_thread_schedule>
#ifdef TX_SAFETY_CRITICAL

    /* If we ever get here, raise safety critical exception.  */
    TX_SAFETY_CRITICAL_EXCEPTION(__FILE__, __LINE__, 0);
#endif
}
7000513c:	bf00      	nop
7000513e:	bd80      	pop	{r7, pc}
70005140:	2400000c 	.word	0x2400000c
70005144:	24008478 	.word	0x24008478
70005148:	240083d8 	.word	0x240083d8

7000514c <_tx_thread_create>:
/*                                                                        */
/**************************************************************************/
UINT  _tx_thread_create(TX_THREAD *thread_ptr, CHAR *name_ptr, VOID (*entry_function)(ULONG id), ULONG entry_input,
                            VOID *stack_start, ULONG stack_size, UINT priority, UINT preempt_threshold,
                            ULONG time_slice, UINT auto_start)
{
7000514c:	b590      	push	{r4, r7, lr}
7000514e:	b08d      	sub	sp, #52	@ 0x34
70005150:	af00      	add	r7, sp, #0
70005152:	60f8      	str	r0, [r7, #12]
70005154:	60b9      	str	r1, [r7, #8]
70005156:	607a      	str	r2, [r7, #4]
70005158:	603b      	str	r3, [r7, #0]
TX_INTERRUPT_SAVE_AREA

TX_THREAD               *next_thread;
TX_THREAD               *previous_thread;
TX_THREAD               *saved_thread_ptr;
UINT                    saved_threshold =  ((UINT) 0);
7000515a:	2300      	movs	r3, #0
7000515c:	62bb      	str	r3, [r7, #40]	@ 0x28
#endif

    /* Set the thread stack to a pattern prior to creating the initial
       stack frame.  This pattern is used by the stack checking routines
       to see how much has been used.  */
    TX_MEMSET(stack_start, ((UCHAR) TX_STACK_FILL), stack_size);
7000515e:	6c7a      	ldr	r2, [r7, #68]	@ 0x44
70005160:	21ef      	movs	r1, #239	@ 0xef
70005162:	6c38      	ldr	r0, [r7, #64]	@ 0x40
70005164:	f001 fad8 	bl	70006718 <memset>
#ifdef TX_ENABLE_STACK_CHECKING

    /* Ensure that there are two ULONG of 0xEF patterns at the top and
       bottom of the thread's stack. This will be used to check for stack
       overflow conditions during run-time.  */
    stack_size =  ((stack_size/(sizeof(ULONG))) * (sizeof(ULONG))) - (sizeof(ULONG));
70005168:	6c7b      	ldr	r3, [r7, #68]	@ 0x44
7000516a:	f023 0303 	bic.w	r3, r3, #3
7000516e:	3b04      	subs	r3, #4
70005170:	647b      	str	r3, [r7, #68]	@ 0x44

    /* Ensure the starting stack address is evenly aligned.  */
#ifdef TX_MISRA_ENABLE
    new_stack_start = TX_POINTER_TO_ULONG_CONVERT(stack_start);
#else
    new_stack_start =  TX_POINTER_TO_ALIGN_TYPE_CONVERT(stack_start);
70005172:	6c3b      	ldr	r3, [r7, #64]	@ 0x40
70005174:	627b      	str	r3, [r7, #36]	@ 0x24
#endif /* TX_MISRA_ENABLE */
    updated_stack_start =  (((new_stack_start) + ((sizeof(ULONG)) - ((ULONG) 1)) ) & (~((sizeof(ULONG)) - ((ULONG) 1))));
70005176:	6a7b      	ldr	r3, [r7, #36]	@ 0x24
70005178:	3303      	adds	r3, #3
7000517a:	f023 0303 	bic.w	r3, r3, #3
7000517e:	623b      	str	r3, [r7, #32]

    /* Determine if the starting stack address is different.  */
    if (new_stack_start != updated_stack_start)
70005180:	6a7a      	ldr	r2, [r7, #36]	@ 0x24
70005182:	6a3b      	ldr	r3, [r7, #32]
70005184:	429a      	cmp	r2, r3
70005186:	d002      	beq.n	7000518e <_tx_thread_create+0x42>
    {

        /* Yes, subtract another ULONG from the size to avoid going past the stack area.  */
        stack_size =  stack_size - (sizeof(ULONG));
70005188:	6c7b      	ldr	r3, [r7, #68]	@ 0x44
7000518a:	3b04      	subs	r3, #4
7000518c:	647b      	str	r3, [r7, #68]	@ 0x44

    /* Update the starting stack pointer.  */
#ifdef TX_MISRA_ENABLE
    stack_start = TX_ULONG_TO_POINTER_CONVERT(updated_stack_start);
#else
    stack_start =  TX_ALIGN_TYPE_TO_POINTER_CONVERT(updated_stack_start);
7000518e:	6a3b      	ldr	r3, [r7, #32]
70005190:	643b      	str	r3, [r7, #64]	@ 0x40

    /* Prepare the thread control block prior to placing it on the created
       list.  */

    /* Initialize thread control block to all zeros.  */
    TX_MEMSET(thread_ptr, 0, (sizeof(TX_THREAD)));
70005192:	22b0      	movs	r2, #176	@ 0xb0
70005194:	2100      	movs	r1, #0
70005196:	68f8      	ldr	r0, [r7, #12]
70005198:	f001 fabe 	bl	70006718 <memset>

    /* Place the supplied parameters into the thread's control block.  */
    thread_ptr -> tx_thread_name =              name_ptr;
7000519c:	68fb      	ldr	r3, [r7, #12]
7000519e:	68ba      	ldr	r2, [r7, #8]
700051a0:	629a      	str	r2, [r3, #40]	@ 0x28
    thread_ptr -> tx_thread_entry =             entry_function;
700051a2:	68fb      	ldr	r3, [r7, #12]
700051a4:	687a      	ldr	r2, [r7, #4]
700051a6:	645a      	str	r2, [r3, #68]	@ 0x44
    thread_ptr -> tx_thread_entry_parameter =   entry_input;
700051a8:	68fb      	ldr	r3, [r7, #12]
700051aa:	683a      	ldr	r2, [r7, #0]
700051ac:	649a      	str	r2, [r3, #72]	@ 0x48
    thread_ptr -> tx_thread_stack_start =       stack_start;
700051ae:	68fb      	ldr	r3, [r7, #12]
700051b0:	6c3a      	ldr	r2, [r7, #64]	@ 0x40
700051b2:	60da      	str	r2, [r3, #12]
    thread_ptr -> tx_thread_stack_size =        stack_size;
700051b4:	68fb      	ldr	r3, [r7, #12]
700051b6:	6c7a      	ldr	r2, [r7, #68]	@ 0x44
700051b8:	615a      	str	r2, [r3, #20]
    thread_ptr -> tx_thread_priority =          priority;
700051ba:	68fb      	ldr	r3, [r7, #12]
700051bc:	6cba      	ldr	r2, [r7, #72]	@ 0x48
700051be:	62da      	str	r2, [r3, #44]	@ 0x2c
    thread_ptr -> tx_thread_user_priority =     priority;
700051c0:	68fb      	ldr	r3, [r7, #12]
700051c2:	6cba      	ldr	r2, [r7, #72]	@ 0x48
700051c4:	f8c3 2094 	str.w	r2, [r3, #148]	@ 0x94
    thread_ptr -> tx_thread_time_slice =        time_slice;
700051c8:	68fb      	ldr	r3, [r7, #12]
700051ca:	6d3a      	ldr	r2, [r7, #80]	@ 0x50
700051cc:	619a      	str	r2, [r3, #24]
    thread_ptr -> tx_thread_new_time_slice =    time_slice;
700051ce:	68fb      	ldr	r3, [r7, #12]
700051d0:	6d3a      	ldr	r2, [r7, #80]	@ 0x50
700051d2:	61da      	str	r2, [r3, #28]
    thread_ptr -> tx_thread_inherit_priority =  ((UINT) TX_MAX_PRIORITIES);
700051d4:	68fb      	ldr	r3, [r7, #12]
700051d6:	2220      	movs	r2, #32
700051d8:	f8c3 209c 	str.w	r2, [r3, #156]	@ 0x9c

    /* Calculate the end of the thread's stack area.  */
    temp_ptr =  TX_VOID_TO_UCHAR_POINTER_CONVERT(stack_start);
700051dc:	6c3b      	ldr	r3, [r7, #64]	@ 0x40
700051de:	61fb      	str	r3, [r7, #28]
    temp_ptr =  (TX_UCHAR_POINTER_ADD(temp_ptr, (stack_size - ((ULONG) 1))));
700051e0:	6c7b      	ldr	r3, [r7, #68]	@ 0x44
700051e2:	3b01      	subs	r3, #1
700051e4:	69fa      	ldr	r2, [r7, #28]
700051e6:	4413      	add	r3, r2
700051e8:	61fb      	str	r3, [r7, #28]
    thread_ptr -> tx_thread_stack_end =         TX_UCHAR_TO_VOID_POINTER_CONVERT(temp_ptr);
700051ea:	68fb      	ldr	r3, [r7, #12]
700051ec:	69fa      	ldr	r2, [r7, #28]
700051ee:	611a      	str	r2, [r3, #16]
    thread_ptr -> tx_thread_preempt_threshold =       preempt_threshold;
    thread_ptr -> tx_thread_user_preempt_threshold =  preempt_threshold;
#else

    /* Preemption-threshold is disabled, determine if preemption-threshold was required.  */
    if (priority != preempt_threshold)
700051f0:	6cba      	ldr	r2, [r7, #72]	@ 0x48
700051f2:	6cfb      	ldr	r3, [r7, #76]	@ 0x4c
700051f4:	429a      	cmp	r2, r3
700051f6:	d007      	beq.n	70005208 <_tx_thread_create+0xbc>
    {

        /* Preemption-threshold specified. Since specific preemption-threshold is not supported,
           disable all preemption.  */
        thread_ptr -> tx_thread_preempt_threshold =       ((UINT) 0);
700051f8:	68fb      	ldr	r3, [r7, #12]
700051fa:	2200      	movs	r2, #0
700051fc:	63da      	str	r2, [r3, #60]	@ 0x3c
        thread_ptr -> tx_thread_user_preempt_threshold =  ((UINT) 0);
700051fe:	68fb      	ldr	r3, [r7, #12]
70005200:	2200      	movs	r2, #0
70005202:	f8c3 2098 	str.w	r2, [r3, #152]	@ 0x98
70005206:	e006      	b.n	70005216 <_tx_thread_create+0xca>
    }
    else
    {

        /* Preemption-threshold is not specified, just setup with the priority.  */
        thread_ptr -> tx_thread_preempt_threshold =       priority;
70005208:	68fb      	ldr	r3, [r7, #12]
7000520a:	6cba      	ldr	r2, [r7, #72]	@ 0x48
7000520c:	63da      	str	r2, [r3, #60]	@ 0x3c
        thread_ptr -> tx_thread_user_preempt_threshold =  priority;
7000520e:	68fb      	ldr	r3, [r7, #12]
70005210:	6cba      	ldr	r2, [r7, #72]	@ 0x48
70005212:	f8c3 2098 	str.w	r2, [r3, #152]	@ 0x98
    }
#endif

    /* Now fill in the values that are required for thread initialization.  */
    thread_ptr -> tx_thread_state =  TX_SUSPENDED;
70005216:	68fb      	ldr	r3, [r7, #12]
70005218:	2203      	movs	r2, #3
7000521a:	631a      	str	r2, [r3, #48]	@ 0x30

    /* Setup the necessary fields in the thread timer block.  */
    TX_THREAD_CREATE_TIMEOUT_SETUP(thread_ptr)
7000521c:	68fb      	ldr	r3, [r7, #12]
7000521e:	4a42      	ldr	r2, [pc, #264]	@ (70005328 <_tx_thread_create+0x1dc>)
70005220:	655a      	str	r2, [r3, #84]	@ 0x54
70005222:	68fa      	ldr	r2, [r7, #12]
70005224:	68fb      	ldr	r3, [r7, #12]
70005226:	659a      	str	r2, [r3, #88]	@ 0x58
    TX_THREAD_CREATE_INTERNAL_EXTENSION(thread_ptr)

    /* Call the target specific stack frame building routine to build the
       thread's initial stack and to setup the actual stack pointer in the
       control block.  */
    _tx_thread_stack_build(thread_ptr, _tx_thread_shell_entry);
70005228:	4940      	ldr	r1, [pc, #256]	@ (7000532c <_tx_thread_create+0x1e0>)
7000522a:	68f8      	ldr	r0, [r7, #12]
7000522c:	f7fb f920 	bl	70000470 <_tx_thread_stack_build>

#ifdef TX_ENABLE_STACK_CHECKING

    /* Setup the highest usage stack pointer.  */
    thread_ptr -> tx_thread_stack_highest_ptr =  thread_ptr -> tx_thread_stack_ptr;
70005230:	68fb      	ldr	r3, [r7, #12]
70005232:	689a      	ldr	r2, [r3, #8]
70005234:	68fb      	ldr	r3, [r7, #12]
70005236:	f8c3 20a8 	str.w	r2, [r3, #168]	@ 0xa8
#endif

    /* Prepare to make this thread a member of the created thread list.  */
    TX_DISABLE
7000523a:	f7fb f899 	bl	70000370 <_tx_thread_interrupt_disable>
7000523e:	4604      	mov	r4, r0

    /* Load the thread ID field in the thread control block.  */
    thread_ptr -> tx_thread_id =  TX_THREAD_ID;
70005240:	68fb      	ldr	r3, [r7, #12]
70005242:	4a3b      	ldr	r2, [pc, #236]	@ (70005330 <_tx_thread_create+0x1e4>)
70005244:	601a      	str	r2, [r3, #0]

    /* Place the thread on the list of created threads.  First,
       check for an empty list.  */
    if (_tx_thread_created_count == TX_EMPTY)
70005246:	4b3b      	ldr	r3, [pc, #236]	@ (70005334 <_tx_thread_create+0x1e8>)
70005248:	681b      	ldr	r3, [r3, #0]
7000524a:	2b00      	cmp	r3, #0
7000524c:	d10b      	bne.n	70005266 <_tx_thread_create+0x11a>
    {

        /* The created thread list is empty.  Add thread to empty list.  */
        _tx_thread_created_ptr =                    thread_ptr;
7000524e:	4a3a      	ldr	r2, [pc, #232]	@ (70005338 <_tx_thread_create+0x1ec>)
70005250:	68fb      	ldr	r3, [r7, #12]
70005252:	6013      	str	r3, [r2, #0]
        thread_ptr -> tx_thread_created_next =      thread_ptr;
70005254:	68fb      	ldr	r3, [r7, #12]
70005256:	68fa      	ldr	r2, [r7, #12]
70005258:	f8c3 2088 	str.w	r2, [r3, #136]	@ 0x88
        thread_ptr -> tx_thread_created_previous =  thread_ptr;
7000525c:	68fb      	ldr	r3, [r7, #12]
7000525e:	68fa      	ldr	r2, [r7, #12]
70005260:	f8c3 208c 	str.w	r2, [r3, #140]	@ 0x8c
70005264:	e016      	b.n	70005294 <_tx_thread_create+0x148>
    }
    else
    {

        /* This list is not NULL, add to the end of the list.  */
        next_thread =  _tx_thread_created_ptr;
70005266:	4b34      	ldr	r3, [pc, #208]	@ (70005338 <_tx_thread_create+0x1ec>)
70005268:	681b      	ldr	r3, [r3, #0]
7000526a:	61bb      	str	r3, [r7, #24]
        previous_thread =  next_thread -> tx_thread_created_previous;
7000526c:	69bb      	ldr	r3, [r7, #24]
7000526e:	f8d3 308c 	ldr.w	r3, [r3, #140]	@ 0x8c
70005272:	617b      	str	r3, [r7, #20]

        /* Place the new thread in the list.  */
        next_thread -> tx_thread_created_previous =  thread_ptr;
70005274:	69bb      	ldr	r3, [r7, #24]
70005276:	68fa      	ldr	r2, [r7, #12]
70005278:	f8c3 208c 	str.w	r2, [r3, #140]	@ 0x8c
        previous_thread -> tx_thread_created_next =  thread_ptr;
7000527c:	697b      	ldr	r3, [r7, #20]
7000527e:	68fa      	ldr	r2, [r7, #12]
70005280:	f8c3 2088 	str.w	r2, [r3, #136]	@ 0x88

        /* Setup this thread's created links.  */
        thread_ptr -> tx_thread_created_previous =  previous_thread;
70005284:	68fb      	ldr	r3, [r7, #12]
70005286:	697a      	ldr	r2, [r7, #20]
70005288:	f8c3 208c 	str.w	r2, [r3, #140]	@ 0x8c
        thread_ptr -> tx_thread_created_next =      next_thread;
7000528c:	68fb      	ldr	r3, [r7, #12]
7000528e:	69ba      	ldr	r2, [r7, #24]
70005290:	f8c3 2088 	str.w	r2, [r3, #136]	@ 0x88
    }

    /* Increment the thread created count.  */
    _tx_thread_created_count++;
70005294:	4b27      	ldr	r3, [pc, #156]	@ (70005334 <_tx_thread_create+0x1e8>)
70005296:	681b      	ldr	r3, [r3, #0]
70005298:	3301      	adds	r3, #1
7000529a:	4a26      	ldr	r2, [pc, #152]	@ (70005334 <_tx_thread_create+0x1e8>)
7000529c:	6013      	str	r3, [r2, #0]
    TX_EL_THREAD_CREATE_INSERT

#ifndef TX_NOT_INTERRUPTABLE

    /* Temporarily disable preemption.  */
    _tx_thread_preempt_disable++;
7000529e:	4b27      	ldr	r3, [pc, #156]	@ (7000533c <_tx_thread_create+0x1f0>)
700052a0:	681b      	ldr	r3, [r3, #0]
700052a2:	3301      	adds	r3, #1
700052a4:	4a25      	ldr	r2, [pc, #148]	@ (7000533c <_tx_thread_create+0x1f0>)
700052a6:	6013      	str	r3, [r2, #0]
#endif

    /* Determine if an automatic start was requested.  If so, call the resume
       thread function and then check for a preemption condition.  */
    if (auto_start == TX_AUTO_START)
700052a8:	6d7b      	ldr	r3, [r7, #84]	@ 0x54
700052aa:	2b01      	cmp	r3, #1
700052ac:	d126      	bne.n	700052fc <_tx_thread_create+0x1b0>
#elif defined(__GNUC__) /* GCC and ARM Compiler 6 */

__attribute__( ( always_inline ) ) static inline unsigned int __get_ipsr_value(void)
{
unsigned int  ipsr_value;
    __asm__ volatile (" MRS  %0,IPSR ": "=r" (ipsr_value) );
700052ae:	f3ef 8305 	mrs	r3, IPSR
700052b2:	613b      	str	r3, [r7, #16]
    return(ipsr_value);
700052b4:	693a      	ldr	r2, [r7, #16]
    {

        /* Determine if the create call is being called from initialization.  */
        if (TX_THREAD_GET_SYSTEM_STATE() >= TX_INITIALIZE_IN_PROGRESS)
700052b6:	4b22      	ldr	r3, [pc, #136]	@ (70005340 <_tx_thread_create+0x1f4>)
700052b8:	681b      	ldr	r3, [r3, #0]
700052ba:	4313      	orrs	r3, r2
700052bc:	f1b3 3ff0 	cmp.w	r3, #4042322160	@ 0xf0f0f0f0
700052c0:	d30d      	bcc.n	700052de <_tx_thread_create+0x192>

            /* Pickup the current thread execute pointer, which corresponds to the
               highest priority thread ready to execute.  Interrupt lockout is
               not required, since interrupts are assumed to be disabled during
               initialization.  */
            saved_thread_ptr =  _tx_thread_execute_ptr;
700052c2:	4b20      	ldr	r3, [pc, #128]	@ (70005344 <_tx_thread_create+0x1f8>)
700052c4:	681b      	ldr	r3, [r3, #0]
700052c6:	62fb      	str	r3, [r7, #44]	@ 0x2c

            /* Determine if there is thread ready for execution.  */
            if (saved_thread_ptr != TX_NULL)
700052c8:	6afb      	ldr	r3, [r7, #44]	@ 0x2c
700052ca:	2b00      	cmp	r3, #0
700052cc:	d009      	beq.n	700052e2 <_tx_thread_create+0x196>
            {

                /* Yes, a thread is ready for execution when initialization completes.  */

                /* Save the current preemption-threshold.  */
                saved_threshold =  saved_thread_ptr -> tx_thread_preempt_threshold;
700052ce:	6afb      	ldr	r3, [r7, #44]	@ 0x2c
700052d0:	6bdb      	ldr	r3, [r3, #60]	@ 0x3c
700052d2:	62bb      	str	r3, [r7, #40]	@ 0x28

                /* For initialization, temporarily set the preemption-threshold to the
                   priority level to make sure the highest-priority thread runs once
                   initialization is complete.  */
                saved_thread_ptr -> tx_thread_preempt_threshold =  saved_thread_ptr -> tx_thread_priority;
700052d4:	6afb      	ldr	r3, [r7, #44]	@ 0x2c
700052d6:	6ada      	ldr	r2, [r3, #44]	@ 0x2c
700052d8:	6afb      	ldr	r3, [r7, #44]	@ 0x2c
700052da:	63da      	str	r2, [r3, #60]	@ 0x3c
700052dc:	e001      	b.n	700052e2 <_tx_thread_create+0x196>
        }
        else
        {

            /* Simply set the saved thread pointer to NULL.  */
            saved_thread_ptr =  TX_NULL;
700052de:	2300      	movs	r3, #0
700052e0:	62fb      	str	r3, [r7, #44]	@ 0x2c
        /* Restore previous interrupt posture.  */
        TX_RESTORE
#else

        /* Restore previous interrupt posture.  */
        TX_RESTORE
700052e2:	4620      	mov	r0, r4
700052e4:	f7fb f84c 	bl	70000380 <_tx_thread_interrupt_restore>

        /* Perform any additional activities for tool or user purpose.  */
        TX_THREAD_CREATE_EXTENSION(thread_ptr)

        /* Call the resume thread function to make this thread ready.  */
        _tx_thread_system_resume(thread_ptr);
700052e8:	68f8      	ldr	r0, [r7, #12]
700052ea:	f000 fa01 	bl	700056f0 <_tx_thread_system_resume>
#endif

        /* Determine if the thread's preemption-threshold needs to be restored.  */
        if (saved_thread_ptr != TX_NULL)
700052ee:	6afb      	ldr	r3, [r7, #44]	@ 0x2c
700052f0:	2b00      	cmp	r3, #0
700052f2:	d013      	beq.n	7000531c <_tx_thread_create+0x1d0>
        {

            /* Yes, restore the previous highest-priority thread's preemption-threshold. This
               can only happen if this routine is called from initialization.  */
            saved_thread_ptr -> tx_thread_preempt_threshold =  saved_threshold;
700052f4:	6afb      	ldr	r3, [r7, #44]	@ 0x2c
700052f6:	6aba      	ldr	r2, [r7, #40]	@ 0x28
700052f8:	63da      	str	r2, [r3, #60]	@ 0x3c
700052fa:	e00f      	b.n	7000531c <_tx_thread_create+0x1d0>
        /* Restore interrupts.  */
        TX_RESTORE
#else

        /* Restore interrupts.  */
        TX_RESTORE
700052fc:	4620      	mov	r0, r4
700052fe:	f7fb f83f 	bl	70000380 <_tx_thread_interrupt_restore>

        /* Perform any additional activities for tool or user purpose.  */
        TX_THREAD_CREATE_EXTENSION(thread_ptr)

        /* Disable interrupts.  */
        TX_DISABLE
70005302:	f7fb f835 	bl	70000370 <_tx_thread_interrupt_disable>
70005306:	4604      	mov	r4, r0

        /* Re-enable preemption.  */
        _tx_thread_preempt_disable--;
70005308:	4b0c      	ldr	r3, [pc, #48]	@ (7000533c <_tx_thread_create+0x1f0>)
7000530a:	681b      	ldr	r3, [r3, #0]
7000530c:	3b01      	subs	r3, #1
7000530e:	4a0b      	ldr	r2, [pc, #44]	@ (7000533c <_tx_thread_create+0x1f0>)
70005310:	6013      	str	r3, [r2, #0]

        /* Restore interrupts.  */
        TX_RESTORE
70005312:	4620      	mov	r0, r4
70005314:	f7fb f834 	bl	70000380 <_tx_thread_interrupt_restore>

        /* Check for preemption.  */
        _tx_thread_system_preempt_check();
70005318:	f000 f980 	bl	7000561c <_tx_thread_system_preempt_check>
#endif
    }

    /* Always return a success.  */
    return(TX_SUCCESS);
7000531c:	2300      	movs	r3, #0
}
7000531e:	4618      	mov	r0, r3
70005320:	3734      	adds	r7, #52	@ 0x34
70005322:	46bd      	mov	sp, r7
70005324:	bd90      	pop	{r4, r7, pc}
70005326:	bf00      	nop
70005328:	70005fc9 	.word	0x70005fc9
7000532c:	700053c9 	.word	0x700053c9
70005330:	54485244 	.word	0x54485244
70005334:	240083ec 	.word	0x240083ec
70005338:	240083e8 	.word	0x240083e8
7000533c:	24008478 	.word	0x24008478
70005340:	2400000c 	.word	0x2400000c
70005344:	240083e4 	.word	0x240083e4

70005348 <_tx_thread_initialize>:
/*                                            stack check error handling, */
/*                                            resulting in version 6.1.9  */   
/*                                                                        */
/**************************************************************************/
VOID  _tx_thread_initialize(VOID)
{
70005348:	b580      	push	{r7, lr}
7000534a:	af00      	add	r7, sp, #0
       respectively.  */

#ifndef TX_DISABLE_REDUNDANT_CLEARING

    /* Set current thread pointer to NULL.  */
    TX_THREAD_SET_CURRENT(TX_NULL)
7000534c:	4b13      	ldr	r3, [pc, #76]	@ (7000539c <_tx_thread_initialize+0x54>)
7000534e:	2200      	movs	r2, #0
70005350:	601a      	str	r2, [r3, #0]

    /* Initialize the execute thread pointer to NULL.  */
    _tx_thread_execute_ptr =  TX_NULL;
70005352:	4b13      	ldr	r3, [pc, #76]	@ (700053a0 <_tx_thread_initialize+0x58>)
70005354:	2200      	movs	r2, #0
70005356:	601a      	str	r2, [r3, #0]

    /* Initialize the priority information.  */
    TX_MEMSET(&_tx_thread_priority_maps[0], 0, (sizeof(_tx_thread_priority_maps)));
70005358:	4b12      	ldr	r3, [pc, #72]	@ (700053a4 <_tx_thread_initialize+0x5c>)
7000535a:	2200      	movs	r2, #0
7000535c:	601a      	str	r2, [r3, #0]
#endif
#endif

    /* Setup the highest priority variable to the max, indicating no thread is currently
       ready.  */
    _tx_thread_highest_priority =  ((UINT) TX_MAX_PRIORITIES);
7000535e:	4b12      	ldr	r3, [pc, #72]	@ (700053a8 <_tx_thread_initialize+0x60>)
70005360:	2220      	movs	r2, #32
70005362:	601a      	str	r2, [r3, #0]


#ifndef TX_DISABLE_REDUNDANT_CLEARING

    /* Initialize the array of priority head pointers.  */
    TX_MEMSET(&_tx_thread_priority_list[0], 0, (sizeof(_tx_thread_priority_list)));
70005364:	2280      	movs	r2, #128	@ 0x80
70005366:	2100      	movs	r1, #0
70005368:	4810      	ldr	r0, [pc, #64]	@ (700053ac <_tx_thread_initialize+0x64>)
7000536a:	f001 f9d5 	bl	70006718 <memset>

    /* Initialize the head pointer of the created threads list and the
       number of threads created.  */
    _tx_thread_created_ptr =        TX_NULL;
7000536e:	4b10      	ldr	r3, [pc, #64]	@ (700053b0 <_tx_thread_initialize+0x68>)
70005370:	2200      	movs	r2, #0
70005372:	601a      	str	r2, [r3, #0]
    _tx_thread_created_count =      TX_EMPTY;
70005374:	4b0f      	ldr	r3, [pc, #60]	@ (700053b4 <_tx_thread_initialize+0x6c>)
70005376:	2200      	movs	r2, #0
70005378:	601a      	str	r2, [r3, #0]

    /* Clear the global preempt disable variable.  */
    _tx_thread_preempt_disable =    ((UINT) 0);
7000537a:	4b0f      	ldr	r3, [pc, #60]	@ (700053b8 <_tx_thread_initialize+0x70>)
7000537c:	2200      	movs	r2, #0
7000537e:	601a      	str	r2, [r3, #0]

    /* Initialize the thread mutex release function pointer.  */
    _tx_thread_mutex_release =      TX_NULL;
70005380:	4b0e      	ldr	r3, [pc, #56]	@ (700053bc <_tx_thread_initialize+0x74>)
70005382:	2200      	movs	r2, #0
70005384:	601a      	str	r2, [r3, #0]

#ifdef TX_ENABLE_STACK_CHECKING

    /* Clear application registered stack error handler.  */
    _tx_thread_application_stack_error_handler =  TX_NULL;
70005386:	4b0e      	ldr	r3, [pc, #56]	@ (700053c0 <_tx_thread_initialize+0x78>)
70005388:	2200      	movs	r2, #0
7000538a:	601a      	str	r2, [r3, #0]
#endif
#ifdef TX_DISABLE_REDUNDANT_CLEARING
                            | (((ULONG) 1) << 18)
#endif
#ifdef TX_DISABLE_NOTIFY_CALLBACKS
                            | (((ULONG) 1) << 17)
7000538c:	4b0d      	ldr	r3, [pc, #52]	@ (700053c4 <_tx_thread_initialize+0x7c>)
7000538e:	681b      	ldr	r3, [r3, #0]
70005390:	f043 738d 	orr.w	r3, r3, #18481152	@ 0x11a0000
    _tx_build_options =  _tx_build_options 
70005394:	4a0b      	ldr	r2, [pc, #44]	@ (700053c4 <_tx_thread_initialize+0x7c>)
70005396:	6013      	str	r3, [r2, #0]
#endif
#if TX_PORT_SPECIFIC_BUILD_OPTIONS != 0
                            | TX_PORT_SPECIFIC_BUILD_OPTIONS
#endif
                            ;
}
70005398:	bf00      	nop
7000539a:	bd80      	pop	{r7, pc}
7000539c:	240083e0 	.word	0x240083e0
700053a0:	240083e4 	.word	0x240083e4
700053a4:	240083f0 	.word	0x240083f0
700053a8:	240083f4 	.word	0x240083f4
700053ac:	240083f8 	.word	0x240083f8
700053b0:	240083e8 	.word	0x240083e8
700053b4:	240083ec 	.word	0x240083ec
700053b8:	24008478 	.word	0x24008478
700053bc:	2400847c 	.word	0x2400847c
700053c0:	24008484 	.word	0x24008484
700053c4:	24008480 	.word	0x24008480

700053c8 <_tx_thread_shell_entry>:
/*  09-30-2020     Yuxin Zhou               Modified comment(s),          */
/*                                            resulting in version 6.1    */
/*                                                                        */
/**************************************************************************/
VOID  _tx_thread_shell_entry(VOID)
{
700053c8:	b590      	push	{r4, r7, lr}
700053ca:	b085      	sub	sp, #20
700053cc:	af00      	add	r7, sp, #0
VOID            (*entry_exit_notify)(TX_THREAD *notify_thread_ptr, UINT type);
#endif


    /* Pickup thread pointer.  */
    TX_THREAD_GET_CURRENT(thread_ptr)
700053ce:	4b1d      	ldr	r3, [pc, #116]	@ (70005444 <_tx_thread_shell_entry+0x7c>)
700053d0:	681b      	ldr	r3, [r3, #0]
700053d2:	60fb      	str	r3, [r7, #12]
        (entry_exit_notify)(thread_ptr, TX_THREAD_ENTRY);
    }
#endif

    /* Call current thread's entry function.  */
    (thread_ptr -> tx_thread_entry) (thread_ptr -> tx_thread_entry_parameter);
700053d4:	68fb      	ldr	r3, [r7, #12]
700053d6:	6c5b      	ldr	r3, [r3, #68]	@ 0x44
700053d8:	68fa      	ldr	r2, [r7, #12]
700053da:	6c92      	ldr	r2, [r2, #72]	@ 0x48
700053dc:	4610      	mov	r0, r2
700053de:	4798      	blx	r3

    /* Suspend thread with a "completed" state.  */

    /* Determine if the application is using mutexes.  */
    if (_tx_thread_mutex_release != TX_NULL)
700053e0:	4b19      	ldr	r3, [pc, #100]	@ (70005448 <_tx_thread_shell_entry+0x80>)
700053e2:	681b      	ldr	r3, [r3, #0]
700053e4:	2b00      	cmp	r3, #0
700053e6:	d003      	beq.n	700053f0 <_tx_thread_shell_entry+0x28>
    {

        /* Yes, call the mutex release function via a function pointer that
           is setup during mutex initialization.  */
        (_tx_thread_mutex_release)(thread_ptr);
700053e8:	4b17      	ldr	r3, [pc, #92]	@ (70005448 <_tx_thread_shell_entry+0x80>)
700053ea:	681b      	ldr	r3, [r3, #0]
700053ec:	68f8      	ldr	r0, [r7, #12]
700053ee:	4798      	blx	r3
    }

    /* Lockout interrupts while the thread state is setup.  */
    TX_DISABLE
700053f0:	f7fa ffbe 	bl	70000370 <_tx_thread_interrupt_disable>
700053f4:	4604      	mov	r4, r0
    entry_exit_notify =  thread_ptr -> tx_thread_entry_exit_notify;
#endif

    /* Set the status to suspending, in order to indicate the suspension
       is in progress.  */
    thread_ptr -> tx_thread_state =  TX_COMPLETED;
700053f6:	68fb      	ldr	r3, [r7, #12]
700053f8:	2201      	movs	r2, #1
700053fa:	631a      	str	r2, [r3, #48]	@ 0x30
    /* Restore interrupts.  */
    TX_RESTORE
#else

    /* Set the suspending flag. */
    thread_ptr -> tx_thread_suspending =  TX_TRUE;
700053fc:	68fb      	ldr	r3, [r7, #12]
700053fe:	2201      	movs	r2, #1
70005400:	639a      	str	r2, [r3, #56]	@ 0x38

    /* Setup for no timeout period.  */
    thread_ptr -> tx_thread_timer.tx_timer_internal_remaining_ticks =  ((ULONG) 0);
70005402:	68fb      	ldr	r3, [r7, #12]
70005404:	2200      	movs	r2, #0
70005406:	64da      	str	r2, [r3, #76]	@ 0x4c

    /* Temporarily disable preemption.  */
    _tx_thread_preempt_disable++;
70005408:	4b10      	ldr	r3, [pc, #64]	@ (7000544c <_tx_thread_shell_entry+0x84>)
7000540a:	681b      	ldr	r3, [r3, #0]
7000540c:	3301      	adds	r3, #1
7000540e:	4a0f      	ldr	r2, [pc, #60]	@ (7000544c <_tx_thread_shell_entry+0x84>)
70005410:	6013      	str	r3, [r2, #0]

    /* Restore interrupts.  */
    TX_RESTORE
70005412:	4620      	mov	r0, r4
70005414:	f7fa ffb4 	bl	70000380 <_tx_thread_interrupt_restore>
    __asm__ volatile (" MRS  %0,CONTROL ": "=r" (control_value) );
70005418:	f3ef 8314 	mrs	r3, CONTROL
7000541c:	603b      	str	r3, [r7, #0]
    return(control_value);
7000541e:	683b      	ldr	r3, [r7, #0]

    /* Perform any additional activities for tool or user purpose.  */
    TX_THREAD_COMPLETED_EXTENSION(thread_ptr)
70005420:	60bb      	str	r3, [r7, #8]
70005422:	68bb      	ldr	r3, [r7, #8]
70005424:	f023 0304 	bic.w	r3, r3, #4
70005428:	60bb      	str	r3, [r7, #8]
7000542a:	68bb      	ldr	r3, [r7, #8]
7000542c:	607b      	str	r3, [r7, #4]
    __asm__ volatile (" MSR  CONTROL,%0": : "r" (control_value): "memory" );
7000542e:	687b      	ldr	r3, [r7, #4]
70005430:	f383 8814 	msr	CONTROL, r3
}
70005434:	bf00      	nop
        (entry_exit_notify)(thread_ptr, TX_THREAD_EXIT);
    }
#endif

    /* Call actual thread suspension routine.  */
    _tx_thread_system_suspend(thread_ptr);
70005436:	68f8      	ldr	r0, [r7, #12]
70005438:	f000 fb0c 	bl	70005a54 <_tx_thread_system_suspend>
#ifdef TX_SAFETY_CRITICAL

    /* If we ever get here, raise safety critical exception.  */
    TX_SAFETY_CRITICAL_EXCEPTION(__FILE__, __LINE__, 0);
#endif
}
7000543c:	bf00      	nop
7000543e:	3714      	adds	r7, #20
70005440:	46bd      	mov	sp, r7
70005442:	bd90      	pop	{r4, r7, pc}
70005444:	240083e0 	.word	0x240083e0
70005448:	2400847c 	.word	0x2400847c
7000544c:	24008478 	.word	0x24008478

70005450 <_tx_thread_sleep>:
/*  09-30-2020     Yuxin Zhou               Modified comment(s),          */
/*                                            resulting in version 6.1    */
/*                                                                        */
/**************************************************************************/
UINT  _tx_thread_sleep(ULONG timer_ticks)
{
70005450:	b590      	push	{r4, r7, lr}
70005452:	b087      	sub	sp, #28
70005454:	af00      	add	r7, sp, #0
70005456:	6078      	str	r0, [r7, #4]
UINT            status;
TX_THREAD       *thread_ptr;


    /* Lockout interrupts while the thread is being resumed.  */
    TX_DISABLE
70005458:	f7fa ff8a 	bl	70000370 <_tx_thread_interrupt_disable>
7000545c:	4604      	mov	r4, r0

    /* Pickup thread pointer.  */
    TX_THREAD_GET_CURRENT(thread_ptr)
7000545e:	4b2c      	ldr	r3, [pc, #176]	@ (70005510 <_tx_thread_sleep+0xc0>)
70005460:	681b      	ldr	r3, [r3, #0]
70005462:	613b      	str	r3, [r7, #16]

    /* Determine if this is a legal request.  */

    /* Is there a current thread?  */
    if (thread_ptr == TX_NULL)
70005464:	693b      	ldr	r3, [r7, #16]
70005466:	2b00      	cmp	r3, #0
70005468:	d105      	bne.n	70005476 <_tx_thread_sleep+0x26>
    {

        /* Restore interrupts.  */
        TX_RESTORE
7000546a:	4620      	mov	r0, r4
7000546c:	f7fa ff88 	bl	70000380 <_tx_thread_interrupt_restore>

        /* Illegal caller of this service.  */
        status =  TX_CALLER_ERROR;
70005470:	2313      	movs	r3, #19
70005472:	617b      	str	r3, [r7, #20]
70005474:	e047      	b.n	70005506 <_tx_thread_sleep+0xb6>
    __asm__ volatile (" MRS  %0,IPSR ": "=r" (ipsr_value) );
70005476:	f3ef 8305 	mrs	r3, IPSR
7000547a:	60fb      	str	r3, [r7, #12]
    return(ipsr_value);
7000547c:	68fa      	ldr	r2, [r7, #12]
    }

    /* Is the caller an ISR or Initialization?  */
    else if (TX_THREAD_GET_SYSTEM_STATE() != ((ULONG) 0))
7000547e:	4b25      	ldr	r3, [pc, #148]	@ (70005514 <_tx_thread_sleep+0xc4>)
70005480:	681b      	ldr	r3, [r3, #0]
70005482:	4313      	orrs	r3, r2
70005484:	2b00      	cmp	r3, #0
70005486:	d005      	beq.n	70005494 <_tx_thread_sleep+0x44>
    {

        /* Restore interrupts.  */
        TX_RESTORE
70005488:	4620      	mov	r0, r4
7000548a:	f7fa ff79 	bl	70000380 <_tx_thread_interrupt_restore>

        /* Illegal caller of this service.  */
        status =  TX_CALLER_ERROR;
7000548e:	2313      	movs	r3, #19
70005490:	617b      	str	r3, [r7, #20]
70005492:	e038      	b.n	70005506 <_tx_thread_sleep+0xb6>
    }

#ifndef TX_TIMER_PROCESS_IN_ISR

    /* Is the caller the system timer thread?  */
    else if (thread_ptr == &_tx_timer_thread)
70005494:	693b      	ldr	r3, [r7, #16]
70005496:	4a20      	ldr	r2, [pc, #128]	@ (70005518 <_tx_thread_sleep+0xc8>)
70005498:	4293      	cmp	r3, r2
7000549a:	d105      	bne.n	700054a8 <_tx_thread_sleep+0x58>
    {

        /* Restore interrupts.  */
        TX_RESTORE
7000549c:	4620      	mov	r0, r4
7000549e:	f7fa ff6f 	bl	70000380 <_tx_thread_interrupt_restore>

        /* Illegal caller of this service.  */
        status =  TX_CALLER_ERROR;
700054a2:	2313      	movs	r3, #19
700054a4:	617b      	str	r3, [r7, #20]
700054a6:	e02e      	b.n	70005506 <_tx_thread_sleep+0xb6>
    }
#endif

    /* Determine if the requested number of ticks is zero.  */
    else if (timer_ticks == ((ULONG) 0))
700054a8:	687b      	ldr	r3, [r7, #4]
700054aa:	2b00      	cmp	r3, #0
700054ac:	d105      	bne.n	700054ba <_tx_thread_sleep+0x6a>
    {

        /* Restore interrupts.  */
        TX_RESTORE
700054ae:	4620      	mov	r0, r4
700054b0:	f7fa ff66 	bl	70000380 <_tx_thread_interrupt_restore>

        /* Just return with a successful status.  */
        status =  TX_SUCCESS;
700054b4:	2300      	movs	r3, #0
700054b6:	617b      	str	r3, [r7, #20]
700054b8:	e025      	b.n	70005506 <_tx_thread_sleep+0xb6>
    }
    else
    {

        /* Determine if the preempt disable flag is non-zero.  */
        if (_tx_thread_preempt_disable != ((UINT) 0))
700054ba:	4b18      	ldr	r3, [pc, #96]	@ (7000551c <_tx_thread_sleep+0xcc>)
700054bc:	681b      	ldr	r3, [r3, #0]
700054be:	2b00      	cmp	r3, #0
700054c0:	d005      	beq.n	700054ce <_tx_thread_sleep+0x7e>
        {

            /* Restore interrupts.  */
            TX_RESTORE
700054c2:	4620      	mov	r0, r4
700054c4:	f7fa ff5c 	bl	70000380 <_tx_thread_interrupt_restore>

            /* Suspension is not allowed if the preempt disable flag is non-zero at this point - return error completion.  */
            status =  TX_CALLER_ERROR;
700054c8:	2313      	movs	r3, #19
700054ca:	617b      	str	r3, [r7, #20]
700054cc:	e01b      	b.n	70005506 <_tx_thread_sleep+0xb6>
            TX_EL_THREAD_SLEEP_INSERT

            /* Suspend the current thread.  */

            /* Set the state to suspended.  */
            thread_ptr -> tx_thread_state =    TX_SLEEP;
700054ce:	693b      	ldr	r3, [r7, #16]
700054d0:	2204      	movs	r2, #4
700054d2:	631a      	str	r2, [r3, #48]	@ 0x30
            /* Restore interrupts.  */
            TX_RESTORE
#else

            /* Set the suspending flag. */
            thread_ptr -> tx_thread_suspending =  TX_TRUE;
700054d4:	693b      	ldr	r3, [r7, #16]
700054d6:	2201      	movs	r2, #1
700054d8:	639a      	str	r2, [r3, #56]	@ 0x38

            /* Initialize the status to successful.  */
            thread_ptr -> tx_thread_suspend_status =  TX_SUCCESS;
700054da:	693b      	ldr	r3, [r7, #16]
700054dc:	2200      	movs	r2, #0
700054de:	f8c3 2084 	str.w	r2, [r3, #132]	@ 0x84

            /* Setup the timeout period.  */
            thread_ptr -> tx_thread_timer.tx_timer_internal_remaining_ticks =  timer_ticks;
700054e2:	693b      	ldr	r3, [r7, #16]
700054e4:	687a      	ldr	r2, [r7, #4]
700054e6:	64da      	str	r2, [r3, #76]	@ 0x4c

            /* Temporarily disable preemption.  */
            _tx_thread_preempt_disable++;
700054e8:	4b0c      	ldr	r3, [pc, #48]	@ (7000551c <_tx_thread_sleep+0xcc>)
700054ea:	681b      	ldr	r3, [r3, #0]
700054ec:	3301      	adds	r3, #1
700054ee:	4a0b      	ldr	r2, [pc, #44]	@ (7000551c <_tx_thread_sleep+0xcc>)
700054f0:	6013      	str	r3, [r2, #0]

            /* Restore interrupts.  */
            TX_RESTORE
700054f2:	4620      	mov	r0, r4
700054f4:	f7fa ff44 	bl	70000380 <_tx_thread_interrupt_restore>

            /* Call actual thread suspension routine.  */
            _tx_thread_system_suspend(thread_ptr);
700054f8:	6938      	ldr	r0, [r7, #16]
700054fa:	f000 faab 	bl	70005a54 <_tx_thread_system_suspend>
#endif

            /* Return status to the caller.  */
            status =  thread_ptr -> tx_thread_suspend_status;
700054fe:	693b      	ldr	r3, [r7, #16]
70005500:	f8d3 3084 	ldr.w	r3, [r3, #132]	@ 0x84
70005504:	617b      	str	r3, [r7, #20]
        }
    }

    /* Return completion status.  */
    return(status);
70005506:	697b      	ldr	r3, [r7, #20]
}
70005508:	4618      	mov	r0, r3
7000550a:	371c      	adds	r7, #28
7000550c:	46bd      	mov	sp, r7
7000550e:	bd90      	pop	{r4, r7, pc}
70005510:	240083e0 	.word	0x240083e0
70005514:	2400000c 	.word	0x2400000c
70005518:	2400852c 	.word	0x2400852c
7000551c:	24008478 	.word	0x24008478

70005520 <_tx_thread_stack_analyze>:
/*  09-30-2020     Yuxin Zhou               Modified comment(s),          */
/*                                            resulting in version 6.1    */
/*                                                                        */
/**************************************************************************/
VOID  _tx_thread_stack_analyze(TX_THREAD *thread_ptr)
{
70005520:	b590      	push	{r4, r7, lr}
70005522:	b087      	sub	sp, #28
70005524:	af00      	add	r7, sp, #0
70005526:	6078      	str	r0, [r7, #4]
ULONG       *stack_highest;
ULONG       size;


    /* Disable interrupts.  */
    TX_DISABLE
70005528:	f7fa ff22 	bl	70000370 <_tx_thread_interrupt_disable>
7000552c:	4604      	mov	r4, r0

    /* Determine if the thread pointer is NULL.  */
    if (thread_ptr != TX_NULL)
7000552e:	687b      	ldr	r3, [r7, #4]
70005530:	2b00      	cmp	r3, #0
70005532:	d051      	beq.n	700055d8 <_tx_thread_stack_analyze+0xb8>
    {

        /* Determine if the thread ID is invalid.  */
        if (thread_ptr -> tx_thread_id == TX_THREAD_ID)
70005534:	687b      	ldr	r3, [r7, #4]
70005536:	681b      	ldr	r3, [r3, #0]
70005538:	4a2b      	ldr	r2, [pc, #172]	@ (700055e8 <_tx_thread_stack_analyze+0xc8>)
7000553a:	4293      	cmp	r3, r2
7000553c:	d14c      	bne.n	700055d8 <_tx_thread_stack_analyze+0xb8>
        {

            /* Pickup the current stack variables.  */
            stack_lowest =   TX_VOID_TO_ULONG_POINTER_CONVERT(thread_ptr -> tx_thread_stack_start);
7000553e:	687b      	ldr	r3, [r7, #4]
70005540:	68db      	ldr	r3, [r3, #12]
70005542:	613b      	str	r3, [r7, #16]

            /* Determine if the pointer is null.  */
            if (stack_lowest != TX_NULL)
70005544:	693b      	ldr	r3, [r7, #16]
70005546:	2b00      	cmp	r3, #0
70005548:	d046      	beq.n	700055d8 <_tx_thread_stack_analyze+0xb8>
            {

                /* Pickup the highest stack pointer.  */
                stack_highest =  TX_VOID_TO_ULONG_POINTER_CONVERT(thread_ptr -> tx_thread_stack_highest_ptr);
7000554a:	687b      	ldr	r3, [r7, #4]
7000554c:	f8d3 30a8 	ldr.w	r3, [r3, #168]	@ 0xa8
70005550:	60fb      	str	r3, [r7, #12]

                /* Determine if the pointer is null.  */
                if (stack_highest != TX_NULL)
70005552:	68fb      	ldr	r3, [r7, #12]
70005554:	2b00      	cmp	r3, #0
70005556:	d03f      	beq.n	700055d8 <_tx_thread_stack_analyze+0xb8>
                {

                    /* Restore interrupts.  */
                    TX_RESTORE
70005558:	4620      	mov	r0, r4
7000555a:	f7fa ff11 	bl	70000380 <_tx_thread_interrupt_restore>
                       This is a best effort algorithm to find the highest stack usage. */
                    do
                    {

                        /* Calculate the size again. */
                        size =  (ULONG) (TX_ULONG_POINTER_DIF(stack_highest, stack_lowest))/((ULONG) 2);
7000555e:	68fa      	ldr	r2, [r7, #12]
70005560:	693b      	ldr	r3, [r7, #16]
70005562:	1ad3      	subs	r3, r2, r3
70005564:	109b      	asrs	r3, r3, #2
70005566:	085b      	lsrs	r3, r3, #1
70005568:	60bb      	str	r3, [r7, #8]
                        stack_ptr =  TX_ULONG_POINTER_ADD(stack_lowest, size);
7000556a:	68bb      	ldr	r3, [r7, #8]
7000556c:	009b      	lsls	r3, r3, #2
7000556e:	693a      	ldr	r2, [r7, #16]
70005570:	4413      	add	r3, r2
70005572:	617b      	str	r3, [r7, #20]

                        /* Determine if the pattern is still there.  */
                        if (*stack_ptr != TX_STACK_FILL)
70005574:	697b      	ldr	r3, [r7, #20]
70005576:	681b      	ldr	r3, [r3, #0]
70005578:	f1b3 3fef 	cmp.w	r3, #4025479151	@ 0xefefefef
7000557c:	d002      	beq.n	70005584 <_tx_thread_stack_analyze+0x64>
                        {

                            /* Update the stack highest, since we need to look in the upper half now.  */
                            stack_highest =  stack_ptr;
7000557e:	697b      	ldr	r3, [r7, #20]
70005580:	60fb      	str	r3, [r7, #12]
70005582:	e001      	b.n	70005588 <_tx_thread_stack_analyze+0x68>
                        }
                        else
                        {

                            /* Update the stack lowest, since we need to look in the lower half now.  */
                            stack_lowest =  stack_ptr;
70005584:	697b      	ldr	r3, [r7, #20]
70005586:	613b      	str	r3, [r7, #16]
                        }

                    } while(size > ((ULONG) 1));
70005588:	68bb      	ldr	r3, [r7, #8]
7000558a:	2b01      	cmp	r3, #1
7000558c:	d8e7      	bhi.n	7000555e <_tx_thread_stack_analyze+0x3e>

                    /* Position to first used word - at this point we are within a few words.  */
                    while (*stack_ptr == TX_STACK_FILL)
7000558e:	e002      	b.n	70005596 <_tx_thread_stack_analyze+0x76>
                    {

                        /* Position to next word in stack.  */
                        stack_ptr =  TX_ULONG_POINTER_ADD(stack_ptr, 1);
70005590:	697b      	ldr	r3, [r7, #20]
70005592:	3304      	adds	r3, #4
70005594:	617b      	str	r3, [r7, #20]
                    while (*stack_ptr == TX_STACK_FILL)
70005596:	697b      	ldr	r3, [r7, #20]
70005598:	681b      	ldr	r3, [r3, #0]
7000559a:	f1b3 3fef 	cmp.w	r3, #4025479151	@ 0xefefefef
7000559e:	d0f7      	beq.n	70005590 <_tx_thread_stack_analyze+0x70>

                    /* Optional processing extension.  */
                    TX_THREAD_STACK_ANALYZE_EXTENSION

                    /* Disable interrupts.  */
                    TX_DISABLE
700055a0:	f7fa fee6 	bl	70000370 <_tx_thread_interrupt_disable>
700055a4:	4604      	mov	r4, r0

                    /* Check to see if the thread is still created.  */
                    if (thread_ptr -> tx_thread_id == TX_THREAD_ID)
700055a6:	687b      	ldr	r3, [r7, #4]
700055a8:	681b      	ldr	r3, [r3, #0]
700055aa:	4a0f      	ldr	r2, [pc, #60]	@ (700055e8 <_tx_thread_stack_analyze+0xc8>)
700055ac:	4293      	cmp	r3, r2
700055ae:	d113      	bne.n	700055d8 <_tx_thread_stack_analyze+0xb8>
                    {

                        /* Yes, thread is still created.  */

                        /* Now check the new highest stack pointer is past the stack start.  */
                        if (stack_ptr > (TX_VOID_TO_ULONG_POINTER_CONVERT(thread_ptr -> tx_thread_stack_start)))
700055b0:	687b      	ldr	r3, [r7, #4]
700055b2:	68db      	ldr	r3, [r3, #12]
700055b4:	697a      	ldr	r2, [r7, #20]
700055b6:	429a      	cmp	r2, r3
700055b8:	d90e      	bls.n	700055d8 <_tx_thread_stack_analyze+0xb8>
                        {

                            /* Yes, now check that the new highest stack pointer is less than the previous highest stack pointer.  */
                            if (stack_ptr < (TX_VOID_TO_ULONG_POINTER_CONVERT(thread_ptr -> tx_thread_stack_highest_ptr)))
700055ba:	687b      	ldr	r3, [r7, #4]
700055bc:	f8d3 30a8 	ldr.w	r3, [r3, #168]	@ 0xa8
700055c0:	697a      	ldr	r2, [r7, #20]
700055c2:	429a      	cmp	r2, r3
700055c4:	d208      	bcs.n	700055d8 <_tx_thread_stack_analyze+0xb8>
                            {

                                /* Yes, is the current highest stack pointer pointing at used memory?  */
                                if (*stack_ptr != TX_STACK_FILL)
700055c6:	697b      	ldr	r3, [r7, #20]
700055c8:	681b      	ldr	r3, [r3, #0]
700055ca:	f1b3 3fef 	cmp.w	r3, #4025479151	@ 0xefefefef
700055ce:	d003      	beq.n	700055d8 <_tx_thread_stack_analyze+0xb8>
                                {

                                    /* Yes, setup the highest stack usage.  */
                                    thread_ptr -> tx_thread_stack_highest_ptr =  stack_ptr;
700055d0:	687b      	ldr	r3, [r7, #4]
700055d2:	697a      	ldr	r2, [r7, #20]
700055d4:	f8c3 20a8 	str.w	r2, [r3, #168]	@ 0xa8
            }
        }
    }

    /* Restore interrupts.  */
    TX_RESTORE
700055d8:	4620      	mov	r0, r4
700055da:	f7fa fed1 	bl	70000380 <_tx_thread_interrupt_restore>
}
700055de:	bf00      	nop
700055e0:	371c      	adds	r7, #28
700055e2:	46bd      	mov	sp, r7
700055e4:	bd90      	pop	{r4, r7, pc}
700055e6:	bf00      	nop
700055e8:	54485244 	.word	0x54485244

700055ec <_tx_thread_stack_error_handler>:
/*                                            stack check error handling, */
/*                                            resulting in version 6.1.9  */
/*                                                                        */
/**************************************************************************/
VOID  _tx_thread_stack_error_handler(TX_THREAD *thread_ptr)
{
700055ec:	b590      	push	{r4, r7, lr}
700055ee:	b083      	sub	sp, #12
700055f0:	af00      	add	r7, sp, #0
700055f2:	6078      	str	r0, [r7, #4]
TX_INTERRUPT_SAVE_AREA

#if defined(TX_ENABLE_STACK_CHECKING) || defined(TX_PORT_THREAD_STACK_ERROR_HANDLING)

    /* Disable interrupts.  */
    TX_DISABLE
700055f4:	f7fa febc 	bl	70000370 <_tx_thread_interrupt_disable>
700055f8:	4604      	mov	r4, r0

    /* Determine if the application has registered an error handler.  */
    if (_tx_thread_application_stack_error_handler != TX_NULL)
700055fa:	4b07      	ldr	r3, [pc, #28]	@ (70005618 <_tx_thread_stack_error_handler+0x2c>)
700055fc:	681b      	ldr	r3, [r3, #0]
700055fe:	2b00      	cmp	r3, #0
70005600:	d003      	beq.n	7000560a <_tx_thread_stack_error_handler+0x1e>
    {

        /* Yes, an error handler is present, simply call the application error handler.  */
        (_tx_thread_application_stack_error_handler)(thread_ptr);
70005602:	4b05      	ldr	r3, [pc, #20]	@ (70005618 <_tx_thread_stack_error_handler+0x2c>)
70005604:	681b      	ldr	r3, [r3, #0]
70005606:	6878      	ldr	r0, [r7, #4]
70005608:	4798      	blx	r3
    }

    /* Restore interrupts.  */
    TX_RESTORE
7000560a:	4620      	mov	r0, r4
7000560c:	f7fa feb8 	bl	70000380 <_tx_thread_interrupt_restore>

        /* Restore interrupts.  */
        TX_RESTORE
    }
#endif
}
70005610:	bf00      	nop
70005612:	370c      	adds	r7, #12
70005614:	46bd      	mov	sp, r7
70005616:	bd90      	pop	{r4, r7, pc}
70005618:	24008484 	.word	0x24008484

7000561c <_tx_thread_system_preempt_check>:
/*  09-30-2020     Yuxin Zhou               Modified comment(s),          */
/*                                            resulting in version 6.1    */
/*                                                                        */
/**************************************************************************/
VOID  _tx_thread_system_preempt_check(VOID)
{
7000561c:	b590      	push	{r4, r7, lr}
7000561e:	b085      	sub	sp, #20
70005620:	af00      	add	r7, sp, #0
TX_THREAD       *current_thread;
TX_THREAD       *thread_ptr;


    /* Combine the system state and preempt disable flags into one for comparison.  */
    TX_THREAD_SYSTEM_RETURN_CHECK(combined_flags)
70005622:	4b2f      	ldr	r3, [pc, #188]	@ (700056e0 <_tx_thread_system_preempt_check+0xc4>)
70005624:	681b      	ldr	r3, [r3, #0]
70005626:	60fb      	str	r3, [r7, #12]

    /* Determine if we are in a system state (ISR or Initialization) or internal preemption is disabled.  */
    if (combined_flags == ((ULONG) 0))
70005628:	68fb      	ldr	r3, [r7, #12]
7000562a:	2b00      	cmp	r3, #0
7000562c:	d153      	bne.n	700056d6 <_tx_thread_system_preempt_check+0xba>
    {

        /* No, at thread execution level so continue checking for preemption.  */

        /* Pickup thread pointer.  */
        TX_THREAD_GET_CURRENT(current_thread)
7000562e:	4b2d      	ldr	r3, [pc, #180]	@ (700056e4 <_tx_thread_system_preempt_check+0xc8>)
70005630:	681b      	ldr	r3, [r3, #0]
70005632:	60bb      	str	r3, [r7, #8]

        /* Pickup the next execute pointer.  */
        thread_ptr =  _tx_thread_execute_ptr;
70005634:	4b2c      	ldr	r3, [pc, #176]	@ (700056e8 <_tx_thread_system_preempt_check+0xcc>)
70005636:	681b      	ldr	r3, [r3, #0]
70005638:	607b      	str	r3, [r7, #4]

        /* Determine if preemption should take place.  */
        if (current_thread != thread_ptr)
7000563a:	68ba      	ldr	r2, [r7, #8]
7000563c:	687b      	ldr	r3, [r7, #4]
7000563e:	429a      	cmp	r2, r3
70005640:	d049      	beq.n	700056d6 <_tx_thread_system_preempt_check+0xba>
        {

#ifdef TX_ENABLE_STACK_CHECKING

            /* Check this thread's stack.  */
            TX_THREAD_STACK_CHECK(thread_ptr)
70005642:	f7fa fe95 	bl	70000370 <_tx_thread_interrupt_disable>
70005646:	4604      	mov	r4, r0
70005648:	687b      	ldr	r3, [r7, #4]
7000564a:	2b00      	cmp	r3, #0
7000564c:	d03e      	beq.n	700056cc <_tx_thread_system_preempt_check+0xb0>
7000564e:	687b      	ldr	r3, [r7, #4]
70005650:	681b      	ldr	r3, [r3, #0]
70005652:	4a26      	ldr	r2, [pc, #152]	@ (700056ec <_tx_thread_system_preempt_check+0xd0>)
70005654:	4293      	cmp	r3, r2
70005656:	d139      	bne.n	700056cc <_tx_thread_system_preempt_check+0xb0>
70005658:	687b      	ldr	r3, [r7, #4]
7000565a:	689a      	ldr	r2, [r3, #8]
7000565c:	687b      	ldr	r3, [r7, #4]
7000565e:	f8d3 30a8 	ldr.w	r3, [r3, #168]	@ 0xa8
70005662:	429a      	cmp	r2, r3
70005664:	d204      	bcs.n	70005670 <_tx_thread_system_preempt_check+0x54>
70005666:	687b      	ldr	r3, [r7, #4]
70005668:	689a      	ldr	r2, [r3, #8]
7000566a:	687b      	ldr	r3, [r7, #4]
7000566c:	f8c3 20a8 	str.w	r2, [r3, #168]	@ 0xa8
70005670:	687b      	ldr	r3, [r7, #4]
70005672:	68db      	ldr	r3, [r3, #12]
70005674:	681b      	ldr	r3, [r3, #0]
70005676:	f1b3 3fef 	cmp.w	r3, #4025479151	@ 0xefefefef
7000567a:	d10d      	bne.n	70005698 <_tx_thread_system_preempt_check+0x7c>
7000567c:	687b      	ldr	r3, [r7, #4]
7000567e:	691b      	ldr	r3, [r3, #16]
70005680:	3301      	adds	r3, #1
70005682:	681b      	ldr	r3, [r3, #0]
70005684:	f1b3 3fef 	cmp.w	r3, #4025479151	@ 0xefefefef
70005688:	d106      	bne.n	70005698 <_tx_thread_system_preempt_check+0x7c>
7000568a:	687b      	ldr	r3, [r7, #4]
7000568c:	f8d3 20a8 	ldr.w	r2, [r3, #168]	@ 0xa8
70005690:	687b      	ldr	r3, [r7, #4]
70005692:	68db      	ldr	r3, [r3, #12]
70005694:	429a      	cmp	r2, r3
70005696:	d208      	bcs.n	700056aa <_tx_thread_system_preempt_check+0x8e>
70005698:	4620      	mov	r0, r4
7000569a:	f7fa fe71 	bl	70000380 <_tx_thread_interrupt_restore>
7000569e:	6878      	ldr	r0, [r7, #4]
700056a0:	f7ff ffa4 	bl	700055ec <_tx_thread_stack_error_handler>
700056a4:	f7fa fe64 	bl	70000370 <_tx_thread_interrupt_disable>
700056a8:	4604      	mov	r4, r0
700056aa:	687b      	ldr	r3, [r7, #4]
700056ac:	f8d3 30a8 	ldr.w	r3, [r3, #168]	@ 0xa8
700056b0:	3b04      	subs	r3, #4
700056b2:	681b      	ldr	r3, [r3, #0]
700056b4:	f1b3 3fef 	cmp.w	r3, #4025479151	@ 0xefefefef
700056b8:	d008      	beq.n	700056cc <_tx_thread_system_preempt_check+0xb0>
700056ba:	4620      	mov	r0, r4
700056bc:	f7fa fe60 	bl	70000380 <_tx_thread_interrupt_restore>
700056c0:	6878      	ldr	r0, [r7, #4]
700056c2:	f7ff ff2d 	bl	70005520 <_tx_thread_stack_analyze>
700056c6:	f7fa fe53 	bl	70000370 <_tx_thread_interrupt_disable>
700056ca:	4604      	mov	r4, r0
700056cc:	4620      	mov	r0, r4
700056ce:	f7fa fe57 	bl	70000380 <_tx_thread_interrupt_restore>
                _tx_thread_performance_non_idle_return_count++;
            }
#endif

            /* Return to the system so the higher priority thread can be scheduled.  */
            _tx_thread_system_return();
700056d2:	f7fa feed 	bl	700004b0 <_tx_thread_system_return>
        }
    }
}
700056d6:	bf00      	nop
700056d8:	3714      	adds	r7, #20
700056da:	46bd      	mov	sp, r7
700056dc:	bd90      	pop	{r4, r7, pc}
700056de:	bf00      	nop
700056e0:	24008478 	.word	0x24008478
700056e4:	240083e0 	.word	0x240083e0
700056e8:	240083e4 	.word	0x240083e4
700056ec:	54485244 	.word	0x54485244

700056f0 <_tx_thread_system_resume>:
/*                                            resulting in version 6.1    */
/*                                                                        */
/**************************************************************************/
VOID  _tx_thread_system_resume(TX_THREAD *thread_ptr)
#ifndef TX_NOT_INTERRUPTABLE
{
700056f0:	b590      	push	{r4, r7, lr}
700056f2:	b08b      	sub	sp, #44	@ 0x2c
700056f4:	af00      	add	r7, sp, #0
700056f6:	6078      	str	r0, [r7, #4]


#ifdef TX_ENABLE_STACK_CHECKING

    /* Check this thread's stack.  */
    TX_THREAD_STACK_CHECK(thread_ptr)
700056f8:	f7fa fe3a 	bl	70000370 <_tx_thread_interrupt_disable>
700056fc:	4604      	mov	r4, r0
700056fe:	687b      	ldr	r3, [r7, #4]
70005700:	2b00      	cmp	r3, #0
70005702:	d03e      	beq.n	70005782 <_tx_thread_system_resume+0x92>
70005704:	687b      	ldr	r3, [r7, #4]
70005706:	681b      	ldr	r3, [r3, #0]
70005708:	4a93      	ldr	r2, [pc, #588]	@ (70005958 <_tx_thread_system_resume+0x268>)
7000570a:	4293      	cmp	r3, r2
7000570c:	d139      	bne.n	70005782 <_tx_thread_system_resume+0x92>
7000570e:	687b      	ldr	r3, [r7, #4]
70005710:	689a      	ldr	r2, [r3, #8]
70005712:	687b      	ldr	r3, [r7, #4]
70005714:	f8d3 30a8 	ldr.w	r3, [r3, #168]	@ 0xa8
70005718:	429a      	cmp	r2, r3
7000571a:	d204      	bcs.n	70005726 <_tx_thread_system_resume+0x36>
7000571c:	687b      	ldr	r3, [r7, #4]
7000571e:	689a      	ldr	r2, [r3, #8]
70005720:	687b      	ldr	r3, [r7, #4]
70005722:	f8c3 20a8 	str.w	r2, [r3, #168]	@ 0xa8
70005726:	687b      	ldr	r3, [r7, #4]
70005728:	68db      	ldr	r3, [r3, #12]
7000572a:	681b      	ldr	r3, [r3, #0]
7000572c:	f1b3 3fef 	cmp.w	r3, #4025479151	@ 0xefefefef
70005730:	d10d      	bne.n	7000574e <_tx_thread_system_resume+0x5e>
70005732:	687b      	ldr	r3, [r7, #4]
70005734:	691b      	ldr	r3, [r3, #16]
70005736:	3301      	adds	r3, #1
70005738:	681b      	ldr	r3, [r3, #0]
7000573a:	f1b3 3fef 	cmp.w	r3, #4025479151	@ 0xefefefef
7000573e:	d106      	bne.n	7000574e <_tx_thread_system_resume+0x5e>
70005740:	687b      	ldr	r3, [r7, #4]
70005742:	f8d3 20a8 	ldr.w	r2, [r3, #168]	@ 0xa8
70005746:	687b      	ldr	r3, [r7, #4]
70005748:	68db      	ldr	r3, [r3, #12]
7000574a:	429a      	cmp	r2, r3
7000574c:	d208      	bcs.n	70005760 <_tx_thread_system_resume+0x70>
7000574e:	4620      	mov	r0, r4
70005750:	f7fa fe16 	bl	70000380 <_tx_thread_interrupt_restore>
70005754:	6878      	ldr	r0, [r7, #4]
70005756:	f7ff ff49 	bl	700055ec <_tx_thread_stack_error_handler>
7000575a:	f7fa fe09 	bl	70000370 <_tx_thread_interrupt_disable>
7000575e:	4604      	mov	r4, r0
70005760:	687b      	ldr	r3, [r7, #4]
70005762:	f8d3 30a8 	ldr.w	r3, [r3, #168]	@ 0xa8
70005766:	3b04      	subs	r3, #4
70005768:	681b      	ldr	r3, [r3, #0]
7000576a:	f1b3 3fef 	cmp.w	r3, #4025479151	@ 0xefefefef
7000576e:	d008      	beq.n	70005782 <_tx_thread_system_resume+0x92>
70005770:	4620      	mov	r0, r4
70005772:	f7fa fe05 	bl	70000380 <_tx_thread_interrupt_restore>
70005776:	6878      	ldr	r0, [r7, #4]
70005778:	f7ff fed2 	bl	70005520 <_tx_thread_stack_analyze>
7000577c:	f7fa fdf8 	bl	70000370 <_tx_thread_interrupt_disable>
70005780:	4604      	mov	r4, r0
70005782:	4620      	mov	r0, r4
70005784:	f7fa fdfc 	bl	70000380 <_tx_thread_interrupt_restore>
#endif

    /* Lockout interrupts while the thread is being resumed.  */
    TX_DISABLE
70005788:	f7fa fdf2 	bl	70000370 <_tx_thread_interrupt_disable>
7000578c:	4604      	mov	r4, r0

#ifndef TX_NO_TIMER

    /* Deactivate the timeout timer if necessary.  */
    if (thread_ptr -> tx_thread_timer.tx_timer_internal_list_head != TX_NULL)
7000578e:	687b      	ldr	r3, [r7, #4]
70005790:	6e5b      	ldr	r3, [r3, #100]	@ 0x64
70005792:	2b00      	cmp	r3, #0
70005794:	d005      	beq.n	700057a2 <_tx_thread_system_resume+0xb2>
    {

        /* Deactivate the thread's timeout timer.  */
        _tx_timer_system_deactivate(&(thread_ptr -> tx_thread_timer));
70005796:	687b      	ldr	r3, [r7, #4]
70005798:	334c      	adds	r3, #76	@ 0x4c
7000579a:	4618      	mov	r0, r3
7000579c:	f000 fd38 	bl	70006210 <_tx_timer_system_deactivate>
700057a0:	e002      	b.n	700057a8 <_tx_thread_system_resume+0xb8>
    }
    else
    {

        /* Clear the remaining time to ensure timer doesn't get activated.  */
        thread_ptr -> tx_thread_timer.tx_timer_internal_remaining_ticks =  ((ULONG) 0);
700057a2:	687b      	ldr	r3, [r7, #4]
700057a4:	2200      	movs	r2, #0
700057a6:	64da      	str	r2, [r3, #76]	@ 0x4c
        time_stamp =  entry_ptr -> tx_trace_buffer_entry_time_stamp;
    }
#endif

    /* Decrease the preempt disabled count.  */
    _tx_thread_preempt_disable--;
700057a8:	4b6c      	ldr	r3, [pc, #432]	@ (7000595c <_tx_thread_system_resume+0x26c>)
700057aa:	681b      	ldr	r3, [r3, #0]
700057ac:	3b01      	subs	r3, #1
700057ae:	4a6b      	ldr	r2, [pc, #428]	@ (7000595c <_tx_thread_system_resume+0x26c>)
700057b0:	6013      	str	r3, [r2, #0]

    /* Determine if the thread is in the process of suspending.  If so, the thread
       control block is already on the linked list so nothing needs to be done.  */
    if (thread_ptr -> tx_thread_suspending == TX_FALSE)
700057b2:	687b      	ldr	r3, [r7, #4]
700057b4:	6b9b      	ldr	r3, [r3, #56]	@ 0x38
700057b6:	2b00      	cmp	r3, #0
700057b8:	f040 80ba 	bne.w	70005930 <_tx_thread_system_resume+0x240>
    {

        /* Thread is not in the process of suspending. Now check to make sure the thread
           has not already been resumed.  */
        if (thread_ptr -> tx_thread_state != TX_READY)
700057bc:	687b      	ldr	r3, [r7, #4]
700057be:	6b1b      	ldr	r3, [r3, #48]	@ 0x30
700057c0:	2b00      	cmp	r3, #0
700057c2:	f000 80db 	beq.w	7000597c <_tx_thread_system_resume+0x28c>
        {

            /* No, now check to see if the delayed suspension flag is set.  */
            if (thread_ptr -> tx_thread_delayed_suspend == TX_FALSE)
700057c6:	687b      	ldr	r3, [r7, #4]
700057c8:	6b5b      	ldr	r3, [r3, #52]	@ 0x34
700057ca:	2b00      	cmp	r3, #0
700057cc:	f040 80a9 	bne.w	70005922 <_tx_thread_system_resume+0x232>
                /* Resume the thread!  */

                /* Make this thread ready.  */

                /* Change the state to ready.  */
                thread_ptr -> tx_thread_state =  TX_READY;
700057d0:	687b      	ldr	r3, [r7, #4]
700057d2:	2200      	movs	r2, #0
700057d4:	631a      	str	r2, [r3, #48]	@ 0x30

                /* Pickup priority of thread.  */
                priority =  thread_ptr -> tx_thread_priority;
700057d6:	687b      	ldr	r3, [r7, #4]
700057d8:	6adb      	ldr	r3, [r3, #44]	@ 0x2c
700057da:	627b      	str	r3, [r7, #36]	@ 0x24
                thread_ptr -> tx_thread_performance_resume_count++;
#endif

                /* Determine if there are other threads at this priority that are
                   ready.  */
                head_ptr =  _tx_thread_priority_list[priority];
700057dc:	4a60      	ldr	r2, [pc, #384]	@ (70005960 <_tx_thread_system_resume+0x270>)
700057de:	6a7b      	ldr	r3, [r7, #36]	@ 0x24
700057e0:	f852 3023 	ldr.w	r3, [r2, r3, lsl #2]
700057e4:	623b      	str	r3, [r7, #32]
                if (head_ptr == TX_NULL)
700057e6:	6a3b      	ldr	r3, [r7, #32]
700057e8:	2b00      	cmp	r3, #0
700057ea:	f040 808a 	bne.w	70005902 <_tx_thread_system_resume+0x212>
                {

                    /* First thread at this priority ready.  Add to the front of the list.  */
                    _tx_thread_priority_list[priority] =       thread_ptr;
700057ee:	495c      	ldr	r1, [pc, #368]	@ (70005960 <_tx_thread_system_resume+0x270>)
700057f0:	6a7b      	ldr	r3, [r7, #36]	@ 0x24
700057f2:	687a      	ldr	r2, [r7, #4]
700057f4:	f841 2023 	str.w	r2, [r1, r3, lsl #2]
                    thread_ptr -> tx_thread_ready_next =       thread_ptr;
700057f8:	687b      	ldr	r3, [r7, #4]
700057fa:	687a      	ldr	r2, [r7, #4]
700057fc:	621a      	str	r2, [r3, #32]
                    thread_ptr -> tx_thread_ready_previous =   thread_ptr;
700057fe:	687b      	ldr	r3, [r7, #4]
70005800:	687a      	ldr	r2, [r7, #4]
70005802:	625a      	str	r2, [r3, #36]	@ 0x24
                    TX_DIV32_BIT_SET(priority, priority_bit)
                    _tx_thread_priority_map_active =  _tx_thread_priority_map_active | priority_bit;
#endif

                    /* Or in the thread's priority bit.  */
                    TX_MOD32_BIT_SET(priority, priority_bit)
70005804:	2201      	movs	r2, #1
70005806:	6a7b      	ldr	r3, [r7, #36]	@ 0x24
70005808:	fa02 f303 	lsl.w	r3, r2, r3
7000580c:	61bb      	str	r3, [r7, #24]
                    _tx_thread_priority_maps[MAP_INDEX] =  _tx_thread_priority_maps[MAP_INDEX] | priority_bit;
7000580e:	4b55      	ldr	r3, [pc, #340]	@ (70005964 <_tx_thread_system_resume+0x274>)
70005810:	681a      	ldr	r2, [r3, #0]
70005812:	69bb      	ldr	r3, [r7, #24]
70005814:	4313      	orrs	r3, r2
70005816:	4a53      	ldr	r2, [pc, #332]	@ (70005964 <_tx_thread_system_resume+0x274>)
70005818:	6013      	str	r3, [r2, #0]

                    /* Determine if this newly ready thread is the highest priority.  */
                    if (priority < _tx_thread_highest_priority)
7000581a:	4b53      	ldr	r3, [pc, #332]	@ (70005968 <_tx_thread_system_resume+0x278>)
7000581c:	681b      	ldr	r3, [r3, #0]
7000581e:	6a7a      	ldr	r2, [r7, #36]	@ 0x24
70005820:	429a      	cmp	r2, r3
70005822:	f080 80ab 	bcs.w	7000597c <_tx_thread_system_resume+0x28c>
                    {

                        /* A new highest priority thread is present. */

                        /* Update the highest priority variable.  */
                        _tx_thread_highest_priority =  priority;
70005826:	4a50      	ldr	r2, [pc, #320]	@ (70005968 <_tx_thread_system_resume+0x278>)
70005828:	6a7b      	ldr	r3, [r7, #36]	@ 0x24
7000582a:	6013      	str	r3, [r2, #0]

                        /* Pickup the execute pointer. Since it is going to be referenced multiple
                           times, it is placed in a local variable.  */
                        execute_ptr =  _tx_thread_execute_ptr;
7000582c:	4b4f      	ldr	r3, [pc, #316]	@ (7000596c <_tx_thread_system_resume+0x27c>)
7000582e:	681b      	ldr	r3, [r3, #0]
70005830:	617b      	str	r3, [r7, #20]

                        /* Determine if no thread is currently executing.  */
                        if (execute_ptr == TX_NULL)
70005832:	697b      	ldr	r3, [r7, #20]
70005834:	2b00      	cmp	r3, #0
70005836:	d103      	bne.n	70005840 <_tx_thread_system_resume+0x150>
                        {

                            /* Simply setup the execute pointer.  */
                            _tx_thread_execute_ptr =  thread_ptr;
70005838:	4a4c      	ldr	r2, [pc, #304]	@ (7000596c <_tx_thread_system_resume+0x27c>)
7000583a:	687b      	ldr	r3, [r7, #4]
7000583c:	6013      	str	r3, [r2, #0]
7000583e:	e09d      	b.n	7000597c <_tx_thread_system_resume+0x28c>
                        {

                            /* Another thread has been scheduled for execution.  */

                            /* Check to see if this is a higher priority thread and determine if preemption is allowed.  */
                            if (priority < execute_ptr -> tx_thread_preempt_threshold)
70005840:	697b      	ldr	r3, [r7, #20]
70005842:	6bdb      	ldr	r3, [r3, #60]	@ 0x3c
70005844:	6a7a      	ldr	r2, [r7, #36]	@ 0x24
70005846:	429a      	cmp	r2, r3
70005848:	f080 8098 	bcs.w	7000597c <_tx_thread_system_resume+0x28c>
                                execute_ptr -> tx_thread_performance_last_preempting_thread =  thread_ptr;

#endif

                                /* Yes, modify the execute thread pointer.  */
                                _tx_thread_execute_ptr =  thread_ptr;
7000584c:	4a47      	ldr	r2, [pc, #284]	@ (7000596c <_tx_thread_system_resume+0x27c>)
7000584e:	687b      	ldr	r3, [r7, #4]
70005850:	6013      	str	r3, [r2, #0]
                                    }
                                }
#endif

                                /* Restore interrupts.  */
                                TX_RESTORE
70005852:	4620      	mov	r0, r4
70005854:	f7fa fd94 	bl	70000380 <_tx_thread_interrupt_restore>

#ifdef TX_ENABLE_STACK_CHECKING

                                /* Pickup the next execute pointer.  */
                                thread_ptr =  _tx_thread_execute_ptr;
70005858:	4b44      	ldr	r3, [pc, #272]	@ (7000596c <_tx_thread_system_resume+0x27c>)
7000585a:	681b      	ldr	r3, [r3, #0]
7000585c:	607b      	str	r3, [r7, #4]

                                /* Check this thread's stack.  */
                                TX_THREAD_STACK_CHECK(thread_ptr)
7000585e:	f7fa fd87 	bl	70000370 <_tx_thread_interrupt_disable>
70005862:	4604      	mov	r4, r0
70005864:	687b      	ldr	r3, [r7, #4]
70005866:	2b00      	cmp	r3, #0
70005868:	d03e      	beq.n	700058e8 <_tx_thread_system_resume+0x1f8>
7000586a:	687b      	ldr	r3, [r7, #4]
7000586c:	681b      	ldr	r3, [r3, #0]
7000586e:	4a3a      	ldr	r2, [pc, #232]	@ (70005958 <_tx_thread_system_resume+0x268>)
70005870:	4293      	cmp	r3, r2
70005872:	d139      	bne.n	700058e8 <_tx_thread_system_resume+0x1f8>
70005874:	687b      	ldr	r3, [r7, #4]
70005876:	689a      	ldr	r2, [r3, #8]
70005878:	687b      	ldr	r3, [r7, #4]
7000587a:	f8d3 30a8 	ldr.w	r3, [r3, #168]	@ 0xa8
7000587e:	429a      	cmp	r2, r3
70005880:	d204      	bcs.n	7000588c <_tx_thread_system_resume+0x19c>
70005882:	687b      	ldr	r3, [r7, #4]
70005884:	689a      	ldr	r2, [r3, #8]
70005886:	687b      	ldr	r3, [r7, #4]
70005888:	f8c3 20a8 	str.w	r2, [r3, #168]	@ 0xa8
7000588c:	687b      	ldr	r3, [r7, #4]
7000588e:	68db      	ldr	r3, [r3, #12]
70005890:	681b      	ldr	r3, [r3, #0]
70005892:	f1b3 3fef 	cmp.w	r3, #4025479151	@ 0xefefefef
70005896:	d10d      	bne.n	700058b4 <_tx_thread_system_resume+0x1c4>
70005898:	687b      	ldr	r3, [r7, #4]
7000589a:	691b      	ldr	r3, [r3, #16]
7000589c:	3301      	adds	r3, #1
7000589e:	681b      	ldr	r3, [r3, #0]
700058a0:	f1b3 3fef 	cmp.w	r3, #4025479151	@ 0xefefefef
700058a4:	d106      	bne.n	700058b4 <_tx_thread_system_resume+0x1c4>
700058a6:	687b      	ldr	r3, [r7, #4]
700058a8:	f8d3 20a8 	ldr.w	r2, [r3, #168]	@ 0xa8
700058ac:	687b      	ldr	r3, [r7, #4]
700058ae:	68db      	ldr	r3, [r3, #12]
700058b0:	429a      	cmp	r2, r3
700058b2:	d208      	bcs.n	700058c6 <_tx_thread_system_resume+0x1d6>
700058b4:	4620      	mov	r0, r4
700058b6:	f7fa fd63 	bl	70000380 <_tx_thread_interrupt_restore>
700058ba:	6878      	ldr	r0, [r7, #4]
700058bc:	f7ff fe96 	bl	700055ec <_tx_thread_stack_error_handler>
700058c0:	f7fa fd56 	bl	70000370 <_tx_thread_interrupt_disable>
700058c4:	4604      	mov	r4, r0
700058c6:	687b      	ldr	r3, [r7, #4]
700058c8:	f8d3 30a8 	ldr.w	r3, [r3, #168]	@ 0xa8
700058cc:	3b04      	subs	r3, #4
700058ce:	681b      	ldr	r3, [r3, #0]
700058d0:	f1b3 3fef 	cmp.w	r3, #4025479151	@ 0xefefefef
700058d4:	d008      	beq.n	700058e8 <_tx_thread_system_resume+0x1f8>
700058d6:	4620      	mov	r0, r4
700058d8:	f7fa fd52 	bl	70000380 <_tx_thread_interrupt_restore>
700058dc:	6878      	ldr	r0, [r7, #4]
700058de:	f7ff fe1f 	bl	70005520 <_tx_thread_stack_analyze>
700058e2:	f7fa fd45 	bl	70000370 <_tx_thread_interrupt_disable>
700058e6:	4604      	mov	r4, r0
700058e8:	4620      	mov	r0, r4
700058ea:	f7fa fd49 	bl	70000380 <_tx_thread_interrupt_restore>
#endif

                                /* Now determine if preemption should take place. This is only possible if the current thread pointer is
                                   not the same as the execute thread pointer AND the system state and preempt disable flags are clear.  */
                                TX_THREAD_SYSTEM_RETURN_CHECK(combined_flags)
700058ee:	4b1b      	ldr	r3, [pc, #108]	@ (7000595c <_tx_thread_system_resume+0x26c>)
700058f0:	681b      	ldr	r3, [r3, #0]
700058f2:	613b      	str	r3, [r7, #16]
                                if (combined_flags == ((ULONG) 0))
700058f4:	693b      	ldr	r3, [r7, #16]
700058f6:	2b00      	cmp	r3, #0
700058f8:	f040 809f 	bne.w	70005a3a <_tx_thread_system_resume+0x34a>
                                    /* There is another thread ready to run and will be scheduled upon return.  */
                                    _tx_thread_performance_non_idle_return_count++;
#endif

                                    /* Preemption is needed - return to the system!  */
                                    _tx_thread_system_return();
700058fc:	f7fa fdd8 	bl	700004b0 <_tx_thread_system_return>
                                }

                                /* Return in-line when MISRA is not enabled.  */
                                return;
70005900:	e09b      	b.n	70005a3a <_tx_thread_system_resume+0x34a>
                {

                    /* No, there are other threads at this priority already ready.  */

                    /* Just add this thread to the priority list.  */
                    tail_ptr =                                 head_ptr -> tx_thread_ready_previous;
70005902:	6a3b      	ldr	r3, [r7, #32]
70005904:	6a5b      	ldr	r3, [r3, #36]	@ 0x24
70005906:	61fb      	str	r3, [r7, #28]
                    tail_ptr -> tx_thread_ready_next =         thread_ptr;
70005908:	69fb      	ldr	r3, [r7, #28]
7000590a:	687a      	ldr	r2, [r7, #4]
7000590c:	621a      	str	r2, [r3, #32]
                    head_ptr -> tx_thread_ready_previous =     thread_ptr;
7000590e:	6a3b      	ldr	r3, [r7, #32]
70005910:	687a      	ldr	r2, [r7, #4]
70005912:	625a      	str	r2, [r3, #36]	@ 0x24
                    thread_ptr -> tx_thread_ready_previous =   tail_ptr;
70005914:	687b      	ldr	r3, [r7, #4]
70005916:	69fa      	ldr	r2, [r7, #28]
70005918:	625a      	str	r2, [r3, #36]	@ 0x24
                    thread_ptr -> tx_thread_ready_next =       head_ptr;
7000591a:	687b      	ldr	r3, [r7, #4]
7000591c:	6a3a      	ldr	r2, [r7, #32]
7000591e:	621a      	str	r2, [r3, #32]
70005920:	e02c      	b.n	7000597c <_tx_thread_system_resume+0x28c>
            /* Else, delayed suspend flag was set.  */
            else
            {

                /* Clear the delayed suspend flag and change the state.  */
                thread_ptr -> tx_thread_delayed_suspend =  TX_FALSE;
70005922:	687b      	ldr	r3, [r7, #4]
70005924:	2200      	movs	r2, #0
70005926:	635a      	str	r2, [r3, #52]	@ 0x34
                thread_ptr -> tx_thread_state =            TX_SUSPENDED;
70005928:	687b      	ldr	r3, [r7, #4]
7000592a:	2203      	movs	r2, #3
7000592c:	631a      	str	r2, [r3, #48]	@ 0x30
7000592e:	e025      	b.n	7000597c <_tx_thread_system_resume+0x28c>
        /* A resumption occurred in the middle of a previous thread suspension.  */

        /* Make sure the type of suspension under way is not a terminate or
           thread completion.  In either of these cases, do not void the
           interrupted suspension processing.  */
        if (thread_ptr -> tx_thread_state != TX_COMPLETED)
70005930:	687b      	ldr	r3, [r7, #4]
70005932:	6b1b      	ldr	r3, [r3, #48]	@ 0x30
70005934:	2b01      	cmp	r3, #1
70005936:	d021      	beq.n	7000597c <_tx_thread_system_resume+0x28c>
        {

            /* Make sure the thread isn't terminated.  */
            if (thread_ptr -> tx_thread_state != TX_TERMINATED)
70005938:	687b      	ldr	r3, [r7, #4]
7000593a:	6b1b      	ldr	r3, [r3, #48]	@ 0x30
7000593c:	2b02      	cmp	r3, #2
7000593e:	d01d      	beq.n	7000597c <_tx_thread_system_resume+0x28c>
            {

                /* No, now check to see if the delayed suspension flag is set.  */
                if (thread_ptr -> tx_thread_delayed_suspend == TX_FALSE)
70005940:	687b      	ldr	r3, [r7, #4]
70005942:	6b5b      	ldr	r3, [r3, #52]	@ 0x34
70005944:	2b00      	cmp	r3, #0
70005946:	d113      	bne.n	70005970 <_tx_thread_system_resume+0x280>
                {

                    /* Clear the suspending flag.  */
                    thread_ptr -> tx_thread_suspending =   TX_FALSE;
70005948:	687b      	ldr	r3, [r7, #4]
7000594a:	2200      	movs	r2, #0
7000594c:	639a      	str	r2, [r3, #56]	@ 0x38

                    /* Restore the state to ready.  */
                    thread_ptr -> tx_thread_state =        TX_READY;
7000594e:	687b      	ldr	r3, [r7, #4]
70005950:	2200      	movs	r2, #0
70005952:	631a      	str	r2, [r3, #48]	@ 0x30
70005954:	e012      	b.n	7000597c <_tx_thread_system_resume+0x28c>
70005956:	bf00      	nop
70005958:	54485244 	.word	0x54485244
7000595c:	24008478 	.word	0x24008478
70005960:	240083f8 	.word	0x240083f8
70005964:	240083f0 	.word	0x240083f0
70005968:	240083f4 	.word	0x240083f4
7000596c:	240083e4 	.word	0x240083e4
                }
                else
                {

                    /* Clear the delayed suspend flag and change the state.  */
                    thread_ptr -> tx_thread_delayed_suspend =  TX_FALSE;
70005970:	687b      	ldr	r3, [r7, #4]
70005972:	2200      	movs	r2, #0
70005974:	635a      	str	r2, [r3, #52]	@ 0x34
                    thread_ptr -> tx_thread_state =            TX_SUSPENDED;
70005976:	687b      	ldr	r3, [r7, #4]
70005978:	2203      	movs	r2, #3
7000597a:	631a      	str	r2, [r3, #48]	@ 0x30
        }
    }
#endif

    /* Pickup thread pointer.  */
    TX_THREAD_GET_CURRENT(current_thread)
7000597c:	4b31      	ldr	r3, [pc, #196]	@ (70005a44 <_tx_thread_system_resume+0x354>)
7000597e:	681b      	ldr	r3, [r3, #0]
70005980:	60fb      	str	r3, [r7, #12]

    /* Restore interrupts.  */
    TX_RESTORE
70005982:	4620      	mov	r0, r4
70005984:	f7fa fcfc 	bl	70000380 <_tx_thread_interrupt_restore>

    /* Determine if a preemption condition is present.  */
    if (current_thread != _tx_thread_execute_ptr)
70005988:	4b2f      	ldr	r3, [pc, #188]	@ (70005a48 <_tx_thread_system_resume+0x358>)
7000598a:	681b      	ldr	r3, [r3, #0]
7000598c:	68fa      	ldr	r2, [r7, #12]
7000598e:	429a      	cmp	r2, r3
70005990:	d054      	beq.n	70005a3c <_tx_thread_system_resume+0x34c>
    {

#ifdef TX_ENABLE_STACK_CHECKING

        /* Pickup the next execute pointer.  */
        thread_ptr =  _tx_thread_execute_ptr;
70005992:	4b2d      	ldr	r3, [pc, #180]	@ (70005a48 <_tx_thread_system_resume+0x358>)
70005994:	681b      	ldr	r3, [r3, #0]
70005996:	607b      	str	r3, [r7, #4]

        /* Check this thread's stack.  */
        TX_THREAD_STACK_CHECK(thread_ptr)
70005998:	f7fa fcea 	bl	70000370 <_tx_thread_interrupt_disable>
7000599c:	4604      	mov	r4, r0
7000599e:	687b      	ldr	r3, [r7, #4]
700059a0:	2b00      	cmp	r3, #0
700059a2:	d03e      	beq.n	70005a22 <_tx_thread_system_resume+0x332>
700059a4:	687b      	ldr	r3, [r7, #4]
700059a6:	681b      	ldr	r3, [r3, #0]
700059a8:	4a28      	ldr	r2, [pc, #160]	@ (70005a4c <_tx_thread_system_resume+0x35c>)
700059aa:	4293      	cmp	r3, r2
700059ac:	d139      	bne.n	70005a22 <_tx_thread_system_resume+0x332>
700059ae:	687b      	ldr	r3, [r7, #4]
700059b0:	689a      	ldr	r2, [r3, #8]
700059b2:	687b      	ldr	r3, [r7, #4]
700059b4:	f8d3 30a8 	ldr.w	r3, [r3, #168]	@ 0xa8
700059b8:	429a      	cmp	r2, r3
700059ba:	d204      	bcs.n	700059c6 <_tx_thread_system_resume+0x2d6>
700059bc:	687b      	ldr	r3, [r7, #4]
700059be:	689a      	ldr	r2, [r3, #8]
700059c0:	687b      	ldr	r3, [r7, #4]
700059c2:	f8c3 20a8 	str.w	r2, [r3, #168]	@ 0xa8
700059c6:	687b      	ldr	r3, [r7, #4]
700059c8:	68db      	ldr	r3, [r3, #12]
700059ca:	681b      	ldr	r3, [r3, #0]
700059cc:	f1b3 3fef 	cmp.w	r3, #4025479151	@ 0xefefefef
700059d0:	d10d      	bne.n	700059ee <_tx_thread_system_resume+0x2fe>
700059d2:	687b      	ldr	r3, [r7, #4]
700059d4:	691b      	ldr	r3, [r3, #16]
700059d6:	3301      	adds	r3, #1
700059d8:	681b      	ldr	r3, [r3, #0]
700059da:	f1b3 3fef 	cmp.w	r3, #4025479151	@ 0xefefefef
700059de:	d106      	bne.n	700059ee <_tx_thread_system_resume+0x2fe>
700059e0:	687b      	ldr	r3, [r7, #4]
700059e2:	f8d3 20a8 	ldr.w	r2, [r3, #168]	@ 0xa8
700059e6:	687b      	ldr	r3, [r7, #4]
700059e8:	68db      	ldr	r3, [r3, #12]
700059ea:	429a      	cmp	r2, r3
700059ec:	d208      	bcs.n	70005a00 <_tx_thread_system_resume+0x310>
700059ee:	4620      	mov	r0, r4
700059f0:	f7fa fcc6 	bl	70000380 <_tx_thread_interrupt_restore>
700059f4:	6878      	ldr	r0, [r7, #4]
700059f6:	f7ff fdf9 	bl	700055ec <_tx_thread_stack_error_handler>
700059fa:	f7fa fcb9 	bl	70000370 <_tx_thread_interrupt_disable>
700059fe:	4604      	mov	r4, r0
70005a00:	687b      	ldr	r3, [r7, #4]
70005a02:	f8d3 30a8 	ldr.w	r3, [r3, #168]	@ 0xa8
70005a06:	3b04      	subs	r3, #4
70005a08:	681b      	ldr	r3, [r3, #0]
70005a0a:	f1b3 3fef 	cmp.w	r3, #4025479151	@ 0xefefefef
70005a0e:	d008      	beq.n	70005a22 <_tx_thread_system_resume+0x332>
70005a10:	4620      	mov	r0, r4
70005a12:	f7fa fcb5 	bl	70000380 <_tx_thread_interrupt_restore>
70005a16:	6878      	ldr	r0, [r7, #4]
70005a18:	f7ff fd82 	bl	70005520 <_tx_thread_stack_analyze>
70005a1c:	f7fa fca8 	bl	70000370 <_tx_thread_interrupt_disable>
70005a20:	4604      	mov	r4, r0
70005a22:	4620      	mov	r0, r4
70005a24:	f7fa fcac 	bl	70000380 <_tx_thread_interrupt_restore>
#endif

        /* Now determine if preemption should take place. This is only possible if the current thread pointer is
           not the same as the execute thread pointer AND the system state and preempt disable flags are clear.  */
        TX_THREAD_SYSTEM_RETURN_CHECK(combined_flags)
70005a28:	4b09      	ldr	r3, [pc, #36]	@ (70005a50 <_tx_thread_system_resume+0x360>)
70005a2a:	681b      	ldr	r3, [r3, #0]
70005a2c:	613b      	str	r3, [r7, #16]
        if (combined_flags == ((ULONG) 0))
70005a2e:	693b      	ldr	r3, [r7, #16]
70005a30:	2b00      	cmp	r3, #0
70005a32:	d103      	bne.n	70005a3c <_tx_thread_system_resume+0x34c>
            /* There is another thread ready to run and will be scheduled upon return.  */
            _tx_thread_performance_non_idle_return_count++;
#endif

            /* Preemption is needed - return to the system!  */
            _tx_thread_system_return();
70005a34:	f7fa fd3c 	bl	700004b0 <_tx_thread_system_return>
70005a38:	e000      	b.n	70005a3c <_tx_thread_system_resume+0x34c>
                                return;
70005a3a:	bf00      	nop
        }
    }
}
70005a3c:	372c      	adds	r7, #44	@ 0x2c
70005a3e:	46bd      	mov	sp, r7
70005a40:	bd90      	pop	{r4, r7, pc}
70005a42:	bf00      	nop
70005a44:	240083e0 	.word	0x240083e0
70005a48:	240083e4 	.word	0x240083e4
70005a4c:	54485244 	.word	0x54485244
70005a50:	24008478 	.word	0x24008478

70005a54 <_tx_thread_system_suspend>:
/*                                            resulting in version 6.1    */
/*                                                                        */
/**************************************************************************/
VOID  _tx_thread_system_suspend(TX_THREAD *thread_ptr)
#ifndef TX_NOT_INTERRUPTABLE
{
70005a54:	b590      	push	{r4, r7, lr}
70005a56:	b08d      	sub	sp, #52	@ 0x34
70005a58:	af00      	add	r7, sp, #0
70005a5a:	6078      	str	r0, [r7, #4]
TX_TRACE_BUFFER_ENTRY       *entry_ptr;
ULONG                       time_stamp =  ((ULONG) 0);
#endif

    /* Pickup thread pointer.  */
    TX_THREAD_GET_CURRENT(current_thread)
70005a5c:	4b88      	ldr	r3, [pc, #544]	@ (70005c80 <_tx_thread_system_suspend+0x22c>)
70005a5e:	681b      	ldr	r3, [r3, #0]
70005a60:	627b      	str	r3, [r7, #36]	@ 0x24

#ifdef TX_ENABLE_STACK_CHECKING

    /* Check this thread's stack.  */
    TX_THREAD_STACK_CHECK(thread_ptr)
70005a62:	f7fa fc85 	bl	70000370 <_tx_thread_interrupt_disable>
70005a66:	4604      	mov	r4, r0
70005a68:	687b      	ldr	r3, [r7, #4]
70005a6a:	2b00      	cmp	r3, #0
70005a6c:	d03e      	beq.n	70005aec <_tx_thread_system_suspend+0x98>
70005a6e:	687b      	ldr	r3, [r7, #4]
70005a70:	681b      	ldr	r3, [r3, #0]
70005a72:	4a84      	ldr	r2, [pc, #528]	@ (70005c84 <_tx_thread_system_suspend+0x230>)
70005a74:	4293      	cmp	r3, r2
70005a76:	d139      	bne.n	70005aec <_tx_thread_system_suspend+0x98>
70005a78:	687b      	ldr	r3, [r7, #4]
70005a7a:	689a      	ldr	r2, [r3, #8]
70005a7c:	687b      	ldr	r3, [r7, #4]
70005a7e:	f8d3 30a8 	ldr.w	r3, [r3, #168]	@ 0xa8
70005a82:	429a      	cmp	r2, r3
70005a84:	d204      	bcs.n	70005a90 <_tx_thread_system_suspend+0x3c>
70005a86:	687b      	ldr	r3, [r7, #4]
70005a88:	689a      	ldr	r2, [r3, #8]
70005a8a:	687b      	ldr	r3, [r7, #4]
70005a8c:	f8c3 20a8 	str.w	r2, [r3, #168]	@ 0xa8
70005a90:	687b      	ldr	r3, [r7, #4]
70005a92:	68db      	ldr	r3, [r3, #12]
70005a94:	681b      	ldr	r3, [r3, #0]
70005a96:	f1b3 3fef 	cmp.w	r3, #4025479151	@ 0xefefefef
70005a9a:	d10d      	bne.n	70005ab8 <_tx_thread_system_suspend+0x64>
70005a9c:	687b      	ldr	r3, [r7, #4]
70005a9e:	691b      	ldr	r3, [r3, #16]
70005aa0:	3301      	adds	r3, #1
70005aa2:	681b      	ldr	r3, [r3, #0]
70005aa4:	f1b3 3fef 	cmp.w	r3, #4025479151	@ 0xefefefef
70005aa8:	d106      	bne.n	70005ab8 <_tx_thread_system_suspend+0x64>
70005aaa:	687b      	ldr	r3, [r7, #4]
70005aac:	f8d3 20a8 	ldr.w	r2, [r3, #168]	@ 0xa8
70005ab0:	687b      	ldr	r3, [r7, #4]
70005ab2:	68db      	ldr	r3, [r3, #12]
70005ab4:	429a      	cmp	r2, r3
70005ab6:	d208      	bcs.n	70005aca <_tx_thread_system_suspend+0x76>
70005ab8:	4620      	mov	r0, r4
70005aba:	f7fa fc61 	bl	70000380 <_tx_thread_interrupt_restore>
70005abe:	6878      	ldr	r0, [r7, #4]
70005ac0:	f7ff fd94 	bl	700055ec <_tx_thread_stack_error_handler>
70005ac4:	f7fa fc54 	bl	70000370 <_tx_thread_interrupt_disable>
70005ac8:	4604      	mov	r4, r0
70005aca:	687b      	ldr	r3, [r7, #4]
70005acc:	f8d3 30a8 	ldr.w	r3, [r3, #168]	@ 0xa8
70005ad0:	3b04      	subs	r3, #4
70005ad2:	681b      	ldr	r3, [r3, #0]
70005ad4:	f1b3 3fef 	cmp.w	r3, #4025479151	@ 0xefefefef
70005ad8:	d008      	beq.n	70005aec <_tx_thread_system_suspend+0x98>
70005ada:	4620      	mov	r0, r4
70005adc:	f7fa fc50 	bl	70000380 <_tx_thread_interrupt_restore>
70005ae0:	6878      	ldr	r0, [r7, #4]
70005ae2:	f7ff fd1d 	bl	70005520 <_tx_thread_stack_analyze>
70005ae6:	f7fa fc43 	bl	70000370 <_tx_thread_interrupt_disable>
70005aea:	4604      	mov	r4, r0
70005aec:	4620      	mov	r0, r4
70005aee:	f7fa fc47 	bl	70000380 <_tx_thread_interrupt_restore>
#endif

    /* Lockout interrupts while the thread is being suspended.  */
    TX_DISABLE
70005af2:	f7fa fc3d 	bl	70000370 <_tx_thread_interrupt_disable>
70005af6:	4604      	mov	r4, r0

#ifndef TX_NO_TIMER

    /* Is the current thread suspending?  */
    if (thread_ptr == current_thread)
70005af8:	687a      	ldr	r2, [r7, #4]
70005afa:	6a7b      	ldr	r3, [r7, #36]	@ 0x24
70005afc:	429a      	cmp	r2, r3
70005afe:	d112      	bne.n	70005b26 <_tx_thread_system_suspend+0xd2>
    {

        /* Pickup the wait option.  */
        timeout =  thread_ptr -> tx_thread_timer.tx_timer_internal_remaining_ticks;
70005b00:	687b      	ldr	r3, [r7, #4]
70005b02:	6cdb      	ldr	r3, [r3, #76]	@ 0x4c
70005b04:	623b      	str	r3, [r7, #32]

        /* Determine if an activation is needed.  */
        if (timeout != TX_NO_WAIT)
70005b06:	6a3b      	ldr	r3, [r7, #32]
70005b08:	2b00      	cmp	r3, #0
70005b0a:	d008      	beq.n	70005b1e <_tx_thread_system_suspend+0xca>
        {

            /* Make sure the suspension is not a wait-forever.  */
            if (timeout != TX_WAIT_FOREVER)
70005b0c:	6a3b      	ldr	r3, [r7, #32]
70005b0e:	f1b3 3fff 	cmp.w	r3, #4294967295
70005b12:	d004      	beq.n	70005b1e <_tx_thread_system_suspend+0xca>
            {

                /* Activate the thread timer with the timeout value setup in the caller.  */
                _tx_timer_system_activate(&(thread_ptr -> tx_thread_timer));
70005b14:	687b      	ldr	r3, [r7, #4]
70005b16:	334c      	adds	r3, #76	@ 0x4c
70005b18:	4618      	mov	r0, r3
70005b1a:	f000 fb17 	bl	7000614c <_tx_timer_system_activate>
            }
        }

        /* Yes, reset time slice for current thread.  */
        _tx_timer_time_slice =  thread_ptr -> tx_thread_new_time_slice;
70005b1e:	687b      	ldr	r3, [r7, #4]
70005b20:	69db      	ldr	r3, [r3, #28]
70005b22:	4a59      	ldr	r2, [pc, #356]	@ (70005c88 <_tx_thread_system_suspend+0x234>)
70005b24:	6013      	str	r3, [r2, #0]
    }
#endif

    /* Decrease the preempt disabled count.  */
    _tx_thread_preempt_disable--;
70005b26:	4b59      	ldr	r3, [pc, #356]	@ (70005c8c <_tx_thread_system_suspend+0x238>)
70005b28:	681b      	ldr	r3, [r3, #0]
70005b2a:	3b01      	subs	r3, #1
70005b2c:	4a57      	ldr	r2, [pc, #348]	@ (70005c8c <_tx_thread_system_suspend+0x238>)
70005b2e:	6013      	str	r3, [r2, #0]
    _tx_thread_performance_suspend_count++;
#endif

    /* Check to make sure the thread suspending flag is still set.  If not, it
       has already been resumed.  */
    if (thread_ptr -> tx_thread_suspending == TX_TRUE)
70005b30:	687b      	ldr	r3, [r7, #4]
70005b32:	6b9b      	ldr	r3, [r3, #56]	@ 0x38
70005b34:	2b01      	cmp	r3, #1
70005b36:	f040 80f6 	bne.w	70005d26 <_tx_thread_system_suspend+0x2d2>
            time_stamp =  entry_ptr -> tx_trace_buffer_entry_time_stamp;
        }
#endif

        /* Actually suspend this thread.  But first, clear the suspending flag.  */
        thread_ptr -> tx_thread_suspending =  TX_FALSE;
70005b3a:	687b      	ldr	r3, [r7, #4]
70005b3c:	2200      	movs	r2, #0
70005b3e:	639a      	str	r2, [r3, #56]	@ 0x38

        /* Pickup priority of thread.  */
        priority =  thread_ptr -> tx_thread_priority;
70005b40:	687b      	ldr	r3, [r7, #4]
70005b42:	6adb      	ldr	r3, [r3, #44]	@ 0x2c
70005b44:	61fb      	str	r3, [r7, #28]

        /* Pickup the next ready thread pointer.  */
        ready_next =      thread_ptr -> tx_thread_ready_next;
70005b46:	687b      	ldr	r3, [r7, #4]
70005b48:	6a1b      	ldr	r3, [r3, #32]
70005b4a:	61bb      	str	r3, [r7, #24]

        /* Determine if there are other threads at this priority that are
           ready.  */
        if (ready_next != thread_ptr)
70005b4c:	69ba      	ldr	r2, [r7, #24]
70005b4e:	687b      	ldr	r3, [r7, #4]
70005b50:	429a      	cmp	r2, r3
70005b52:	d016      	beq.n	70005b82 <_tx_thread_system_suspend+0x12e>
        {

            /* Yes, there are other threads at this priority ready.  */

            /* Pickup the previous ready thread pointer.  */
            ready_previous =  thread_ptr -> tx_thread_ready_previous;
70005b54:	687b      	ldr	r3, [r7, #4]
70005b56:	6a5b      	ldr	r3, [r3, #36]	@ 0x24
70005b58:	60fb      	str	r3, [r7, #12]

            /* Just remove this thread from the priority list.  */
            ready_next -> tx_thread_ready_previous =    ready_previous;
70005b5a:	69bb      	ldr	r3, [r7, #24]
70005b5c:	68fa      	ldr	r2, [r7, #12]
70005b5e:	625a      	str	r2, [r3, #36]	@ 0x24
            ready_previous -> tx_thread_ready_next =    ready_next;
70005b60:	68fb      	ldr	r3, [r7, #12]
70005b62:	69ba      	ldr	r2, [r7, #24]
70005b64:	621a      	str	r2, [r3, #32]

            /* Determine if this is the head of the priority list.  */
            if (_tx_thread_priority_list[priority] == thread_ptr)
70005b66:	4a4a      	ldr	r2, [pc, #296]	@ (70005c90 <_tx_thread_system_suspend+0x23c>)
70005b68:	69fb      	ldr	r3, [r7, #28]
70005b6a:	f852 3023 	ldr.w	r3, [r2, r3, lsl #2]
70005b6e:	687a      	ldr	r2, [r7, #4]
70005b70:	429a      	cmp	r2, r3
70005b72:	f040 80c0 	bne.w	70005cf6 <_tx_thread_system_suspend+0x2a2>
            {

                /* Update the head pointer of this priority list.  */
                _tx_thread_priority_list[priority] =  ready_next;
70005b76:	4946      	ldr	r1, [pc, #280]	@ (70005c90 <_tx_thread_system_suspend+0x23c>)
70005b78:	69fb      	ldr	r3, [r7, #28]
70005b7a:	69ba      	ldr	r2, [r7, #24]
70005b7c:	f841 2023 	str.w	r2, [r1, r3, lsl #2]
70005b80:	e0b9      	b.n	70005cf6 <_tx_thread_system_suspend+0x2a2>
        else
        {

            /* This is the only thread at this priority ready to run.  Set the head
               pointer to NULL.  */
            _tx_thread_priority_list[priority] =    TX_NULL;
70005b82:	4a43      	ldr	r2, [pc, #268]	@ (70005c90 <_tx_thread_system_suspend+0x23c>)
70005b84:	69fb      	ldr	r3, [r7, #28]
70005b86:	2100      	movs	r1, #0
70005b88:	f842 1023 	str.w	r1, [r2, r3, lsl #2]
            /* Calculate the index into the bit map array.  */
            map_index =  priority/((UINT) 32);
#endif

            /* Clear this priority bit in the ready priority bit map.  */
            TX_MOD32_BIT_SET(priority, priority_bit)
70005b8c:	2201      	movs	r2, #1
70005b8e:	69fb      	ldr	r3, [r7, #28]
70005b90:	fa02 f303 	lsl.w	r3, r2, r3
70005b94:	62bb      	str	r3, [r7, #40]	@ 0x28
            _tx_thread_priority_maps[MAP_INDEX] =  _tx_thread_priority_maps[MAP_INDEX] & (~(priority_bit));
70005b96:	4b3f      	ldr	r3, [pc, #252]	@ (70005c94 <_tx_thread_system_suspend+0x240>)
70005b98:	681a      	ldr	r2, [r3, #0]
70005b9a:	6abb      	ldr	r3, [r7, #40]	@ 0x28
70005b9c:	43db      	mvns	r3, r3
70005b9e:	4013      	ands	r3, r2
70005ba0:	4a3c      	ldr	r2, [pc, #240]	@ (70005c94 <_tx_thread_system_suspend+0x240>)
70005ba2:	6013      	str	r3, [r2, #0]
            /* Calculate the base priority as well.  */
            base_priority =  map_index * ((UINT) 32);
#else

            /* Setup the base priority to zero.  */
            base_priority =   ((UINT) 0);
70005ba4:	2300      	movs	r3, #0
70005ba6:	617b      	str	r3, [r7, #20]
#endif

            /* Setup working variable for the priority map.  */
            priority_map =    _tx_thread_priority_maps[MAP_INDEX];
70005ba8:	4b3a      	ldr	r3, [pc, #232]	@ (70005c94 <_tx_thread_system_suspend+0x240>)
70005baa:	681b      	ldr	r3, [r3, #0]
70005bac:	62fb      	str	r3, [r7, #44]	@ 0x2c

            /* Make a quick check for no other threads ready for execution.  */
            if (priority_map == ((ULONG) 0))
70005bae:	6afb      	ldr	r3, [r7, #44]	@ 0x2c
70005bb0:	2b00      	cmp	r3, #0
70005bb2:	d112      	bne.n	70005bda <_tx_thread_system_suspend+0x186>
            {

                /* Nothing else is ready.  Set highest priority and execute thread
                   accordingly.  */
                _tx_thread_highest_priority =  ((UINT) TX_MAX_PRIORITIES);
70005bb4:	4b38      	ldr	r3, [pc, #224]	@ (70005c98 <_tx_thread_system_suspend+0x244>)
70005bb6:	2220      	movs	r2, #32
70005bb8:	601a      	str	r2, [r3, #0]
                _tx_thread_execute_ptr =       TX_NULL;
70005bba:	4b38      	ldr	r3, [pc, #224]	@ (70005c9c <_tx_thread_system_suspend+0x248>)
70005bbc:	2200      	movs	r2, #0
70005bbe:	601a      	str	r2, [r3, #0]
                    }
                }
#endif

                /* Restore interrupts.  */
                TX_RESTORE
70005bc0:	4620      	mov	r0, r4
70005bc2:	f7fa fbdd 	bl	70000380 <_tx_thread_interrupt_restore>

                /* Determine if preemption should take place. This is only possible if the current thread pointer is
                   not the same as the execute thread pointer AND the system state and preempt disable flags are clear.  */
                TX_THREAD_SYSTEM_RETURN_CHECK(combined_flags)
70005bc6:	4b31      	ldr	r3, [pc, #196]	@ (70005c8c <_tx_thread_system_suspend+0x238>)
70005bc8:	681b      	ldr	r3, [r3, #0]
70005bca:	613b      	str	r3, [r7, #16]
                if (combined_flags == ((ULONG) 0))
70005bcc:	693b      	ldr	r3, [r7, #16]
70005bce:	2b00      	cmp	r3, #0
70005bd0:	f040 8105 	bne.w	70005dde <_tx_thread_system_suspend+0x38a>
                    /* Yes, increment the return to idle return count.  */
                    _tx_thread_performance_idle_return_count++;
#endif

                    /* Preemption is needed - return to the system!  */
                    _tx_thread_system_return();
70005bd4:	f7fa fc6c 	bl	700004b0 <_tx_thread_system_return>
                }

                /* Return to caller.  */
                return;
70005bd8:	e101      	b.n	70005dde <_tx_thread_system_suspend+0x38a>
            {

                /* Other threads at different priority levels are ready to run.  */

                /* Calculate the lowest bit set in the priority map. */
                TX_LOWEST_SET_BIT_CALCULATE(priority_map, priority_bit)
70005bda:	2300      	movs	r3, #0
70005bdc:	62bb      	str	r3, [r7, #40]	@ 0x28
70005bde:	6afb      	ldr	r3, [r7, #44]	@ 0x2c
70005be0:	425b      	negs	r3, r3
70005be2:	6afa      	ldr	r2, [r7, #44]	@ 0x2c
70005be4:	4013      	ands	r3, r2
70005be6:	62fb      	str	r3, [r7, #44]	@ 0x2c
70005be8:	6afb      	ldr	r3, [r7, #44]	@ 0x2c
70005bea:	2b0f      	cmp	r3, #15
70005bec:	d80e      	bhi.n	70005c0c <_tx_thread_system_suspend+0x1b8>
70005bee:	6afb      	ldr	r3, [r7, #44]	@ 0x2c
70005bf0:	2b03      	cmp	r3, #3
70005bf2:	d905      	bls.n	70005c00 <_tx_thread_system_suspend+0x1ac>
70005bf4:	6afb      	ldr	r3, [r7, #44]	@ 0x2c
70005bf6:	089b      	lsrs	r3, r3, #2
70005bf8:	62fb      	str	r3, [r7, #44]	@ 0x2c
70005bfa:	6abb      	ldr	r3, [r7, #40]	@ 0x28
70005bfc:	3302      	adds	r3, #2
70005bfe:	62bb      	str	r3, [r7, #40]	@ 0x28
70005c00:	6afb      	ldr	r3, [r7, #44]	@ 0x2c
70005c02:	085b      	lsrs	r3, r3, #1
70005c04:	6aba      	ldr	r2, [r7, #40]	@ 0x28
70005c06:	4413      	add	r3, r2
70005c08:	62bb      	str	r3, [r7, #40]	@ 0x28
70005c0a:	e06f      	b.n	70005cec <_tx_thread_system_suspend+0x298>
70005c0c:	6afb      	ldr	r3, [r7, #44]	@ 0x2c
70005c0e:	2bff      	cmp	r3, #255	@ 0xff
70005c10:	d814      	bhi.n	70005c3c <_tx_thread_system_suspend+0x1e8>
70005c12:	6afb      	ldr	r3, [r7, #44]	@ 0x2c
70005c14:	091b      	lsrs	r3, r3, #4
70005c16:	62fb      	str	r3, [r7, #44]	@ 0x2c
70005c18:	6abb      	ldr	r3, [r7, #40]	@ 0x28
70005c1a:	3304      	adds	r3, #4
70005c1c:	62bb      	str	r3, [r7, #40]	@ 0x28
70005c1e:	6afb      	ldr	r3, [r7, #44]	@ 0x2c
70005c20:	2b03      	cmp	r3, #3
70005c22:	d905      	bls.n	70005c30 <_tx_thread_system_suspend+0x1dc>
70005c24:	6afb      	ldr	r3, [r7, #44]	@ 0x2c
70005c26:	089b      	lsrs	r3, r3, #2
70005c28:	62fb      	str	r3, [r7, #44]	@ 0x2c
70005c2a:	6abb      	ldr	r3, [r7, #40]	@ 0x28
70005c2c:	3302      	adds	r3, #2
70005c2e:	62bb      	str	r3, [r7, #40]	@ 0x28
70005c30:	6afb      	ldr	r3, [r7, #44]	@ 0x2c
70005c32:	085b      	lsrs	r3, r3, #1
70005c34:	6aba      	ldr	r2, [r7, #40]	@ 0x28
70005c36:	4413      	add	r3, r2
70005c38:	62bb      	str	r3, [r7, #40]	@ 0x28
70005c3a:	e057      	b.n	70005cec <_tx_thread_system_suspend+0x298>
70005c3c:	6afb      	ldr	r3, [r7, #44]	@ 0x2c
70005c3e:	f5b3 3f80 	cmp.w	r3, #65536	@ 0x10000
70005c42:	d22d      	bcs.n	70005ca0 <_tx_thread_system_suspend+0x24c>
70005c44:	6afb      	ldr	r3, [r7, #44]	@ 0x2c
70005c46:	0a1b      	lsrs	r3, r3, #8
70005c48:	62fb      	str	r3, [r7, #44]	@ 0x2c
70005c4a:	6abb      	ldr	r3, [r7, #40]	@ 0x28
70005c4c:	3308      	adds	r3, #8
70005c4e:	62bb      	str	r3, [r7, #40]	@ 0x28
70005c50:	6afb      	ldr	r3, [r7, #44]	@ 0x2c
70005c52:	2b0f      	cmp	r3, #15
70005c54:	d905      	bls.n	70005c62 <_tx_thread_system_suspend+0x20e>
70005c56:	6afb      	ldr	r3, [r7, #44]	@ 0x2c
70005c58:	091b      	lsrs	r3, r3, #4
70005c5a:	62fb      	str	r3, [r7, #44]	@ 0x2c
70005c5c:	6abb      	ldr	r3, [r7, #40]	@ 0x28
70005c5e:	3304      	adds	r3, #4
70005c60:	62bb      	str	r3, [r7, #40]	@ 0x28
70005c62:	6afb      	ldr	r3, [r7, #44]	@ 0x2c
70005c64:	2b03      	cmp	r3, #3
70005c66:	d905      	bls.n	70005c74 <_tx_thread_system_suspend+0x220>
70005c68:	6afb      	ldr	r3, [r7, #44]	@ 0x2c
70005c6a:	089b      	lsrs	r3, r3, #2
70005c6c:	62fb      	str	r3, [r7, #44]	@ 0x2c
70005c6e:	6abb      	ldr	r3, [r7, #40]	@ 0x28
70005c70:	3302      	adds	r3, #2
70005c72:	62bb      	str	r3, [r7, #40]	@ 0x28
70005c74:	6afb      	ldr	r3, [r7, #44]	@ 0x2c
70005c76:	085b      	lsrs	r3, r3, #1
70005c78:	6aba      	ldr	r2, [r7, #40]	@ 0x28
70005c7a:	4413      	add	r3, r2
70005c7c:	62bb      	str	r3, [r7, #40]	@ 0x28
70005c7e:	e035      	b.n	70005cec <_tx_thread_system_suspend+0x298>
70005c80:	240083e0 	.word	0x240083e0
70005c84:	54485244 	.word	0x54485244
70005c88:	240089e8 	.word	0x240089e8
70005c8c:	24008478 	.word	0x24008478
70005c90:	240083f8 	.word	0x240083f8
70005c94:	240083f0 	.word	0x240083f0
70005c98:	240083f4 	.word	0x240083f4
70005c9c:	240083e4 	.word	0x240083e4
70005ca0:	6afb      	ldr	r3, [r7, #44]	@ 0x2c
70005ca2:	0c1b      	lsrs	r3, r3, #16
70005ca4:	62fb      	str	r3, [r7, #44]	@ 0x2c
70005ca6:	6abb      	ldr	r3, [r7, #40]	@ 0x28
70005ca8:	3310      	adds	r3, #16
70005caa:	62bb      	str	r3, [r7, #40]	@ 0x28
70005cac:	6afb      	ldr	r3, [r7, #44]	@ 0x2c
70005cae:	2bff      	cmp	r3, #255	@ 0xff
70005cb0:	d905      	bls.n	70005cbe <_tx_thread_system_suspend+0x26a>
70005cb2:	6afb      	ldr	r3, [r7, #44]	@ 0x2c
70005cb4:	0a1b      	lsrs	r3, r3, #8
70005cb6:	62fb      	str	r3, [r7, #44]	@ 0x2c
70005cb8:	6abb      	ldr	r3, [r7, #40]	@ 0x28
70005cba:	3308      	adds	r3, #8
70005cbc:	62bb      	str	r3, [r7, #40]	@ 0x28
70005cbe:	6afb      	ldr	r3, [r7, #44]	@ 0x2c
70005cc0:	2b0f      	cmp	r3, #15
70005cc2:	d905      	bls.n	70005cd0 <_tx_thread_system_suspend+0x27c>
70005cc4:	6afb      	ldr	r3, [r7, #44]	@ 0x2c
70005cc6:	091b      	lsrs	r3, r3, #4
70005cc8:	62fb      	str	r3, [r7, #44]	@ 0x2c
70005cca:	6abb      	ldr	r3, [r7, #40]	@ 0x28
70005ccc:	3304      	adds	r3, #4
70005cce:	62bb      	str	r3, [r7, #40]	@ 0x28
70005cd0:	6afb      	ldr	r3, [r7, #44]	@ 0x2c
70005cd2:	2b03      	cmp	r3, #3
70005cd4:	d905      	bls.n	70005ce2 <_tx_thread_system_suspend+0x28e>
70005cd6:	6afb      	ldr	r3, [r7, #44]	@ 0x2c
70005cd8:	089b      	lsrs	r3, r3, #2
70005cda:	62fb      	str	r3, [r7, #44]	@ 0x2c
70005cdc:	6abb      	ldr	r3, [r7, #40]	@ 0x28
70005cde:	3302      	adds	r3, #2
70005ce0:	62bb      	str	r3, [r7, #40]	@ 0x28
70005ce2:	6afb      	ldr	r3, [r7, #44]	@ 0x2c
70005ce4:	085b      	lsrs	r3, r3, #1
70005ce6:	6aba      	ldr	r2, [r7, #40]	@ 0x28
70005ce8:	4413      	add	r3, r2
70005cea:	62bb      	str	r3, [r7, #40]	@ 0x28

                /* Setup the next highest priority variable.  */
                _tx_thread_highest_priority =  base_priority + ((UINT) priority_bit);
70005cec:	697a      	ldr	r2, [r7, #20]
70005cee:	6abb      	ldr	r3, [r7, #40]	@ 0x28
70005cf0:	4413      	add	r3, r2
70005cf2:	4a3f      	ldr	r2, [pc, #252]	@ (70005df0 <_tx_thread_system_suspend+0x39c>)
70005cf4:	6013      	str	r3, [r2, #0]
            }
        }

        /* Determine if the suspending thread is the thread designated to execute.  */
        if (thread_ptr == _tx_thread_execute_ptr)
70005cf6:	4b3f      	ldr	r3, [pc, #252]	@ (70005df4 <_tx_thread_system_suspend+0x3a0>)
70005cf8:	681b      	ldr	r3, [r3, #0]
70005cfa:	687a      	ldr	r2, [r7, #4]
70005cfc:	429a      	cmp	r2, r3
70005cfe:	d112      	bne.n	70005d26 <_tx_thread_system_suspend+0x2d2>
        {

            /* Pickup the highest priority thread to execute.  */
            _tx_thread_execute_ptr =  _tx_thread_priority_list[_tx_thread_highest_priority];
70005d00:	4b3b      	ldr	r3, [pc, #236]	@ (70005df0 <_tx_thread_system_suspend+0x39c>)
70005d02:	681b      	ldr	r3, [r3, #0]
70005d04:	4a3c      	ldr	r2, [pc, #240]	@ (70005df8 <_tx_thread_system_suspend+0x3a4>)
70005d06:	f852 3023 	ldr.w	r3, [r2, r3, lsl #2]
70005d0a:	4a3a      	ldr	r2, [pc, #232]	@ (70005df4 <_tx_thread_system_suspend+0x3a0>)
70005d0c:	6013      	str	r3, [r2, #0]
                }
            }
#endif

            /* Restore interrupts.  */
            TX_RESTORE
70005d0e:	4620      	mov	r0, r4
70005d10:	f7fa fb36 	bl	70000380 <_tx_thread_interrupt_restore>

            /* Determine if preemption should take place. This is only possible if the current thread pointer is
               not the same as the execute thread pointer AND the system state and preempt disable flags are clear.  */
            TX_THREAD_SYSTEM_RETURN_CHECK(combined_flags)
70005d14:	4b39      	ldr	r3, [pc, #228]	@ (70005dfc <_tx_thread_system_suspend+0x3a8>)
70005d16:	681b      	ldr	r3, [r3, #0]
70005d18:	613b      	str	r3, [r7, #16]
            if (combined_flags == ((ULONG) 0))
70005d1a:	693b      	ldr	r3, [r7, #16]
70005d1c:	2b00      	cmp	r3, #0
70005d1e:	d160      	bne.n	70005de2 <_tx_thread_system_suspend+0x38e>
                /* No, there is another thread ready to run and will be scheduled upon return.  */
                _tx_thread_performance_non_idle_return_count++;
#endif

                /* Preemption is needed - return to the system!  */
                _tx_thread_system_return();
70005d20:	f7fa fbc6 	bl	700004b0 <_tx_thread_system_return>
            }

            /* Return to caller.  */
            return;
70005d24:	e05d      	b.n	70005de2 <_tx_thread_system_suspend+0x38e>
        }
#endif
    }

    /* Restore interrupts.  */
    TX_RESTORE
70005d26:	4620      	mov	r0, r4
70005d28:	f7fa fb2a 	bl	70000380 <_tx_thread_interrupt_restore>

    /* Determine if a preemption condition is present.  */
    if (current_thread != _tx_thread_execute_ptr)
70005d2c:	4b31      	ldr	r3, [pc, #196]	@ (70005df4 <_tx_thread_system_suspend+0x3a0>)
70005d2e:	681b      	ldr	r3, [r3, #0]
70005d30:	6a7a      	ldr	r2, [r7, #36]	@ 0x24
70005d32:	429a      	cmp	r2, r3
70005d34:	d057      	beq.n	70005de6 <_tx_thread_system_suspend+0x392>
    {

#ifdef TX_ENABLE_STACK_CHECKING

        /* Pickup the next execute pointer.  */
        thread_ptr =  _tx_thread_execute_ptr;
70005d36:	4b2f      	ldr	r3, [pc, #188]	@ (70005df4 <_tx_thread_system_suspend+0x3a0>)
70005d38:	681b      	ldr	r3, [r3, #0]
70005d3a:	607b      	str	r3, [r7, #4]

        /* Check this thread's stack.  */
        TX_THREAD_STACK_CHECK(thread_ptr)
70005d3c:	f7fa fb18 	bl	70000370 <_tx_thread_interrupt_disable>
70005d40:	4604      	mov	r4, r0
70005d42:	687b      	ldr	r3, [r7, #4]
70005d44:	2b00      	cmp	r3, #0
70005d46:	d03e      	beq.n	70005dc6 <_tx_thread_system_suspend+0x372>
70005d48:	687b      	ldr	r3, [r7, #4]
70005d4a:	681b      	ldr	r3, [r3, #0]
70005d4c:	4a2c      	ldr	r2, [pc, #176]	@ (70005e00 <_tx_thread_system_suspend+0x3ac>)
70005d4e:	4293      	cmp	r3, r2
70005d50:	d139      	bne.n	70005dc6 <_tx_thread_system_suspend+0x372>
70005d52:	687b      	ldr	r3, [r7, #4]
70005d54:	689a      	ldr	r2, [r3, #8]
70005d56:	687b      	ldr	r3, [r7, #4]
70005d58:	f8d3 30a8 	ldr.w	r3, [r3, #168]	@ 0xa8
70005d5c:	429a      	cmp	r2, r3
70005d5e:	d204      	bcs.n	70005d6a <_tx_thread_system_suspend+0x316>
70005d60:	687b      	ldr	r3, [r7, #4]
70005d62:	689a      	ldr	r2, [r3, #8]
70005d64:	687b      	ldr	r3, [r7, #4]
70005d66:	f8c3 20a8 	str.w	r2, [r3, #168]	@ 0xa8
70005d6a:	687b      	ldr	r3, [r7, #4]
70005d6c:	68db      	ldr	r3, [r3, #12]
70005d6e:	681b      	ldr	r3, [r3, #0]
70005d70:	f1b3 3fef 	cmp.w	r3, #4025479151	@ 0xefefefef
70005d74:	d10d      	bne.n	70005d92 <_tx_thread_system_suspend+0x33e>
70005d76:	687b      	ldr	r3, [r7, #4]
70005d78:	691b      	ldr	r3, [r3, #16]
70005d7a:	3301      	adds	r3, #1
70005d7c:	681b      	ldr	r3, [r3, #0]
70005d7e:	f1b3 3fef 	cmp.w	r3, #4025479151	@ 0xefefefef
70005d82:	d106      	bne.n	70005d92 <_tx_thread_system_suspend+0x33e>
70005d84:	687b      	ldr	r3, [r7, #4]
70005d86:	f8d3 20a8 	ldr.w	r2, [r3, #168]	@ 0xa8
70005d8a:	687b      	ldr	r3, [r7, #4]
70005d8c:	68db      	ldr	r3, [r3, #12]
70005d8e:	429a      	cmp	r2, r3
70005d90:	d208      	bcs.n	70005da4 <_tx_thread_system_suspend+0x350>
70005d92:	4620      	mov	r0, r4
70005d94:	f7fa faf4 	bl	70000380 <_tx_thread_interrupt_restore>
70005d98:	6878      	ldr	r0, [r7, #4]
70005d9a:	f7ff fc27 	bl	700055ec <_tx_thread_stack_error_handler>
70005d9e:	f7fa fae7 	bl	70000370 <_tx_thread_interrupt_disable>
70005da2:	4604      	mov	r4, r0
70005da4:	687b      	ldr	r3, [r7, #4]
70005da6:	f8d3 30a8 	ldr.w	r3, [r3, #168]	@ 0xa8
70005daa:	3b04      	subs	r3, #4
70005dac:	681b      	ldr	r3, [r3, #0]
70005dae:	f1b3 3fef 	cmp.w	r3, #4025479151	@ 0xefefefef
70005db2:	d008      	beq.n	70005dc6 <_tx_thread_system_suspend+0x372>
70005db4:	4620      	mov	r0, r4
70005db6:	f7fa fae3 	bl	70000380 <_tx_thread_interrupt_restore>
70005dba:	6878      	ldr	r0, [r7, #4]
70005dbc:	f7ff fbb0 	bl	70005520 <_tx_thread_stack_analyze>
70005dc0:	f7fa fad6 	bl	70000370 <_tx_thread_interrupt_disable>
70005dc4:	4604      	mov	r4, r0
70005dc6:	4620      	mov	r0, r4
70005dc8:	f7fa fada 	bl	70000380 <_tx_thread_interrupt_restore>
#endif

        /* Determine if preemption should take place. This is only possible if the current thread pointer is
           not the same as the execute thread pointer AND the system state and preempt disable flags are clear.  */
        TX_THREAD_SYSTEM_RETURN_CHECK(combined_flags)
70005dcc:	4b0b      	ldr	r3, [pc, #44]	@ (70005dfc <_tx_thread_system_suspend+0x3a8>)
70005dce:	681b      	ldr	r3, [r3, #0]
70005dd0:	613b      	str	r3, [r7, #16]
        if (combined_flags == ((ULONG) 0))
70005dd2:	693b      	ldr	r3, [r7, #16]
70005dd4:	2b00      	cmp	r3, #0
70005dd6:	d106      	bne.n	70005de6 <_tx_thread_system_suspend+0x392>
                _tx_thread_performance_non_idle_return_count++;
            }
#endif

            /* Preemption is needed - return to the system!  */
            _tx_thread_system_return();
70005dd8:	f7fa fb6a 	bl	700004b0 <_tx_thread_system_return>
        }
    }

    /* Return to caller.  */
    return;
70005ddc:	e003      	b.n	70005de6 <_tx_thread_system_suspend+0x392>
                return;
70005dde:	bf00      	nop
70005de0:	e002      	b.n	70005de8 <_tx_thread_system_suspend+0x394>
            return;
70005de2:	bf00      	nop
70005de4:	e000      	b.n	70005de8 <_tx_thread_system_suspend+0x394>
    return;
70005de6:	bf00      	nop
}
70005de8:	3734      	adds	r7, #52	@ 0x34
70005dea:	46bd      	mov	sp, r7
70005dec:	bd90      	pop	{r4, r7, pc}
70005dee:	bf00      	nop
70005df0:	240083f4 	.word	0x240083f4
70005df4:	240083e4 	.word	0x240083e4
70005df8:	240083f8 	.word	0x240083f8
70005dfc:	24008478 	.word	0x24008478
70005e00:	54485244 	.word	0x54485244

70005e04 <_tx_thread_time_slice>:
/*                                            TX_NO_TIMER is defined,     */
/*                                            resulting in version 6.1    */
/*                                                                        */
/**************************************************************************/
VOID  _tx_thread_time_slice(VOID)
{
70005e04:	b590      	push	{r4, r7, lr}
70005e06:	b083      	sub	sp, #12
70005e08:	af00      	add	r7, sp, #0
ULONG           system_state;
UINT            preempt_disable;
#endif

    /* Pickup thread pointer.  */
    TX_THREAD_GET_CURRENT(thread_ptr)
70005e0a:	4b68      	ldr	r3, [pc, #416]	@ (70005fac <_tx_thread_time_slice+0x1a8>)
70005e0c:	681b      	ldr	r3, [r3, #0]
70005e0e:	603b      	str	r3, [r7, #0]

#ifdef TX_ENABLE_STACK_CHECKING

    /* Check this thread's stack.  */
    TX_THREAD_STACK_CHECK(thread_ptr)
70005e10:	f7fa faae 	bl	70000370 <_tx_thread_interrupt_disable>
70005e14:	4604      	mov	r4, r0
70005e16:	683b      	ldr	r3, [r7, #0]
70005e18:	2b00      	cmp	r3, #0
70005e1a:	d03e      	beq.n	70005e9a <_tx_thread_time_slice+0x96>
70005e1c:	683b      	ldr	r3, [r7, #0]
70005e1e:	681b      	ldr	r3, [r3, #0]
70005e20:	4a63      	ldr	r2, [pc, #396]	@ (70005fb0 <_tx_thread_time_slice+0x1ac>)
70005e22:	4293      	cmp	r3, r2
70005e24:	d139      	bne.n	70005e9a <_tx_thread_time_slice+0x96>
70005e26:	683b      	ldr	r3, [r7, #0]
70005e28:	689a      	ldr	r2, [r3, #8]
70005e2a:	683b      	ldr	r3, [r7, #0]
70005e2c:	f8d3 30a8 	ldr.w	r3, [r3, #168]	@ 0xa8
70005e30:	429a      	cmp	r2, r3
70005e32:	d204      	bcs.n	70005e3e <_tx_thread_time_slice+0x3a>
70005e34:	683b      	ldr	r3, [r7, #0]
70005e36:	689a      	ldr	r2, [r3, #8]
70005e38:	683b      	ldr	r3, [r7, #0]
70005e3a:	f8c3 20a8 	str.w	r2, [r3, #168]	@ 0xa8
70005e3e:	683b      	ldr	r3, [r7, #0]
70005e40:	68db      	ldr	r3, [r3, #12]
70005e42:	681b      	ldr	r3, [r3, #0]
70005e44:	f1b3 3fef 	cmp.w	r3, #4025479151	@ 0xefefefef
70005e48:	d10d      	bne.n	70005e66 <_tx_thread_time_slice+0x62>
70005e4a:	683b      	ldr	r3, [r7, #0]
70005e4c:	691b      	ldr	r3, [r3, #16]
70005e4e:	3301      	adds	r3, #1
70005e50:	681b      	ldr	r3, [r3, #0]
70005e52:	f1b3 3fef 	cmp.w	r3, #4025479151	@ 0xefefefef
70005e56:	d106      	bne.n	70005e66 <_tx_thread_time_slice+0x62>
70005e58:	683b      	ldr	r3, [r7, #0]
70005e5a:	f8d3 20a8 	ldr.w	r2, [r3, #168]	@ 0xa8
70005e5e:	683b      	ldr	r3, [r7, #0]
70005e60:	68db      	ldr	r3, [r3, #12]
70005e62:	429a      	cmp	r2, r3
70005e64:	d208      	bcs.n	70005e78 <_tx_thread_time_slice+0x74>
70005e66:	4620      	mov	r0, r4
70005e68:	f7fa fa8a 	bl	70000380 <_tx_thread_interrupt_restore>
70005e6c:	6838      	ldr	r0, [r7, #0]
70005e6e:	f7ff fbbd 	bl	700055ec <_tx_thread_stack_error_handler>
70005e72:	f7fa fa7d 	bl	70000370 <_tx_thread_interrupt_disable>
70005e76:	4604      	mov	r4, r0
70005e78:	683b      	ldr	r3, [r7, #0]
70005e7a:	f8d3 30a8 	ldr.w	r3, [r3, #168]	@ 0xa8
70005e7e:	3b04      	subs	r3, #4
70005e80:	681b      	ldr	r3, [r3, #0]
70005e82:	f1b3 3fef 	cmp.w	r3, #4025479151	@ 0xefefefef
70005e86:	d008      	beq.n	70005e9a <_tx_thread_time_slice+0x96>
70005e88:	4620      	mov	r0, r4
70005e8a:	f7fa fa79 	bl	70000380 <_tx_thread_interrupt_restore>
70005e8e:	6838      	ldr	r0, [r7, #0]
70005e90:	f7ff fb46 	bl	70005520 <_tx_thread_stack_analyze>
70005e94:	f7fa fa6c 	bl	70000370 <_tx_thread_interrupt_disable>
70005e98:	4604      	mov	r4, r0
70005e9a:	4620      	mov	r0, r4
70005e9c:	f7fa fa70 	bl	70000380 <_tx_thread_interrupt_restore>

    /* Set the next thread pointer to NULL.  */
    next_thread_ptr =  TX_NULL;
70005ea0:	2300      	movs	r3, #0
70005ea2:	607b      	str	r3, [r7, #4]
#endif

    /* Lockout interrupts while the time-slice is evaluated.  */
    TX_DISABLE
70005ea4:	f7fa fa64 	bl	70000370 <_tx_thread_interrupt_disable>
70005ea8:	4604      	mov	r4, r0

    /* Clear the expired time-slice flag.  */
    _tx_timer_expired_time_slice =  TX_FALSE;
70005eaa:	4b42      	ldr	r3, [pc, #264]	@ (70005fb4 <_tx_thread_time_slice+0x1b0>)
70005eac:	2200      	movs	r2, #0
70005eae:	601a      	str	r2, [r3, #0]

    /* Make sure the thread pointer is valid.  */
    if (thread_ptr != TX_NULL)
70005eb0:	683b      	ldr	r3, [r7, #0]
70005eb2:	2b00      	cmp	r3, #0
70005eb4:	d027      	beq.n	70005f06 <_tx_thread_time_slice+0x102>
    {

        /* Make sure the thread is still active, i.e. not suspended.  */
        if (thread_ptr -> tx_thread_state == TX_READY)
70005eb6:	683b      	ldr	r3, [r7, #0]
70005eb8:	6b1b      	ldr	r3, [r3, #48]	@ 0x30
70005eba:	2b00      	cmp	r3, #0
70005ebc:	d123      	bne.n	70005f06 <_tx_thread_time_slice+0x102>
        {

            /* Setup a fresh time-slice for the thread.  */
            thread_ptr -> tx_thread_time_slice =  thread_ptr -> tx_thread_new_time_slice;
70005ebe:	683b      	ldr	r3, [r7, #0]
70005ec0:	69da      	ldr	r2, [r3, #28]
70005ec2:	683b      	ldr	r3, [r7, #0]
70005ec4:	619a      	str	r2, [r3, #24]

            /* Reset the actual time-slice variable.  */
            _tx_timer_time_slice =  thread_ptr -> tx_thread_time_slice;
70005ec6:	683b      	ldr	r3, [r7, #0]
70005ec8:	699b      	ldr	r3, [r3, #24]
70005eca:	4a3b      	ldr	r2, [pc, #236]	@ (70005fb8 <_tx_thread_time_slice+0x1b4>)
70005ecc:	6013      	str	r3, [r2, #0]

            /* Determine if there is another thread at the same priority and preemption-threshold
               is not set.  Preemption-threshold overrides time-slicing.  */
            if (thread_ptr -> tx_thread_ready_next != thread_ptr)
70005ece:	683b      	ldr	r3, [r7, #0]
70005ed0:	6a1b      	ldr	r3, [r3, #32]
70005ed2:	683a      	ldr	r2, [r7, #0]
70005ed4:	429a      	cmp	r2, r3
70005ed6:	d016      	beq.n	70005f06 <_tx_thread_time_slice+0x102>
            {

                /* Check to see if preemption-threshold is not being used.  */
                if (thread_ptr -> tx_thread_priority == thread_ptr -> tx_thread_preempt_threshold)
70005ed8:	683b      	ldr	r3, [r7, #0]
70005eda:	6ada      	ldr	r2, [r3, #44]	@ 0x2c
70005edc:	683b      	ldr	r3, [r7, #0]
70005ede:	6bdb      	ldr	r3, [r3, #60]	@ 0x3c
70005ee0:	429a      	cmp	r2, r3
70005ee2:	d110      	bne.n	70005f06 <_tx_thread_time_slice+0x102>

                    /* Preemption-threshold is not being used by this thread.  */

                    /* There is another thread at this priority, make it the highest at
                       this priority level.  */
                    _tx_thread_priority_list[thread_ptr -> tx_thread_priority] =  thread_ptr -> tx_thread_ready_next;
70005ee4:	683b      	ldr	r3, [r7, #0]
70005ee6:	6adb      	ldr	r3, [r3, #44]	@ 0x2c
70005ee8:	683a      	ldr	r2, [r7, #0]
70005eea:	6a12      	ldr	r2, [r2, #32]
70005eec:	4933      	ldr	r1, [pc, #204]	@ (70005fbc <_tx_thread_time_slice+0x1b8>)
70005eee:	f841 2023 	str.w	r2, [r1, r3, lsl #2]

                    /* Designate the highest priority thread as the one to execute.  Don't use this
                       thread's priority as an index just in case a higher priority thread is now
                       ready!  */
                    _tx_thread_execute_ptr =  _tx_thread_priority_list[_tx_thread_highest_priority];
70005ef2:	4b33      	ldr	r3, [pc, #204]	@ (70005fc0 <_tx_thread_time_slice+0x1bc>)
70005ef4:	681b      	ldr	r3, [r3, #0]
70005ef6:	4a31      	ldr	r2, [pc, #196]	@ (70005fbc <_tx_thread_time_slice+0x1b8>)
70005ef8:	f852 3023 	ldr.w	r3, [r2, r3, lsl #2]
70005efc:	4a31      	ldr	r2, [pc, #196]	@ (70005fc4 <_tx_thread_time_slice+0x1c0>)
70005efe:	6013      	str	r3, [r2, #0]


#ifdef TX_ENABLE_STACK_CHECKING

                    /* Pickup the next execute pointer.  */
                    next_thread_ptr =  _tx_thread_execute_ptr;
70005f00:	4b30      	ldr	r3, [pc, #192]	@ (70005fc4 <_tx_thread_time_slice+0x1c0>)
70005f02:	681b      	ldr	r3, [r3, #0]
70005f04:	607b      	str	r3, [r7, #4]
    /* Insert this event into the trace buffer.  */
    TX_TRACE_IN_LINE_INSERT(TX_TRACE_TIME_SLICE, _tx_thread_execute_ptr, system_state, preempt_disable, TX_POINTER_TO_ULONG_CONVERT(&thread_ptr), TX_TRACE_INTERNAL_EVENTS)
#endif

    /* Restore previous interrupt posture.  */
    TX_RESTORE
70005f06:	4620      	mov	r0, r4
70005f08:	f7fa fa3a 	bl	70000380 <_tx_thread_interrupt_restore>

#ifdef TX_ENABLE_STACK_CHECKING

    /* Determine if there is a next thread pointer to perform stack checking on.  */
    if (next_thread_ptr != TX_NULL)
70005f0c:	687b      	ldr	r3, [r7, #4]
70005f0e:	2b00      	cmp	r3, #0
70005f10:	d047      	beq.n	70005fa2 <_tx_thread_time_slice+0x19e>
    {

        /* Yes, check this thread's stack.  */
        TX_THREAD_STACK_CHECK(next_thread_ptr)
70005f12:	f7fa fa2d 	bl	70000370 <_tx_thread_interrupt_disable>
70005f16:	4604      	mov	r4, r0
70005f18:	687b      	ldr	r3, [r7, #4]
70005f1a:	2b00      	cmp	r3, #0
70005f1c:	d03e      	beq.n	70005f9c <_tx_thread_time_slice+0x198>
70005f1e:	687b      	ldr	r3, [r7, #4]
70005f20:	681b      	ldr	r3, [r3, #0]
70005f22:	4a23      	ldr	r2, [pc, #140]	@ (70005fb0 <_tx_thread_time_slice+0x1ac>)
70005f24:	4293      	cmp	r3, r2
70005f26:	d139      	bne.n	70005f9c <_tx_thread_time_slice+0x198>
70005f28:	687b      	ldr	r3, [r7, #4]
70005f2a:	689a      	ldr	r2, [r3, #8]
70005f2c:	687b      	ldr	r3, [r7, #4]
70005f2e:	f8d3 30a8 	ldr.w	r3, [r3, #168]	@ 0xa8
70005f32:	429a      	cmp	r2, r3
70005f34:	d204      	bcs.n	70005f40 <_tx_thread_time_slice+0x13c>
70005f36:	687b      	ldr	r3, [r7, #4]
70005f38:	689a      	ldr	r2, [r3, #8]
70005f3a:	687b      	ldr	r3, [r7, #4]
70005f3c:	f8c3 20a8 	str.w	r2, [r3, #168]	@ 0xa8
70005f40:	687b      	ldr	r3, [r7, #4]
70005f42:	68db      	ldr	r3, [r3, #12]
70005f44:	681b      	ldr	r3, [r3, #0]
70005f46:	f1b3 3fef 	cmp.w	r3, #4025479151	@ 0xefefefef
70005f4a:	d10d      	bne.n	70005f68 <_tx_thread_time_slice+0x164>
70005f4c:	687b      	ldr	r3, [r7, #4]
70005f4e:	691b      	ldr	r3, [r3, #16]
70005f50:	3301      	adds	r3, #1
70005f52:	681b      	ldr	r3, [r3, #0]
70005f54:	f1b3 3fef 	cmp.w	r3, #4025479151	@ 0xefefefef
70005f58:	d106      	bne.n	70005f68 <_tx_thread_time_slice+0x164>
70005f5a:	687b      	ldr	r3, [r7, #4]
70005f5c:	f8d3 20a8 	ldr.w	r2, [r3, #168]	@ 0xa8
70005f60:	687b      	ldr	r3, [r7, #4]
70005f62:	68db      	ldr	r3, [r3, #12]
70005f64:	429a      	cmp	r2, r3
70005f66:	d208      	bcs.n	70005f7a <_tx_thread_time_slice+0x176>
70005f68:	4620      	mov	r0, r4
70005f6a:	f7fa fa09 	bl	70000380 <_tx_thread_interrupt_restore>
70005f6e:	6878      	ldr	r0, [r7, #4]
70005f70:	f7ff fb3c 	bl	700055ec <_tx_thread_stack_error_handler>
70005f74:	f7fa f9fc 	bl	70000370 <_tx_thread_interrupt_disable>
70005f78:	4604      	mov	r4, r0
70005f7a:	687b      	ldr	r3, [r7, #4]
70005f7c:	f8d3 30a8 	ldr.w	r3, [r3, #168]	@ 0xa8
70005f80:	3b04      	subs	r3, #4
70005f82:	681b      	ldr	r3, [r3, #0]
70005f84:	f1b3 3fef 	cmp.w	r3, #4025479151	@ 0xefefefef
70005f88:	d008      	beq.n	70005f9c <_tx_thread_time_slice+0x198>
70005f8a:	4620      	mov	r0, r4
70005f8c:	f7fa f9f8 	bl	70000380 <_tx_thread_interrupt_restore>
70005f90:	6878      	ldr	r0, [r7, #4]
70005f92:	f7ff fac5 	bl	70005520 <_tx_thread_stack_analyze>
70005f96:	f7fa f9eb 	bl	70000370 <_tx_thread_interrupt_disable>
70005f9a:	4604      	mov	r4, r0
70005f9c:	4620      	mov	r0, r4
70005f9e:	f7fa f9ef 	bl	70000380 <_tx_thread_interrupt_restore>
    }
#endif
}
70005fa2:	bf00      	nop
70005fa4:	370c      	adds	r7, #12
70005fa6:	46bd      	mov	sp, r7
70005fa8:	bd90      	pop	{r4, r7, pc}
70005faa:	bf00      	nop
70005fac:	240083e0 	.word	0x240083e0
70005fb0:	54485244 	.word	0x54485244
70005fb4:	2400848c 	.word	0x2400848c
70005fb8:	240089e8 	.word	0x240089e8
70005fbc:	240083f8 	.word	0x240083f8
70005fc0:	240083f4 	.word	0x240083f4
70005fc4:	240083e4 	.word	0x240083e4

70005fc8 <_tx_thread_timeout>:
/*  09-30-2020     Yuxin Zhou               Modified comment(s),          */
/*                                            resulting in version 6.1    */
/*                                                                        */
/**************************************************************************/
VOID  _tx_thread_timeout(ULONG timeout_input)
{
70005fc8:	b590      	push	{r4, r7, lr}
70005fca:	b087      	sub	sp, #28
70005fcc:	af00      	add	r7, sp, #0
70005fce:	6078      	str	r0, [r7, #4]
VOID            (*suspend_cleanup)(struct TX_THREAD_STRUCT *suspend_thread_ptr, ULONG suspension_sequence);
ULONG           suspension_sequence;


    /* Pickup the thread pointer.  */
    TX_THREAD_TIMEOUT_POINTER_SETUP(thread_ptr)
70005fd0:	687b      	ldr	r3, [r7, #4]
70005fd2:	617b      	str	r3, [r7, #20]

    /* Disable interrupts.  */
    TX_DISABLE
70005fd4:	f7fa f9cc 	bl	70000370 <_tx_thread_interrupt_disable>
70005fd8:	4604      	mov	r4, r0

    /* Determine how the thread is currently suspended.  */
    if (thread_ptr -> tx_thread_state == TX_SLEEP)
70005fda:	697b      	ldr	r3, [r7, #20]
70005fdc:	6b1b      	ldr	r3, [r3, #48]	@ 0x30
70005fde:	2b04      	cmp	r3, #4
70005fe0:	d10b      	bne.n	70005ffa <_tx_thread_timeout+0x32>
        /* Restore interrupts.  */
        TX_RESTORE
#else

        /* Increment the disable preemption flag.  */
        _tx_thread_preempt_disable++;
70005fe2:	4b10      	ldr	r3, [pc, #64]	@ (70006024 <_tx_thread_timeout+0x5c>)
70005fe4:	681b      	ldr	r3, [r3, #0]
70005fe6:	3301      	adds	r3, #1
70005fe8:	4a0e      	ldr	r2, [pc, #56]	@ (70006024 <_tx_thread_timeout+0x5c>)
70005fea:	6013      	str	r3, [r2, #0]

        /* Restore interrupts.  */
        TX_RESTORE
70005fec:	4620      	mov	r0, r4
70005fee:	f7fa f9c7 	bl	70000380 <_tx_thread_interrupt_restore>

        /* Lift the suspension on the sleeping thread.  */
        _tx_thread_system_resume(thread_ptr);
70005ff2:	6978      	ldr	r0, [r7, #20]
70005ff4:	f7ff fb7c 	bl	700056f0 <_tx_thread_system_resume>

        /* Restore interrupts.  */
        TX_RESTORE
#endif
    }
}
70005ff8:	e010      	b.n	7000601c <_tx_thread_timeout+0x54>
        suspend_cleanup =  thread_ptr -> tx_thread_suspend_cleanup;
70005ffa:	697b      	ldr	r3, [r7, #20]
70005ffc:	6e9b      	ldr	r3, [r3, #104]	@ 0x68
70005ffe:	613b      	str	r3, [r7, #16]
        suspension_sequence =  thread_ptr -> tx_thread_suspension_sequence;
70006000:	697b      	ldr	r3, [r7, #20]
70006002:	f8d3 30ac 	ldr.w	r3, [r3, #172]	@ 0xac
70006006:	60fb      	str	r3, [r7, #12]
        TX_RESTORE
70006008:	4620      	mov	r0, r4
7000600a:	f7fa f9b9 	bl	70000380 <_tx_thread_interrupt_restore>
        if (suspend_cleanup != TX_NULL)
7000600e:	693b      	ldr	r3, [r7, #16]
70006010:	2b00      	cmp	r3, #0
70006012:	d003      	beq.n	7000601c <_tx_thread_timeout+0x54>
            (suspend_cleanup)(thread_ptr, suspension_sequence);
70006014:	693b      	ldr	r3, [r7, #16]
70006016:	68f9      	ldr	r1, [r7, #12]
70006018:	6978      	ldr	r0, [r7, #20]
7000601a:	4798      	blx	r3
}
7000601c:	bf00      	nop
7000601e:	371c      	adds	r7, #28
70006020:	46bd      	mov	sp, r7
70006022:	bd90      	pop	{r4, r7, pc}
70006024:	24008478 	.word	0x24008478

70006028 <_tx_timer_expiration_process>:
/*                                            TX_NO_TIMER is defined,     */
/*                                            resulting in version 6.1    */
/*                                                                        */
/**************************************************************************/
VOID  _tx_timer_expiration_process(VOID)
{
70006028:	b598      	push	{r3, r4, r7, lr}
7000602a:	af00      	add	r7, sp, #0

    /* Don't process in the ISR, wakeup the system timer thread to process the
       timer expiration.  */

    /* Disable interrupts.  */
    TX_DISABLE
7000602c:	f7fa f9a0 	bl	70000370 <_tx_thread_interrupt_disable>
70006030:	4604      	mov	r4, r0
    /* Restore interrupts.  */
    TX_RESTORE
#else

    /* Increment the preempt disable flag.  */
    _tx_thread_preempt_disable++;
70006032:	4b06      	ldr	r3, [pc, #24]	@ (7000604c <_tx_timer_expiration_process+0x24>)
70006034:	681b      	ldr	r3, [r3, #0]
70006036:	3301      	adds	r3, #1
70006038:	4a04      	ldr	r2, [pc, #16]	@ (7000604c <_tx_timer_expiration_process+0x24>)
7000603a:	6013      	str	r3, [r2, #0]

    /* Restore interrupts.  */
    TX_RESTORE
7000603c:	4620      	mov	r0, r4
7000603e:	f7fa f99f 	bl	70000380 <_tx_thread_interrupt_restore>

    /* Call the system resume function to activate the timer thread.  */
    _tx_thread_system_resume(&_tx_timer_thread);
70006042:	4803      	ldr	r0, [pc, #12]	@ (70006050 <_tx_timer_expiration_process+0x28>)
70006044:	f7ff fb54 	bl	700056f0 <_tx_thread_system_resume>
    }

    /* Restore interrupts.  */
    TX_RESTORE
#endif
}
70006048:	bf00      	nop
7000604a:	bd98      	pop	{r3, r4, r7, pc}
7000604c:	24008478 	.word	0x24008478
70006050:	2400852c 	.word	0x2400852c

70006054 <_tx_timer_initialize>:
/*  09-30-2020     Yuxin Zhou               Modified comment(s),          */
/*                                            resulting in version 6.1    */
/*                                                                        */
/**************************************************************************/
VOID  _tx_timer_initialize(VOID)
{
70006054:	b590      	push	{r4, r7, lr}
70006056:	b089      	sub	sp, #36	@ 0x24
70006058:	af06      	add	r7, sp, #24
#endif

#ifndef TX_DISABLE_REDUNDANT_CLEARING

    /* Initialize the system clock to 0.  */
    _tx_timer_system_clock =  ((ULONG) 0);
7000605a:	4b28      	ldr	r3, [pc, #160]	@ (700060fc <_tx_timer_initialize+0xa8>)
7000605c:	2200      	movs	r2, #0
7000605e:	601a      	str	r2, [r3, #0]

    /* Initialize the time-slice value to 0 to make sure it is disabled.  */
    _tx_timer_time_slice =  ((ULONG) 0);
70006060:	4b27      	ldr	r3, [pc, #156]	@ (70006100 <_tx_timer_initialize+0xac>)
70006062:	2200      	movs	r2, #0
70006064:	601a      	str	r2, [r3, #0]

    /* Clear the expired flags.  */
    _tx_timer_expired_time_slice =  TX_FALSE;
70006066:	4b27      	ldr	r3, [pc, #156]	@ (70006104 <_tx_timer_initialize+0xb0>)
70006068:	2200      	movs	r2, #0
7000606a:	601a      	str	r2, [r3, #0]
    _tx_timer_expired =             TX_FALSE;
7000606c:	4b26      	ldr	r3, [pc, #152]	@ (70006108 <_tx_timer_initialize+0xb4>)
7000606e:	2200      	movs	r2, #0
70006070:	601a      	str	r2, [r3, #0]

    /* Set the currently expired timer being processed pointer to NULL.  */
    _tx_timer_expired_timer_ptr =  TX_NULL;
70006072:	4b26      	ldr	r3, [pc, #152]	@ (7000610c <_tx_timer_initialize+0xb8>)
70006074:	2200      	movs	r2, #0
70006076:	601a      	str	r2, [r3, #0]

    /* Initialize the thread and application timer management control structures.  */

    /* First, initialize the timer list.  */
    TX_MEMSET(&_tx_timer_list[0], 0, (sizeof(_tx_timer_list)));
70006078:	2280      	movs	r2, #128	@ 0x80
7000607a:	2100      	movs	r1, #0
7000607c:	4824      	ldr	r0, [pc, #144]	@ (70006110 <_tx_timer_initialize+0xbc>)
7000607e:	f000 fb4b 	bl	70006718 <memset>
#endif

    /* Initialize all of the list pointers.  */
    _tx_timer_list_start =   &_tx_timer_list[0];
70006082:	4b24      	ldr	r3, [pc, #144]	@ (70006114 <_tx_timer_initialize+0xc0>)
70006084:	4a22      	ldr	r2, [pc, #136]	@ (70006110 <_tx_timer_initialize+0xbc>)
70006086:	601a      	str	r2, [r3, #0]
    _tx_timer_current_ptr =  &_tx_timer_list[0];
70006088:	4b23      	ldr	r3, [pc, #140]	@ (70006118 <_tx_timer_initialize+0xc4>)
7000608a:	4a21      	ldr	r2, [pc, #132]	@ (70006110 <_tx_timer_initialize+0xbc>)
7000608c:	601a      	str	r2, [r3, #0]

    /* Set the timer list end pointer to one past the actual timer list.  This is done
       to make the timer interrupt handling in assembly language a little easier.  */
    _tx_timer_list_end =     &_tx_timer_list[TX_TIMER_ENTRIES-((ULONG) 1)];
7000608e:	4b23      	ldr	r3, [pc, #140]	@ (7000611c <_tx_timer_initialize+0xc8>)
70006090:	4a23      	ldr	r2, [pc, #140]	@ (70006120 <_tx_timer_initialize+0xcc>)
70006092:	601a      	str	r2, [r3, #0]
    _tx_timer_list_end =     TX_TIMER_POINTER_ADD(_tx_timer_list_end, ((ULONG) 1));
70006094:	4b21      	ldr	r3, [pc, #132]	@ (7000611c <_tx_timer_initialize+0xc8>)
70006096:	681b      	ldr	r3, [r3, #0]
70006098:	3304      	adds	r3, #4
7000609a:	4a20      	ldr	r2, [pc, #128]	@ (7000611c <_tx_timer_initialize+0xc8>)
7000609c:	6013      	str	r3, [r2, #0]

#ifndef TX_TIMER_PROCESS_IN_ISR

    /* Setup the variables associated with the system timer thread's stack and
       priority.  */
    _tx_timer_stack_start =  (VOID *) &_tx_timer_thread_stack_area[0];
7000609e:	4b21      	ldr	r3, [pc, #132]	@ (70006124 <_tx_timer_initialize+0xd0>)
700060a0:	4a21      	ldr	r2, [pc, #132]	@ (70006128 <_tx_timer_initialize+0xd4>)
700060a2:	601a      	str	r2, [r3, #0]
    _tx_timer_stack_size =   ((ULONG) TX_TIMER_THREAD_STACK_SIZE);
700060a4:	4b21      	ldr	r3, [pc, #132]	@ (7000612c <_tx_timer_initialize+0xd8>)
700060a6:	f44f 6280 	mov.w	r2, #1024	@ 0x400
700060aa:	601a      	str	r2, [r3, #0]
    _tx_timer_priority =     ((UINT) TX_TIMER_THREAD_PRIORITY);
700060ac:	4b20      	ldr	r3, [pc, #128]	@ (70006130 <_tx_timer_initialize+0xdc>)
700060ae:	2200      	movs	r2, #0
700060b0:	601a      	str	r2, [r3, #0]
       low-level initialization component.  */
    do
    {

        /* Create the system timer thread.  */
        status =  _tx_thread_create(&_tx_timer_thread,
700060b2:	4b1c      	ldr	r3, [pc, #112]	@ (70006124 <_tx_timer_initialize+0xd0>)
700060b4:	681b      	ldr	r3, [r3, #0]
700060b6:	4a1d      	ldr	r2, [pc, #116]	@ (7000612c <_tx_timer_initialize+0xd8>)
700060b8:	6812      	ldr	r2, [r2, #0]
700060ba:	491d      	ldr	r1, [pc, #116]	@ (70006130 <_tx_timer_initialize+0xdc>)
700060bc:	6809      	ldr	r1, [r1, #0]
700060be:	481c      	ldr	r0, [pc, #112]	@ (70006130 <_tx_timer_initialize+0xdc>)
700060c0:	6800      	ldr	r0, [r0, #0]
700060c2:	2400      	movs	r4, #0
700060c4:	9405      	str	r4, [sp, #20]
700060c6:	2400      	movs	r4, #0
700060c8:	9404      	str	r4, [sp, #16]
700060ca:	9003      	str	r0, [sp, #12]
700060cc:	9102      	str	r1, [sp, #8]
700060ce:	9201      	str	r2, [sp, #4]
700060d0:	9300      	str	r3, [sp, #0]
700060d2:	4b18      	ldr	r3, [pc, #96]	@ (70006134 <_tx_timer_initialize+0xe0>)
700060d4:	4a18      	ldr	r2, [pc, #96]	@ (70006138 <_tx_timer_initialize+0xe4>)
700060d6:	4919      	ldr	r1, [pc, #100]	@ (7000613c <_tx_timer_initialize+0xe8>)
700060d8:	4819      	ldr	r0, [pc, #100]	@ (70006140 <_tx_timer_initialize+0xec>)
700060da:	f7ff f837 	bl	7000514c <_tx_thread_create>
700060de:	6078      	str	r0, [r7, #4]
#endif

        /* Define timer initialize extension.  */
        TX_TIMER_INITIALIZE_EXTENSION(status)

    } while (status != TX_SUCCESS);
700060e0:	687b      	ldr	r3, [r7, #4]
700060e2:	2b00      	cmp	r3, #0
700060e4:	d1e5      	bne.n	700060b2 <_tx_timer_initialize+0x5e>
#endif

#ifndef TX_DISABLE_REDUNDANT_CLEARING

    /* Initialize the head pointer of the created application timer list.  */
    _tx_timer_created_ptr =  TX_NULL;
700060e6:	4b17      	ldr	r3, [pc, #92]	@ (70006144 <_tx_timer_initialize+0xf0>)
700060e8:	2200      	movs	r2, #0
700060ea:	601a      	str	r2, [r3, #0]

    /* Set the created count to zero.  */
    _tx_timer_created_count =  TX_EMPTY;
700060ec:	4b16      	ldr	r3, [pc, #88]	@ (70006148 <_tx_timer_initialize+0xf4>)
700060ee:	2200      	movs	r2, #0
700060f0:	601a      	str	r2, [r3, #0]
    _tx_timer_performance_expiration_count =         ((ULONG) 0);
    _tx_timer_performance__expiration_adjust_count =  ((ULONG) 0);
#endif
#endif
#endif
}
700060f2:	bf00      	nop
700060f4:	370c      	adds	r7, #12
700060f6:	46bd      	mov	sp, r7
700060f8:	bd90      	pop	{r4, r7, pc}
700060fa:	bf00      	nop
700060fc:	24008488 	.word	0x24008488
70006100:	240089e8 	.word	0x240089e8
70006104:	2400848c 	.word	0x2400848c
70006108:	2400851c 	.word	0x2400851c
7000610c:	24008528 	.word	0x24008528
70006110:	24008490 	.word	0x24008490
70006114:	24008510 	.word	0x24008510
70006118:	24008518 	.word	0x24008518
7000611c:	24008514 	.word	0x24008514
70006120:	2400850c 	.word	0x2400850c
70006124:	240085dc 	.word	0x240085dc
70006128:	240085e8 	.word	0x240085e8
7000612c:	240085e0 	.word	0x240085e0
70006130:	240085e4 	.word	0x240085e4
70006134:	4154494d 	.word	0x4154494d
70006138:	70006281 	.word	0x70006281
7000613c:	70006a30 	.word	0x70006a30
70006140:	2400852c 	.word	0x2400852c
70006144:	24008520 	.word	0x24008520
70006148:	24008524 	.word	0x24008524

7000614c <_tx_timer_system_activate>:
/*                                            TX_NO_TIMER is defined,     */
/*                                            resulting in version 6.1    */
/*                                                                        */
/**************************************************************************/
VOID  _tx_timer_system_activate(TX_TIMER_INTERNAL *timer_ptr)
{
7000614c:	b480      	push	{r7}
7000614e:	b089      	sub	sp, #36	@ 0x24
70006150:	af00      	add	r7, sp, #0
70006152:	6078      	str	r0, [r7, #4]
ULONG                       remaining_ticks;
ULONG                       expiration_time;


    /* Pickup the remaining ticks.  */
    remaining_ticks =  timer_ptr -> tx_timer_internal_remaining_ticks;
70006154:	687b      	ldr	r3, [r7, #4]
70006156:	681b      	ldr	r3, [r3, #0]
70006158:	617b      	str	r3, [r7, #20]

    /* Determine if there is a timer to activate.  */
    if (remaining_ticks != ((ULONG) 0))
7000615a:	697b      	ldr	r3, [r7, #20]
7000615c:	2b00      	cmp	r3, #0
7000615e:	d04a      	beq.n	700061f6 <_tx_timer_system_activate+0xaa>
    {

        /* Determine if the timer is set to wait forever.  */
        if (remaining_ticks != TX_WAIT_FOREVER)
70006160:	697b      	ldr	r3, [r7, #20]
70006162:	f1b3 3fff 	cmp.w	r3, #4294967295
70006166:	d046      	beq.n	700061f6 <_tx_timer_system_activate+0xaa>
        {

            /* Valid timer activate request.  */

            /* Determine if the timer still needs activation.  */
            if (timer_ptr -> tx_timer_internal_list_head == TX_NULL)
70006168:	687b      	ldr	r3, [r7, #4]
7000616a:	699b      	ldr	r3, [r3, #24]
7000616c:	2b00      	cmp	r3, #0
7000616e:	d142      	bne.n	700061f6 <_tx_timer_system_activate+0xaa>
            {

                /* Activate the timer.  */

                /* Calculate the amount of time remaining for the timer.  */
                if (remaining_ticks > TX_TIMER_ENTRIES)
70006170:	697b      	ldr	r3, [r7, #20]
70006172:	2b20      	cmp	r3, #32
70006174:	d902      	bls.n	7000617c <_tx_timer_system_activate+0x30>
                {

                    /* Set expiration time to the maximum number of entries.  */
                    expiration_time =  TX_TIMER_ENTRIES - ((ULONG) 1);
70006176:	231f      	movs	r3, #31
70006178:	61bb      	str	r3, [r7, #24]
7000617a:	e002      	b.n	70006182 <_tx_timer_system_activate+0x36>
                {

                    /* Timer value fits in the timer entries.  */

                    /* Set the expiration time.  */
                    expiration_time =  (remaining_ticks - ((ULONG) 1));
7000617c:	697b      	ldr	r3, [r7, #20]
7000617e:	3b01      	subs	r3, #1
70006180:	61bb      	str	r3, [r7, #24]

                /* At this point, we are ready to put the timer on one of
                   the timer lists.  */

                /* Calculate the proper place for the timer.  */
                timer_list =  TX_TIMER_POINTER_ADD(_tx_timer_current_ptr, expiration_time);
70006182:	4b20      	ldr	r3, [pc, #128]	@ (70006204 <_tx_timer_system_activate+0xb8>)
70006184:	681a      	ldr	r2, [r3, #0]
70006186:	69bb      	ldr	r3, [r7, #24]
70006188:	009b      	lsls	r3, r3, #2
7000618a:	4413      	add	r3, r2
7000618c:	61fb      	str	r3, [r7, #28]
                if (TX_TIMER_INDIRECT_TO_VOID_POINTER_CONVERT(timer_list) >= TX_TIMER_INDIRECT_TO_VOID_POINTER_CONVERT(_tx_timer_list_end))
7000618e:	4b1e      	ldr	r3, [pc, #120]	@ (70006208 <_tx_timer_system_activate+0xbc>)
70006190:	681b      	ldr	r3, [r3, #0]
70006192:	69fa      	ldr	r2, [r7, #28]
70006194:	429a      	cmp	r2, r3
70006196:	d30b      	bcc.n	700061b0 <_tx_timer_system_activate+0x64>
                {

                    /* Wrap from the beginning of the list.  */
                    delta =  TX_TIMER_POINTER_DIF(timer_list, _tx_timer_list_end);
70006198:	4b1b      	ldr	r3, [pc, #108]	@ (70006208 <_tx_timer_system_activate+0xbc>)
7000619a:	681b      	ldr	r3, [r3, #0]
7000619c:	69fa      	ldr	r2, [r7, #28]
7000619e:	1ad3      	subs	r3, r2, r3
700061a0:	109b      	asrs	r3, r3, #2
700061a2:	613b      	str	r3, [r7, #16]
                    timer_list =  TX_TIMER_POINTER_ADD(_tx_timer_list_start, delta);
700061a4:	4b19      	ldr	r3, [pc, #100]	@ (7000620c <_tx_timer_system_activate+0xc0>)
700061a6:	681a      	ldr	r2, [r3, #0]
700061a8:	693b      	ldr	r3, [r7, #16]
700061aa:	009b      	lsls	r3, r3, #2
700061ac:	4413      	add	r3, r2
700061ae:	61fb      	str	r3, [r7, #28]
                }

                /* Now put the timer on this list.  */
                if ((*timer_list) == TX_NULL)
700061b0:	69fb      	ldr	r3, [r7, #28]
700061b2:	681b      	ldr	r3, [r3, #0]
700061b4:	2b00      	cmp	r3, #0
700061b6:	d109      	bne.n	700061cc <_tx_timer_system_activate+0x80>
                {

                    /* This list is NULL, just put the new timer on it.  */

                    /* Setup the links in this timer.  */
                    timer_ptr -> tx_timer_internal_active_next =      timer_ptr;
700061b8:	687b      	ldr	r3, [r7, #4]
700061ba:	687a      	ldr	r2, [r7, #4]
700061bc:	611a      	str	r2, [r3, #16]
                    timer_ptr -> tx_timer_internal_active_previous =  timer_ptr;
700061be:	687b      	ldr	r3, [r7, #4]
700061c0:	687a      	ldr	r2, [r7, #4]
700061c2:	615a      	str	r2, [r3, #20]

                    /* Setup the list head pointer.  */
                    *timer_list =  timer_ptr;
700061c4:	69fb      	ldr	r3, [r7, #28]
700061c6:	687a      	ldr	r2, [r7, #4]
700061c8:	601a      	str	r2, [r3, #0]
700061ca:	e011      	b.n	700061f0 <_tx_timer_system_activate+0xa4>
                }
                else
                {

                    /* This list is not NULL, add current timer to the end. */
                    next_timer =                                        *timer_list;
700061cc:	69fb      	ldr	r3, [r7, #28]
700061ce:	681b      	ldr	r3, [r3, #0]
700061d0:	60fb      	str	r3, [r7, #12]
                    previous_timer =                                    next_timer -> tx_timer_internal_active_previous;
700061d2:	68fb      	ldr	r3, [r7, #12]
700061d4:	695b      	ldr	r3, [r3, #20]
700061d6:	60bb      	str	r3, [r7, #8]
                    previous_timer -> tx_timer_internal_active_next =   timer_ptr;
700061d8:	68bb      	ldr	r3, [r7, #8]
700061da:	687a      	ldr	r2, [r7, #4]
700061dc:	611a      	str	r2, [r3, #16]
                    next_timer -> tx_timer_internal_active_previous =   timer_ptr;
700061de:	68fb      	ldr	r3, [r7, #12]
700061e0:	687a      	ldr	r2, [r7, #4]
700061e2:	615a      	str	r2, [r3, #20]
                    timer_ptr -> tx_timer_internal_active_next =        next_timer;
700061e4:	687b      	ldr	r3, [r7, #4]
700061e6:	68fa      	ldr	r2, [r7, #12]
700061e8:	611a      	str	r2, [r3, #16]
                    timer_ptr -> tx_timer_internal_active_previous =    previous_timer;
700061ea:	687b      	ldr	r3, [r7, #4]
700061ec:	68ba      	ldr	r2, [r7, #8]
700061ee:	615a      	str	r2, [r3, #20]
                }

                /* Setup list head pointer.  */
                timer_ptr -> tx_timer_internal_list_head =  timer_list;
700061f0:	687b      	ldr	r3, [r7, #4]
700061f2:	69fa      	ldr	r2, [r7, #28]
700061f4:	619a      	str	r2, [r3, #24]
            }
        }
    }
}
700061f6:	bf00      	nop
700061f8:	3724      	adds	r7, #36	@ 0x24
700061fa:	46bd      	mov	sp, r7
700061fc:	f85d 7b04 	ldr.w	r7, [sp], #4
70006200:	4770      	bx	lr
70006202:	bf00      	nop
70006204:	24008518 	.word	0x24008518
70006208:	24008514 	.word	0x24008514
7000620c:	24008510 	.word	0x24008510

70006210 <_tx_timer_system_deactivate>:
/*  09-30-2020     Yuxin Zhou               Modified comment(s),          */
/*                                            resulting in version 6.1    */
/*                                                                        */
/**************************************************************************/
VOID  _tx_timer_system_deactivate(TX_TIMER_INTERNAL *timer_ptr)
{
70006210:	b480      	push	{r7}
70006212:	b087      	sub	sp, #28
70006214:	af00      	add	r7, sp, #0
70006216:	6078      	str	r0, [r7, #4]
TX_TIMER_INTERNAL   *next_timer;
TX_TIMER_INTERNAL   *previous_timer;


    /* Pickup the list head pointer.  */
    list_head =  timer_ptr -> tx_timer_internal_list_head;
70006218:	687b      	ldr	r3, [r7, #4]
7000621a:	699b      	ldr	r3, [r3, #24]
7000621c:	617b      	str	r3, [r7, #20]

    /* Determine if the timer still needs deactivation.  */
    if (list_head != TX_NULL)
7000621e:	697b      	ldr	r3, [r7, #20]
70006220:	2b00      	cmp	r3, #0
70006222:	d026      	beq.n	70006272 <_tx_timer_system_deactivate+0x62>
    {

        /* Deactivate the timer.  */

        /* Pickup the next active timer.  */
        next_timer =  timer_ptr -> tx_timer_internal_active_next;
70006224:	687b      	ldr	r3, [r7, #4]
70006226:	691b      	ldr	r3, [r3, #16]
70006228:	613b      	str	r3, [r7, #16]

        /* See if this is the only timer in the list.  */
        if (timer_ptr == next_timer)
7000622a:	687a      	ldr	r2, [r7, #4]
7000622c:	693b      	ldr	r3, [r7, #16]
7000622e:	429a      	cmp	r2, r3
70006230:	d108      	bne.n	70006244 <_tx_timer_system_deactivate+0x34>
        {

            /* Yes, the only timer on the list.  */

            /* Determine if the head pointer needs to be updated.  */
            if (*(list_head) == timer_ptr)
70006232:	697b      	ldr	r3, [r7, #20]
70006234:	681b      	ldr	r3, [r3, #0]
70006236:	687a      	ldr	r2, [r7, #4]
70006238:	429a      	cmp	r2, r3
7000623a:	d117      	bne.n	7000626c <_tx_timer_system_deactivate+0x5c>
            {

                /* Update the head pointer.  */
                *(list_head) =  TX_NULL;
7000623c:	697b      	ldr	r3, [r7, #20]
7000623e:	2200      	movs	r2, #0
70006240:	601a      	str	r2, [r3, #0]
70006242:	e013      	b.n	7000626c <_tx_timer_system_deactivate+0x5c>
        {

            /* At least one more timer is on the same expiration list.  */

            /* Update the links of the adjacent timers.  */
            previous_timer =                                   timer_ptr -> tx_timer_internal_active_previous;
70006244:	687b      	ldr	r3, [r7, #4]
70006246:	695b      	ldr	r3, [r3, #20]
70006248:	60fb      	str	r3, [r7, #12]
            next_timer -> tx_timer_internal_active_previous =  previous_timer;
7000624a:	693b      	ldr	r3, [r7, #16]
7000624c:	68fa      	ldr	r2, [r7, #12]
7000624e:	615a      	str	r2, [r3, #20]
            previous_timer -> tx_timer_internal_active_next =  next_timer;
70006250:	68fb      	ldr	r3, [r7, #12]
70006252:	693a      	ldr	r2, [r7, #16]
70006254:	611a      	str	r2, [r3, #16]

            /* Determine if the head pointer needs to be updated.  */
            if (*(list_head) == timer_ptr)
70006256:	697b      	ldr	r3, [r7, #20]
70006258:	681b      	ldr	r3, [r3, #0]
7000625a:	687a      	ldr	r2, [r7, #4]
7000625c:	429a      	cmp	r2, r3
7000625e:	d105      	bne.n	7000626c <_tx_timer_system_deactivate+0x5c>
            {

                /* Update the next timer in the list with the list head pointer.  */
                next_timer -> tx_timer_internal_list_head =  list_head;
70006260:	693b      	ldr	r3, [r7, #16]
70006262:	697a      	ldr	r2, [r7, #20]
70006264:	619a      	str	r2, [r3, #24]

                /* Update the head pointer.  */
                *(list_head) =  next_timer;
70006266:	697b      	ldr	r3, [r7, #20]
70006268:	693a      	ldr	r2, [r7, #16]
7000626a:	601a      	str	r2, [r3, #0]
            }
        }

        /* Clear the timer's list head pointer.  */
        timer_ptr -> tx_timer_internal_list_head =  TX_NULL;
7000626c:	687b      	ldr	r3, [r7, #4]
7000626e:	2200      	movs	r2, #0
70006270:	619a      	str	r2, [r3, #24]
    }
}
70006272:	bf00      	nop
70006274:	371c      	adds	r7, #28
70006276:	46bd      	mov	sp, r7
70006278:	f85d 7b04 	ldr.w	r7, [sp], #4
7000627c:	4770      	bx	lr
	...

70006280 <_tx_timer_thread_entry>:
/*                                            resulting in version 6.1    */
/*                                                                        */
/**************************************************************************/
#ifndef TX_TIMER_PROCESS_IN_ISR
VOID  _tx_timer_thread_entry(ULONG timer_thread_input)
{
70006280:	b590      	push	{r4, r7, lr}
70006282:	b08b      	sub	sp, #44	@ 0x2c
70006284:	af00      	add	r7, sp, #0
70006286:	6078      	str	r0, [r7, #4]
TX_TIMER_INTERNAL           *reactivate_timer;
TX_TIMER_INTERNAL           *next_timer;
TX_TIMER_INTERNAL           *previous_timer;
TX_TIMER_INTERNAL           *current_timer;
VOID                        (*timeout_function)(ULONG id);
ULONG                       timeout_param =  ((ULONG) 0);
70006288:	2300      	movs	r3, #0
7000628a:	623b      	str	r3, [r7, #32]
#endif


    /* Make sure the timer input is correct.  This also gets rid of the
       silly compiler warnings.  */
    if (timer_thread_input == TX_TIMER_ID)
7000628c:	687b      	ldr	r3, [r7, #4]
7000628e:	4a61      	ldr	r2, [pc, #388]	@ (70006414 <_tx_timer_thread_entry+0x194>)
70006290:	4293      	cmp	r3, r2
70006292:	f040 80ba 	bne.w	7000640a <_tx_timer_thread_entry+0x18a>
        {

            /* First, move the current list pointer and clear the timer
               expired value.  This allows the interrupt handling portion
               to continue looking for timer expirations.  */
            TX_DISABLE
70006296:	f7fa f86b 	bl	70000370 <_tx_thread_interrupt_disable>
7000629a:	4604      	mov	r4, r0

            /* Save the current timer expiration list pointer.  */
            expired_timers =  *_tx_timer_current_ptr;
7000629c:	4b5e      	ldr	r3, [pc, #376]	@ (70006418 <_tx_timer_thread_entry+0x198>)
7000629e:	681b      	ldr	r3, [r3, #0]
700062a0:	681b      	ldr	r3, [r3, #0]
700062a2:	60fb      	str	r3, [r7, #12]

            /* Modify the head pointer in the first timer in the list, if there
               is one!  */
            if (expired_timers != TX_NULL)
700062a4:	68fb      	ldr	r3, [r7, #12]
700062a6:	2b00      	cmp	r3, #0
700062a8:	d003      	beq.n	700062b2 <_tx_timer_thread_entry+0x32>
            {

                expired_timers -> tx_timer_internal_list_head =  &expired_timers;
700062aa:	68fb      	ldr	r3, [r7, #12]
700062ac:	f107 020c 	add.w	r2, r7, #12
700062b0:	619a      	str	r2, [r3, #24]
            }

            /* Set the current list pointer to NULL.  */
            *_tx_timer_current_ptr =  TX_NULL;
700062b2:	4b59      	ldr	r3, [pc, #356]	@ (70006418 <_tx_timer_thread_entry+0x198>)
700062b4:	681b      	ldr	r3, [r3, #0]
700062b6:	2200      	movs	r2, #0
700062b8:	601a      	str	r2, [r3, #0]

            /* Move the current pointer up one timer entry wrap if we get to
               the end of the list.  */
            _tx_timer_current_ptr =  TX_TIMER_POINTER_ADD(_tx_timer_current_ptr, 1);
700062ba:	4b57      	ldr	r3, [pc, #348]	@ (70006418 <_tx_timer_thread_entry+0x198>)
700062bc:	681b      	ldr	r3, [r3, #0]
700062be:	3304      	adds	r3, #4
700062c0:	4a55      	ldr	r2, [pc, #340]	@ (70006418 <_tx_timer_thread_entry+0x198>)
700062c2:	6013      	str	r3, [r2, #0]
            if (_tx_timer_current_ptr == _tx_timer_list_end)
700062c4:	4b54      	ldr	r3, [pc, #336]	@ (70006418 <_tx_timer_thread_entry+0x198>)
700062c6:	681a      	ldr	r2, [r3, #0]
700062c8:	4b54      	ldr	r3, [pc, #336]	@ (7000641c <_tx_timer_thread_entry+0x19c>)
700062ca:	681b      	ldr	r3, [r3, #0]
700062cc:	429a      	cmp	r2, r3
700062ce:	d103      	bne.n	700062d8 <_tx_timer_thread_entry+0x58>
            {

                _tx_timer_current_ptr =  _tx_timer_list_start;
700062d0:	4b53      	ldr	r3, [pc, #332]	@ (70006420 <_tx_timer_thread_entry+0x1a0>)
700062d2:	681b      	ldr	r3, [r3, #0]
700062d4:	4a50      	ldr	r2, [pc, #320]	@ (70006418 <_tx_timer_thread_entry+0x198>)
700062d6:	6013      	str	r3, [r2, #0]
            }

            /* Clear the expired flag.  */
            _tx_timer_expired =  TX_FALSE;
700062d8:	4b52      	ldr	r3, [pc, #328]	@ (70006424 <_tx_timer_thread_entry+0x1a4>)
700062da:	2200      	movs	r2, #0
700062dc:	601a      	str	r2, [r3, #0]

            /* Restore interrupts temporarily.  */
            TX_RESTORE
700062de:	4620      	mov	r0, r4
700062e0:	f7fa f84e 	bl	70000380 <_tx_thread_interrupt_restore>

            /* Disable interrupts again.  */
            TX_DISABLE
700062e4:	f7fa f844 	bl	70000370 <_tx_thread_interrupt_disable>
700062e8:	4604      	mov	r4, r0

            /* Next, process the expiration of the associated timers at this
               time slot.  */
            while (expired_timers != TX_NULL)
700062ea:	e06f      	b.n	700063cc <_tx_timer_thread_entry+0x14c>
            {

                /* Something is on the list.  Remove it and process the expiration.  */
                current_timer =  expired_timers;
700062ec:	68fb      	ldr	r3, [r7, #12]
700062ee:	61bb      	str	r3, [r7, #24]

                /* Pickup the next timer.  */
                next_timer =  expired_timers -> tx_timer_internal_active_next;
700062f0:	68fb      	ldr	r3, [r7, #12]
700062f2:	691b      	ldr	r3, [r3, #16]
700062f4:	617b      	str	r3, [r7, #20]

                /* Set the reactivate_timer to NULL.  */
                reactivate_timer =  TX_NULL;
700062f6:	2300      	movs	r3, #0
700062f8:	60bb      	str	r3, [r7, #8]

                /* Determine if this is the only timer.  */
                if (current_timer == next_timer)
700062fa:	69ba      	ldr	r2, [r7, #24]
700062fc:	697b      	ldr	r3, [r7, #20]
700062fe:	429a      	cmp	r2, r3
70006300:	d102      	bne.n	70006308 <_tx_timer_thread_entry+0x88>
                {

                    /* Yes, this is the only timer in the list.  */

                    /* Set the head pointer to NULL.  */
                    expired_timers =  TX_NULL;
70006302:	2300      	movs	r3, #0
70006304:	60fb      	str	r3, [r7, #12]
70006306:	e00e      	b.n	70006326 <_tx_timer_thread_entry+0xa6>
                {

                    /* No, not the only expired timer.  */

                    /* Remove this timer from the expired list.  */
                    previous_timer =                                   current_timer -> tx_timer_internal_active_previous;
70006308:	69bb      	ldr	r3, [r7, #24]
7000630a:	695b      	ldr	r3, [r3, #20]
7000630c:	613b      	str	r3, [r7, #16]
                    next_timer -> tx_timer_internal_active_previous =  previous_timer;
7000630e:	697b      	ldr	r3, [r7, #20]
70006310:	693a      	ldr	r2, [r7, #16]
70006312:	615a      	str	r2, [r3, #20]
                    previous_timer -> tx_timer_internal_active_next =  next_timer;
70006314:	693b      	ldr	r3, [r7, #16]
70006316:	697a      	ldr	r2, [r7, #20]
70006318:	611a      	str	r2, [r3, #16]

                    /* Modify the next timer's list head to point at the current list head.  */
                    next_timer -> tx_timer_internal_list_head =  &expired_timers;
7000631a:	697b      	ldr	r3, [r7, #20]
7000631c:	f107 020c 	add.w	r2, r7, #12
70006320:	619a      	str	r2, [r3, #24]

                    /* Set the list head pointer.  */
                    expired_timers =  next_timer;
70006322:	697b      	ldr	r3, [r7, #20]
70006324:	60fb      	str	r3, [r7, #12]

                /* In any case, the timer is now off of the expired list.  */

                /* Determine if the timer has expired or if it is just a really
                   big timer that needs to be placed in the list again.  */
                if (current_timer -> tx_timer_internal_remaining_ticks > TX_TIMER_ENTRIES)
70006326:	69bb      	ldr	r3, [r7, #24]
70006328:	681b      	ldr	r3, [r3, #0]
7000632a:	2b20      	cmp	r3, #32
7000632c:	d911      	bls.n	70006352 <_tx_timer_thread_entry+0xd2>
                    }
#endif

                    /* Decrement the remaining ticks of the timer.  */
                    current_timer -> tx_timer_internal_remaining_ticks =
                            current_timer -> tx_timer_internal_remaining_ticks - TX_TIMER_ENTRIES;
7000632e:	69bb      	ldr	r3, [r7, #24]
70006330:	681b      	ldr	r3, [r3, #0]
70006332:	f1a3 0220 	sub.w	r2, r3, #32
                    current_timer -> tx_timer_internal_remaining_ticks =
70006336:	69bb      	ldr	r3, [r7, #24]
70006338:	601a      	str	r2, [r3, #0]

                    /* Set the timeout function to NULL in order to bypass the
                       expiration.  */
                    timeout_function =  TX_NULL;
7000633a:	2300      	movs	r3, #0
7000633c:	627b      	str	r3, [r7, #36]	@ 0x24

                    /* Make the timer appear that it is still active while interrupts
                       are enabled.  This will permit proper processing of a timer
                       deactivate from an ISR.  */
                    current_timer -> tx_timer_internal_list_head =    &reactivate_timer;
7000633e:	69bb      	ldr	r3, [r7, #24]
70006340:	f107 0208 	add.w	r2, r7, #8
70006344:	619a      	str	r2, [r3, #24]
                    current_timer -> tx_timer_internal_active_next =  current_timer;
70006346:	69bb      	ldr	r3, [r7, #24]
70006348:	69ba      	ldr	r2, [r7, #24]
7000634a:	611a      	str	r2, [r3, #16]

                    /* Setup the temporary timer list head pointer.  */
                    reactivate_timer =  current_timer;
7000634c:	69bb      	ldr	r3, [r7, #24]
7000634e:	60bb      	str	r3, [r7, #8]
70006350:	e01a      	b.n	70006388 <_tx_timer_thread_entry+0x108>
                    }
#endif

                    /* Copy the calling function and ID into local variables before interrupts
                       are re-enabled.  */
                    timeout_function =  current_timer -> tx_timer_internal_timeout_function;
70006352:	69bb      	ldr	r3, [r7, #24]
70006354:	689b      	ldr	r3, [r3, #8]
70006356:	627b      	str	r3, [r7, #36]	@ 0x24
                    timeout_param =     current_timer -> tx_timer_internal_timeout_param;
70006358:	69bb      	ldr	r3, [r7, #24]
7000635a:	68db      	ldr	r3, [r3, #12]
7000635c:	623b      	str	r3, [r7, #32]

                    /* Copy the reinitialize ticks into the remaining ticks.  */
                    current_timer -> tx_timer_internal_remaining_ticks =  current_timer -> tx_timer_internal_re_initialize_ticks;
7000635e:	69bb      	ldr	r3, [r7, #24]
70006360:	685a      	ldr	r2, [r3, #4]
70006362:	69bb      	ldr	r3, [r7, #24]
70006364:	601a      	str	r2, [r3, #0]

                    /* Determine if the timer should be reactivated.  */
                    if (current_timer -> tx_timer_internal_remaining_ticks != ((ULONG) 0))
70006366:	69bb      	ldr	r3, [r7, #24]
70006368:	681b      	ldr	r3, [r3, #0]
7000636a:	2b00      	cmp	r3, #0
7000636c:	d009      	beq.n	70006382 <_tx_timer_thread_entry+0x102>

                        /* Make the timer appear that it is still active while processing
                           the expiration routine and with interrupts enabled.  This will
                           permit proper processing of a timer deactivate from both the
                           expiration routine and an ISR.  */
                        current_timer -> tx_timer_internal_list_head =    &reactivate_timer;
7000636e:	69bb      	ldr	r3, [r7, #24]
70006370:	f107 0208 	add.w	r2, r7, #8
70006374:	619a      	str	r2, [r3, #24]
                        current_timer -> tx_timer_internal_active_next =  current_timer;
70006376:	69bb      	ldr	r3, [r7, #24]
70006378:	69ba      	ldr	r2, [r7, #24]
7000637a:	611a      	str	r2, [r3, #16]

                        /* Setup the temporary timer list head pointer.  */
                        reactivate_timer =  current_timer;
7000637c:	69bb      	ldr	r3, [r7, #24]
7000637e:	60bb      	str	r3, [r7, #8]
70006380:	e002      	b.n	70006388 <_tx_timer_thread_entry+0x108>
                    else
                    {

                        /* Set the list pointer of this timer to NULL.  This is used to indicate
                           the timer is no longer active.  */
                        current_timer -> tx_timer_internal_list_head =  TX_NULL;
70006382:	69bb      	ldr	r3, [r7, #24]
70006384:	2200      	movs	r2, #0
70006386:	619a      	str	r2, [r3, #24]
                    }
                }

                /* Set pointer to indicate the expired timer that is currently being processed.  */
                _tx_timer_expired_timer_ptr =  current_timer;
70006388:	4a27      	ldr	r2, [pc, #156]	@ (70006428 <_tx_timer_thread_entry+0x1a8>)
7000638a:	69bb      	ldr	r3, [r7, #24]
7000638c:	6013      	str	r3, [r2, #0]

                /* Restore interrupts for timer expiration call.  */
                TX_RESTORE
7000638e:	4620      	mov	r0, r4
70006390:	f7f9 fff6 	bl	70000380 <_tx_thread_interrupt_restore>

                /* Call the timer-expiration function, if non-NULL.  */
                if (timeout_function != TX_NULL)
70006394:	6a7b      	ldr	r3, [r7, #36]	@ 0x24
70006396:	2b00      	cmp	r3, #0
70006398:	d002      	beq.n	700063a0 <_tx_timer_thread_entry+0x120>
                {

                    (timeout_function) (timeout_param);
7000639a:	6a7b      	ldr	r3, [r7, #36]	@ 0x24
7000639c:	6a38      	ldr	r0, [r7, #32]
7000639e:	4798      	blx	r3
                }

                /* Lockout interrupts again.  */
                TX_DISABLE
700063a0:	f7f9 ffe6 	bl	70000370 <_tx_thread_interrupt_disable>
700063a4:	4604      	mov	r4, r0

                /* Clear expired timer pointer.  */
                _tx_timer_expired_timer_ptr =  TX_NULL;
700063a6:	4b20      	ldr	r3, [pc, #128]	@ (70006428 <_tx_timer_thread_entry+0x1a8>)
700063a8:	2200      	movs	r2, #0
700063aa:	601a      	str	r2, [r3, #0]

                /* Determine if the timer needs to be reactivated.  */
                if (reactivate_timer == current_timer)
700063ac:	68bb      	ldr	r3, [r7, #8]
700063ae:	69ba      	ldr	r2, [r7, #24]
700063b0:	429a      	cmp	r2, r3
700063b2:	d105      	bne.n	700063c0 <_tx_timer_thread_entry+0x140>
#else

                    /* Reactivate through the timer activate function.  */

                    /* Clear the list head for the timer activate call.  */
                    current_timer -> tx_timer_internal_list_head = TX_NULL;
700063b4:	69bb      	ldr	r3, [r7, #24]
700063b6:	2200      	movs	r2, #0
700063b8:	619a      	str	r2, [r3, #24]

                    /* Activate the current timer.  */
                    _tx_timer_system_activate(current_timer);
700063ba:	69b8      	ldr	r0, [r7, #24]
700063bc:	f7ff fec6 	bl	7000614c <_tx_timer_system_activate>
#endif
                }

                /* Restore interrupts.  */
                TX_RESTORE
700063c0:	4620      	mov	r0, r4
700063c2:	f7f9 ffdd 	bl	70000380 <_tx_thread_interrupt_restore>

                /* Lockout interrupts again.  */
                TX_DISABLE
700063c6:	f7f9 ffd3 	bl	70000370 <_tx_thread_interrupt_disable>
700063ca:	4604      	mov	r4, r0
            while (expired_timers != TX_NULL)
700063cc:	68fb      	ldr	r3, [r7, #12]
700063ce:	2b00      	cmp	r3, #0
700063d0:	d18c      	bne.n	700062ec <_tx_timer_thread_entry+0x6c>

            /* Finally, suspend this thread and wait for the next expiration.  */

            /* Determine if another expiration took place while we were in this
               thread.  If so, process another expiration.  */
            if (_tx_timer_expired == TX_FALSE)
700063d2:	4b14      	ldr	r3, [pc, #80]	@ (70006424 <_tx_timer_thread_entry+0x1a4>)
700063d4:	681b      	ldr	r3, [r3, #0]
700063d6:	2b00      	cmp	r3, #0
700063d8:	d113      	bne.n	70006402 <_tx_timer_thread_entry+0x182>
            {

                /* Otherwise, no timer expiration, so suspend the thread.  */

                /* Build pointer to the timer thread.  */
                thread_ptr =  &_tx_timer_thread;
700063da:	4b14      	ldr	r3, [pc, #80]	@ (7000642c <_tx_timer_thread_entry+0x1ac>)
700063dc:	61fb      	str	r3, [r7, #28]

                /* Set the status to suspending, in order to indicate the
                   suspension is in progress.  */
                thread_ptr -> tx_thread_state =  TX_SUSPENDED;
700063de:	69fb      	ldr	r3, [r7, #28]
700063e0:	2203      	movs	r2, #3
700063e2:	631a      	str	r2, [r3, #48]	@ 0x30
                /* Restore interrupts.  */
                TX_RESTORE
#else

                /* Set the suspending flag. */
                thread_ptr -> tx_thread_suspending =  TX_TRUE;
700063e4:	69fb      	ldr	r3, [r7, #28]
700063e6:	2201      	movs	r2, #1
700063e8:	639a      	str	r2, [r3, #56]	@ 0x38

                /* Increment the preempt disable count prior to suspending.  */
                _tx_thread_preempt_disable++;
700063ea:	4b11      	ldr	r3, [pc, #68]	@ (70006430 <_tx_timer_thread_entry+0x1b0>)
700063ec:	681b      	ldr	r3, [r3, #0]
700063ee:	3301      	adds	r3, #1
700063f0:	4a0f      	ldr	r2, [pc, #60]	@ (70006430 <_tx_timer_thread_entry+0x1b0>)
700063f2:	6013      	str	r3, [r2, #0]

                /* Restore interrupts.  */
                TX_RESTORE
700063f4:	4620      	mov	r0, r4
700063f6:	f7f9 ffc3 	bl	70000380 <_tx_thread_interrupt_restore>

                /* Call actual thread suspension routine.  */
                _tx_thread_system_suspend(thread_ptr);
700063fa:	69f8      	ldr	r0, [r7, #28]
700063fc:	f7ff fb2a 	bl	70005a54 <_tx_thread_system_suspend>
70006400:	e749      	b.n	70006296 <_tx_timer_thread_entry+0x16>
            }
            else
            {

                /* Restore interrupts.  */
                TX_RESTORE
70006402:	4620      	mov	r0, r4
70006404:	f7f9 ffbc 	bl	70000380 <_tx_thread_interrupt_restore>
            TX_DISABLE
70006408:	e745      	b.n	70006296 <_tx_timer_thread_entry+0x16>

    /* If we ever get here, raise safety critical exception.  */
    TX_SAFETY_CRITICAL_EXCEPTION(__FILE__, __LINE__, 0);
#endif

}
7000640a:	bf00      	nop
7000640c:	372c      	adds	r7, #44	@ 0x2c
7000640e:	46bd      	mov	sp, r7
70006410:	bd90      	pop	{r4, r7, pc}
70006412:	bf00      	nop
70006414:	4154494d 	.word	0x4154494d
70006418:	24008518 	.word	0x24008518
7000641c:	24008514 	.word	0x24008514
70006420:	24008510 	.word	0x24008510
70006424:	2400851c 	.word	0x2400851c
70006428:	24008528 	.word	0x24008528
7000642c:	2400852c 	.word	0x2400852c
70006430:	24008478 	.word	0x24008478

70006434 <_txe_byte_pool_create>:
/*  09-30-2020     Yuxin Zhou               Modified comment(s),          */
/*                                            resulting in version 6.1    */
/*                                                                        */
/**************************************************************************/
UINT  _txe_byte_pool_create(TX_BYTE_POOL *pool_ptr, CHAR *name_ptr, VOID *pool_start, ULONG pool_size, UINT pool_control_block_size)
{
70006434:	b590      	push	{r4, r7, lr}
70006436:	b08b      	sub	sp, #44	@ 0x2c
70006438:	af00      	add	r7, sp, #0
7000643a:	60f8      	str	r0, [r7, #12]
7000643c:	60b9      	str	r1, [r7, #8]
7000643e:	607a      	str	r2, [r7, #4]
70006440:	603b      	str	r3, [r7, #0]
TX_THREAD       *thread_ptr;
#endif


    /* Default status to success.  */
    status =  TX_SUCCESS;
70006442:	2300      	movs	r3, #0
70006444:	627b      	str	r3, [r7, #36]	@ 0x24

    /* Check for an invalid byte pool pointer.  */
    if (pool_ptr == TX_NULL)
70006446:	68fb      	ldr	r3, [r7, #12]
70006448:	2b00      	cmp	r3, #0
7000644a:	d102      	bne.n	70006452 <_txe_byte_pool_create+0x1e>
    {

        /* Byte pool pointer is invalid, return appropriate error code.  */
        status =  TX_POOL_ERROR;
7000644c:	2302      	movs	r3, #2
7000644e:	627b      	str	r3, [r7, #36]	@ 0x24
70006450:	e065      	b.n	7000651e <_txe_byte_pool_create+0xea>
    }

    /* Now see if the pool control block size is valid.  */
    else if (pool_control_block_size != (sizeof(TX_BYTE_POOL)))
70006452:	6bbb      	ldr	r3, [r7, #56]	@ 0x38
70006454:	2b34      	cmp	r3, #52	@ 0x34
70006456:	d002      	beq.n	7000645e <_txe_byte_pool_create+0x2a>
    {

        /* Byte pool pointer is invalid, return appropriate error code.  */
        status =  TX_POOL_ERROR;
70006458:	2302      	movs	r3, #2
7000645a:	627b      	str	r3, [r7, #36]	@ 0x24
7000645c:	e05f      	b.n	7000651e <_txe_byte_pool_create+0xea>
    }
    else
    {

        /* Disable interrupts.  */
        TX_DISABLE
7000645e:	f7f9 ff87 	bl	70000370 <_tx_thread_interrupt_disable>
70006462:	4604      	mov	r4, r0

        /* Increment the preempt disable flag.  */
        _tx_thread_preempt_disable++;
70006464:	4b35      	ldr	r3, [pc, #212]	@ (7000653c <_txe_byte_pool_create+0x108>)
70006466:	681b      	ldr	r3, [r3, #0]
70006468:	3301      	adds	r3, #1
7000646a:	4a34      	ldr	r2, [pc, #208]	@ (7000653c <_txe_byte_pool_create+0x108>)
7000646c:	6013      	str	r3, [r2, #0]

        /* Restore interrupts.  */
        TX_RESTORE
7000646e:	4620      	mov	r0, r4
70006470:	f7f9 ff86 	bl	70000380 <_tx_thread_interrupt_restore>

        /* Next see if it is already in the created list.  */
        next_pool =   _tx_byte_pool_created_ptr;
70006474:	4b32      	ldr	r3, [pc, #200]	@ (70006540 <_txe_byte_pool_create+0x10c>)
70006476:	681b      	ldr	r3, [r3, #0]
70006478:	61fb      	str	r3, [r7, #28]
        for (i = ((ULONG) 0); i < _tx_byte_pool_created_count; i++)
7000647a:	2300      	movs	r3, #0
7000647c:	623b      	str	r3, [r7, #32]
7000647e:	e009      	b.n	70006494 <_txe_byte_pool_create+0x60>
        {

            /* Determine if this byte pool matches the pool in the list.  */
            if (pool_ptr == next_pool)
70006480:	68fa      	ldr	r2, [r7, #12]
70006482:	69fb      	ldr	r3, [r7, #28]
70006484:	429a      	cmp	r2, r3
70006486:	d00b      	beq.n	700064a0 <_txe_byte_pool_create+0x6c>
            }
            else
            {

                /* Move to the next pool.  */
                next_pool =  next_pool -> tx_byte_pool_created_next;
70006488:	69fb      	ldr	r3, [r7, #28]
7000648a:	6adb      	ldr	r3, [r3, #44]	@ 0x2c
7000648c:	61fb      	str	r3, [r7, #28]
        for (i = ((ULONG) 0); i < _tx_byte_pool_created_count; i++)
7000648e:	6a3b      	ldr	r3, [r7, #32]
70006490:	3301      	adds	r3, #1
70006492:	623b      	str	r3, [r7, #32]
70006494:	4b2b      	ldr	r3, [pc, #172]	@ (70006544 <_txe_byte_pool_create+0x110>)
70006496:	681b      	ldr	r3, [r3, #0]
70006498:	6a3a      	ldr	r2, [r7, #32]
7000649a:	429a      	cmp	r2, r3
7000649c:	d3f0      	bcc.n	70006480 <_txe_byte_pool_create+0x4c>
7000649e:	e000      	b.n	700064a2 <_txe_byte_pool_create+0x6e>
                break;
700064a0:	bf00      	nop
            }
        }

        /* Disable interrupts.  */
        TX_DISABLE
700064a2:	f7f9 ff65 	bl	70000370 <_tx_thread_interrupt_disable>
700064a6:	4604      	mov	r4, r0

        /* Decrement the preempt disable flag.  */
        _tx_thread_preempt_disable--;
700064a8:	4b24      	ldr	r3, [pc, #144]	@ (7000653c <_txe_byte_pool_create+0x108>)
700064aa:	681b      	ldr	r3, [r3, #0]
700064ac:	3b01      	subs	r3, #1
700064ae:	4a23      	ldr	r2, [pc, #140]	@ (7000653c <_txe_byte_pool_create+0x108>)
700064b0:	6013      	str	r3, [r2, #0]

        /* Restore interrupts.  */
        TX_RESTORE
700064b2:	4620      	mov	r0, r4
700064b4:	f7f9 ff64 	bl	70000380 <_tx_thread_interrupt_restore>

        /* Check for preemption.  */
        _tx_thread_system_preempt_check();
700064b8:	f7ff f8b0 	bl	7000561c <_tx_thread_system_preempt_check>

        /* At this point, check to see if there is a duplicate pool.  */
        if (pool_ptr == next_pool)
700064bc:	68fa      	ldr	r2, [r7, #12]
700064be:	69fb      	ldr	r3, [r7, #28]
700064c0:	429a      	cmp	r2, r3
700064c2:	d102      	bne.n	700064ca <_txe_byte_pool_create+0x96>
        {

            /* Pool is already created, return appropriate error code.  */
            status =  TX_POOL_ERROR;
700064c4:	2302      	movs	r3, #2
700064c6:	627b      	str	r3, [r7, #36]	@ 0x24
700064c8:	e029      	b.n	7000651e <_txe_byte_pool_create+0xea>
        }

        /* Check for an invalid starting address.  */
        else if (pool_start == TX_NULL)
700064ca:	687b      	ldr	r3, [r7, #4]
700064cc:	2b00      	cmp	r3, #0
700064ce:	d102      	bne.n	700064d6 <_txe_byte_pool_create+0xa2>
        {

            /* Null starting address pointer, return appropriate error.  */
            status =  TX_PTR_ERROR;
700064d0:	2303      	movs	r3, #3
700064d2:	627b      	str	r3, [r7, #36]	@ 0x24
700064d4:	e023      	b.n	7000651e <_txe_byte_pool_create+0xea>
        }

        /* Check for invalid pool size.  */
        else if (pool_size < TX_BYTE_POOL_MIN)
700064d6:	683b      	ldr	r3, [r7, #0]
700064d8:	2b63      	cmp	r3, #99	@ 0x63
700064da:	d802      	bhi.n	700064e2 <_txe_byte_pool_create+0xae>
        {

            /* Pool not big enough, return appropriate error.  */
            status =  TX_SIZE_ERROR;
700064dc:	2305      	movs	r3, #5
700064de:	627b      	str	r3, [r7, #36]	@ 0x24
700064e0:	e01d      	b.n	7000651e <_txe_byte_pool_create+0xea>
        {

#ifndef TX_TIMER_PROCESS_IN_ISR

            /* Pickup thread pointer.  */
            TX_THREAD_GET_CURRENT(thread_ptr)
700064e2:	4b19      	ldr	r3, [pc, #100]	@ (70006548 <_txe_byte_pool_create+0x114>)
700064e4:	681b      	ldr	r3, [r3, #0]
700064e6:	61bb      	str	r3, [r7, #24]

            /* Check for invalid caller of this function.  First check for a calling thread.  */
            if (thread_ptr == &_tx_timer_thread)
700064e8:	69bb      	ldr	r3, [r7, #24]
700064ea:	4a18      	ldr	r2, [pc, #96]	@ (7000654c <_txe_byte_pool_create+0x118>)
700064ec:	4293      	cmp	r3, r2
700064ee:	d101      	bne.n	700064f4 <_txe_byte_pool_create+0xc0>
            {

                /* Invalid caller of this function, return appropriate error code.  */
                status =  TX_CALLER_ERROR;
700064f0:	2313      	movs	r3, #19
700064f2:	627b      	str	r3, [r7, #36]	@ 0x24
    __asm__ volatile (" MRS  %0,IPSR ": "=r" (ipsr_value) );
700064f4:	f3ef 8305 	mrs	r3, IPSR
700064f8:	617b      	str	r3, [r7, #20]
    return(ipsr_value);
700064fa:	697a      	ldr	r2, [r7, #20]
            }
#endif

            /* Check for interrupt call.  */
            if (TX_THREAD_GET_SYSTEM_STATE() != ((ULONG) 0))
700064fc:	4b14      	ldr	r3, [pc, #80]	@ (70006550 <_txe_byte_pool_create+0x11c>)
700064fe:	681b      	ldr	r3, [r3, #0]
70006500:	4313      	orrs	r3, r2
70006502:	2b00      	cmp	r3, #0
70006504:	d00b      	beq.n	7000651e <_txe_byte_pool_create+0xea>
    __asm__ volatile (" MRS  %0,IPSR ": "=r" (ipsr_value) );
70006506:	f3ef 8305 	mrs	r3, IPSR
7000650a:	613b      	str	r3, [r7, #16]
    return(ipsr_value);
7000650c:	693a      	ldr	r2, [r7, #16]
            {

                /* Now, make sure the call is from an interrupt and not initialization.  */
                if (TX_THREAD_GET_SYSTEM_STATE() < TX_INITIALIZE_IN_PROGRESS)
7000650e:	4b10      	ldr	r3, [pc, #64]	@ (70006550 <_txe_byte_pool_create+0x11c>)
70006510:	681b      	ldr	r3, [r3, #0]
70006512:	4313      	orrs	r3, r2
70006514:	f1b3 3ff0 	cmp.w	r3, #4042322160	@ 0xf0f0f0f0
70006518:	d201      	bcs.n	7000651e <_txe_byte_pool_create+0xea>
                {

                    /* Invalid caller of this function, return appropriate error code.  */
                    status =  TX_CALLER_ERROR;
7000651a:	2313      	movs	r3, #19
7000651c:	627b      	str	r3, [r7, #36]	@ 0x24
            }
        }
    }

    /* Determine if everything is okay.  */
    if (status == TX_SUCCESS)
7000651e:	6a7b      	ldr	r3, [r7, #36]	@ 0x24
70006520:	2b00      	cmp	r3, #0
70006522:	d106      	bne.n	70006532 <_txe_byte_pool_create+0xfe>
    {

        /* Call actual byte pool create function.  */
        status =  _tx_byte_pool_create(pool_ptr, name_ptr, pool_start, pool_size);
70006524:	683b      	ldr	r3, [r7, #0]
70006526:	687a      	ldr	r2, [r7, #4]
70006528:	68b9      	ldr	r1, [r7, #8]
7000652a:	68f8      	ldr	r0, [r7, #12]
7000652c:	f7fe fd12 	bl	70004f54 <_tx_byte_pool_create>
70006530:	6278      	str	r0, [r7, #36]	@ 0x24
    }

    /* Return completion status.  */
    return(status);
70006532:	6a7b      	ldr	r3, [r7, #36]	@ 0x24
}
70006534:	4618      	mov	r0, r3
70006536:	372c      	adds	r7, #44	@ 0x2c
70006538:	46bd      	mov	sp, r7
7000653a:	bd90      	pop	{r4, r7, pc}
7000653c:	24008478 	.word	0x24008478
70006540:	240083d0 	.word	0x240083d0
70006544:	240083d4 	.word	0x240083d4
70006548:	240083e0 	.word	0x240083e0
7000654c:	2400852c 	.word	0x2400852c
70006550:	2400000c 	.word	0x2400000c

70006554 <_txe_thread_create>:
UINT    _txe_thread_create(TX_THREAD *thread_ptr, CHAR *name_ptr,
                VOID (*entry_function)(ULONG id), ULONG entry_input,
                VOID *stack_start, ULONG stack_size,
                UINT priority, UINT preempt_threshold,
                ULONG time_slice, UINT auto_start, UINT thread_control_block_size)
{
70006554:	b590      	push	{r4, r7, lr}
70006556:	b095      	sub	sp, #84	@ 0x54
70006558:	af06      	add	r7, sp, #24
7000655a:	60f8      	str	r0, [r7, #12]
7000655c:	60b9      	str	r1, [r7, #8]
7000655e:	607a      	str	r2, [r7, #4]
70006560:	603b      	str	r3, [r7, #0]
TX_THREAD       *current_thread;
#endif


    /* Default status to success.  */
    status =  TX_SUCCESS;
70006562:	2300      	movs	r3, #0
70006564:	637b      	str	r3, [r7, #52]	@ 0x34

    /* Check for an invalid thread pointer.  */
    if (thread_ptr == TX_NULL)
70006566:	68fb      	ldr	r3, [r7, #12]
70006568:	2b00      	cmp	r3, #0
7000656a:	d102      	bne.n	70006572 <_txe_thread_create+0x1e>
    {

        /* Thread pointer is invalid, return appropriate error code.  */
        status =  TX_THREAD_ERROR;
7000656c:	230e      	movs	r3, #14
7000656e:	637b      	str	r3, [r7, #52]	@ 0x34
70006570:	e0ab      	b.n	700066ca <_txe_thread_create+0x176>
    }

    /* Now check for invalid thread control block size.  */
    else if (thread_control_block_size != (sizeof(TX_THREAD)))
70006572:	6e3b      	ldr	r3, [r7, #96]	@ 0x60
70006574:	2bb0      	cmp	r3, #176	@ 0xb0
70006576:	d002      	beq.n	7000657e <_txe_thread_create+0x2a>
    {

        /* Thread pointer is invalid, return appropriate error code.  */
        status =  TX_THREAD_ERROR;
70006578:	230e      	movs	r3, #14
7000657a:	637b      	str	r3, [r7, #52]	@ 0x34
7000657c:	e0a5      	b.n	700066ca <_txe_thread_create+0x176>
    }
    else
    {

        /* Disable interrupts.  */
        TX_DISABLE
7000657e:	f7f9 fef7 	bl	70000370 <_tx_thread_interrupt_disable>
70006582:	4604      	mov	r4, r0

        /* Increment the preempt disable flag.  */
        _tx_thread_preempt_disable++;
70006584:	4b5e      	ldr	r3, [pc, #376]	@ (70006700 <_txe_thread_create+0x1ac>)
70006586:	681b      	ldr	r3, [r3, #0]
70006588:	3301      	adds	r3, #1
7000658a:	4a5d      	ldr	r2, [pc, #372]	@ (70006700 <_txe_thread_create+0x1ac>)
7000658c:	6013      	str	r3, [r2, #0]

        /* Restore interrupts.  */
        TX_RESTORE
7000658e:	4620      	mov	r0, r4
70006590:	f7f9 fef6 	bl	70000380 <_tx_thread_interrupt_restore>

        /* Next see if it is already in the created list.  */
        break_flag =   TX_FALSE;
70006594:	2300      	movs	r3, #0
70006596:	633b      	str	r3, [r7, #48]	@ 0x30
        next_thread =  _tx_thread_created_ptr;
70006598:	4b5a      	ldr	r3, [pc, #360]	@ (70006704 <_txe_thread_create+0x1b0>)
7000659a:	681b      	ldr	r3, [r3, #0]
7000659c:	62bb      	str	r3, [r7, #40]	@ 0x28
        work_ptr =     TX_VOID_TO_UCHAR_POINTER_CONVERT(stack_start);
7000659e:	6cbb      	ldr	r3, [r7, #72]	@ 0x48
700065a0:	627b      	str	r3, [r7, #36]	@ 0x24
        work_ptr =     TX_UCHAR_POINTER_ADD(work_ptr, (stack_size - ((ULONG) 1)));
700065a2:	6cfb      	ldr	r3, [r7, #76]	@ 0x4c
700065a4:	3b01      	subs	r3, #1
700065a6:	6a7a      	ldr	r2, [r7, #36]	@ 0x24
700065a8:	4413      	add	r3, r2
700065aa:	627b      	str	r3, [r7, #36]	@ 0x24
        stack_end =    TX_UCHAR_TO_VOID_POINTER_CONVERT(work_ptr);
700065ac:	6a7b      	ldr	r3, [r7, #36]	@ 0x24
700065ae:	623b      	str	r3, [r7, #32]
        for (i = ((ULONG) 0); i < _tx_thread_created_count; i++)
700065b0:	2300      	movs	r3, #0
700065b2:	62fb      	str	r3, [r7, #44]	@ 0x2c
700065b4:	e02b      	b.n	7000660e <_txe_thread_create+0xba>
        {

            /* Determine if this thread matches the thread in the list.  */
            if (thread_ptr == next_thread)
700065b6:	68fa      	ldr	r2, [r7, #12]
700065b8:	6abb      	ldr	r3, [r7, #40]	@ 0x28
700065ba:	429a      	cmp	r2, r3
700065bc:	d101      	bne.n	700065c2 <_txe_thread_create+0x6e>
            {

                /* Set the break flag.  */
                break_flag =  TX_TRUE;
700065be:	2301      	movs	r3, #1
700065c0:	633b      	str	r3, [r7, #48]	@ 0x30
            }

            /* Determine if we need to break the loop.  */
            if (break_flag == TX_TRUE)
700065c2:	6b3b      	ldr	r3, [r7, #48]	@ 0x30
700065c4:	2b01      	cmp	r3, #1
700065c6:	d028      	beq.n	7000661a <_txe_thread_create+0xc6>
                /* Yes, break out of the loop.  */
                break;
            }

            /* Check the stack pointer to see if it overlaps with this thread's stack.  */
            if (stack_start >= next_thread -> tx_thread_stack_start)
700065c8:	6abb      	ldr	r3, [r7, #40]	@ 0x28
700065ca:	68db      	ldr	r3, [r3, #12]
700065cc:	6cba      	ldr	r2, [r7, #72]	@ 0x48
700065ce:	429a      	cmp	r2, r3
700065d0:	d308      	bcc.n	700065e4 <_txe_thread_create+0x90>
            {

                if (stack_start < next_thread -> tx_thread_stack_end)
700065d2:	6abb      	ldr	r3, [r7, #40]	@ 0x28
700065d4:	691b      	ldr	r3, [r3, #16]
700065d6:	6cba      	ldr	r2, [r7, #72]	@ 0x48
700065d8:	429a      	cmp	r2, r3
700065da:	d203      	bcs.n	700065e4 <_txe_thread_create+0x90>
                {

                    /* This stack overlaps with an existing thread, clear the stack pointer to
                       force a stack error below.  */
                    stack_start =  TX_NULL;
700065dc:	2300      	movs	r3, #0
700065de:	64bb      	str	r3, [r7, #72]	@ 0x48

                    /* Set the break flag.  */
                    break_flag =  TX_TRUE;
700065e0:	2301      	movs	r3, #1
700065e2:	633b      	str	r3, [r7, #48]	@ 0x30
                }
            }

            /* Check the end of the stack to see if it is inside this thread's stack area as well.  */
            if (stack_end >= next_thread -> tx_thread_stack_start)
700065e4:	6abb      	ldr	r3, [r7, #40]	@ 0x28
700065e6:	68db      	ldr	r3, [r3, #12]
700065e8:	6a3a      	ldr	r2, [r7, #32]
700065ea:	429a      	cmp	r2, r3
700065ec:	d308      	bcc.n	70006600 <_txe_thread_create+0xac>
            {

                if (stack_end < next_thread -> tx_thread_stack_end)
700065ee:	6abb      	ldr	r3, [r7, #40]	@ 0x28
700065f0:	691b      	ldr	r3, [r3, #16]
700065f2:	6a3a      	ldr	r2, [r7, #32]
700065f4:	429a      	cmp	r2, r3
700065f6:	d203      	bcs.n	70006600 <_txe_thread_create+0xac>
                {

                    /* This stack overlaps with an existing thread, clear the stack pointer to
                       force a stack error below.  */
                    stack_start =  TX_NULL;
700065f8:	2300      	movs	r3, #0
700065fa:	64bb      	str	r3, [r7, #72]	@ 0x48

                    /* Set the break flag.  */
                    break_flag =  TX_TRUE;
700065fc:	2301      	movs	r3, #1
700065fe:	633b      	str	r3, [r7, #48]	@ 0x30
                }
            }

            /* Move to the next thread.  */
            next_thread =  next_thread -> tx_thread_created_next;
70006600:	6abb      	ldr	r3, [r7, #40]	@ 0x28
70006602:	f8d3 3088 	ldr.w	r3, [r3, #136]	@ 0x88
70006606:	62bb      	str	r3, [r7, #40]	@ 0x28
        for (i = ((ULONG) 0); i < _tx_thread_created_count; i++)
70006608:	6afb      	ldr	r3, [r7, #44]	@ 0x2c
7000660a:	3301      	adds	r3, #1
7000660c:	62fb      	str	r3, [r7, #44]	@ 0x2c
7000660e:	4b3e      	ldr	r3, [pc, #248]	@ (70006708 <_txe_thread_create+0x1b4>)
70006610:	681b      	ldr	r3, [r3, #0]
70006612:	6afa      	ldr	r2, [r7, #44]	@ 0x2c
70006614:	429a      	cmp	r2, r3
70006616:	d3ce      	bcc.n	700065b6 <_txe_thread_create+0x62>
70006618:	e000      	b.n	7000661c <_txe_thread_create+0xc8>
                break;
7000661a:	bf00      	nop
        }

        /* Disable interrupts.  */
        TX_DISABLE
7000661c:	f7f9 fea8 	bl	70000370 <_tx_thread_interrupt_disable>
70006620:	4604      	mov	r4, r0

        /* Decrement the preempt disable flag.  */
        _tx_thread_preempt_disable--;
70006622:	4b37      	ldr	r3, [pc, #220]	@ (70006700 <_txe_thread_create+0x1ac>)
70006624:	681b      	ldr	r3, [r3, #0]
70006626:	3b01      	subs	r3, #1
70006628:	4a35      	ldr	r2, [pc, #212]	@ (70006700 <_txe_thread_create+0x1ac>)
7000662a:	6013      	str	r3, [r2, #0]

        /* Restore interrupts.  */
        TX_RESTORE
7000662c:	4620      	mov	r0, r4
7000662e:	f7f9 fea7 	bl	70000380 <_tx_thread_interrupt_restore>

        /* Check for preemption.  */
        _tx_thread_system_preempt_check();
70006632:	f7fe fff3 	bl	7000561c <_tx_thread_system_preempt_check>

        /* At this point, check to see if there is a duplicate thread.  */
        if (thread_ptr == next_thread)
70006636:	68fa      	ldr	r2, [r7, #12]
70006638:	6abb      	ldr	r3, [r7, #40]	@ 0x28
7000663a:	429a      	cmp	r2, r3
7000663c:	d102      	bne.n	70006644 <_txe_thread_create+0xf0>
        {

            /* Thread is already created, return appropriate error code.  */
            status =  TX_THREAD_ERROR;
7000663e:	230e      	movs	r3, #14
70006640:	637b      	str	r3, [r7, #52]	@ 0x34
70006642:	e042      	b.n	700066ca <_txe_thread_create+0x176>
        }

        /* Check for invalid starting address of stack.  */
        else if (stack_start == TX_NULL)
70006644:	6cbb      	ldr	r3, [r7, #72]	@ 0x48
70006646:	2b00      	cmp	r3, #0
70006648:	d102      	bne.n	70006650 <_txe_thread_create+0xfc>
        {

            /* Invalid stack or entry point, return appropriate error code.  */
            status =  TX_PTR_ERROR;
7000664a:	2303      	movs	r3, #3
7000664c:	637b      	str	r3, [r7, #52]	@ 0x34
7000664e:	e03c      	b.n	700066ca <_txe_thread_create+0x176>
        }

        /* Check for invalid thread entry point.  */
        else if (entry_function == TX_NULL)
70006650:	687b      	ldr	r3, [r7, #4]
70006652:	2b00      	cmp	r3, #0
70006654:	d102      	bne.n	7000665c <_txe_thread_create+0x108>
        {

            /* Invalid stack or entry point, return appropriate error code.  */
            status =  TX_PTR_ERROR;
70006656:	2303      	movs	r3, #3
70006658:	637b      	str	r3, [r7, #52]	@ 0x34
7000665a:	e036      	b.n	700066ca <_txe_thread_create+0x176>
        }

        /* Check the stack size.  */
        else if (stack_size < ((ULONG) TX_MINIMUM_STACK))
7000665c:	6cfb      	ldr	r3, [r7, #76]	@ 0x4c
7000665e:	2bff      	cmp	r3, #255	@ 0xff
70006660:	d802      	bhi.n	70006668 <_txe_thread_create+0x114>
        {

            /* Stack is not big enough, return appropriate error code.  */
            status =  TX_SIZE_ERROR;
70006662:	2305      	movs	r3, #5
70006664:	637b      	str	r3, [r7, #52]	@ 0x34
70006666:	e030      	b.n	700066ca <_txe_thread_create+0x176>
        }

        /* Check the priority specified.  */
        else if (priority >= ((UINT) TX_MAX_PRIORITIES))
70006668:	6d3b      	ldr	r3, [r7, #80]	@ 0x50
7000666a:	2b1f      	cmp	r3, #31
7000666c:	d902      	bls.n	70006674 <_txe_thread_create+0x120>
        {

            /* Invalid priority selected, return appropriate error code.  */
            status =  TX_PRIORITY_ERROR;
7000666e:	230f      	movs	r3, #15
70006670:	637b      	str	r3, [r7, #52]	@ 0x34
70006672:	e02a      	b.n	700066ca <_txe_thread_create+0x176>
        }

        /* Check preemption threshold. */
        else if (preempt_threshold > priority)
70006674:	6d7a      	ldr	r2, [r7, #84]	@ 0x54
70006676:	6d3b      	ldr	r3, [r7, #80]	@ 0x50
70006678:	429a      	cmp	r2, r3
7000667a:	d902      	bls.n	70006682 <_txe_thread_create+0x12e>
        {

            /* Invalid preempt threshold, return appropriate error code.  */
            status =  TX_THRESH_ERROR;
7000667c:	2318      	movs	r3, #24
7000667e:	637b      	str	r3, [r7, #52]	@ 0x34
70006680:	e023      	b.n	700066ca <_txe_thread_create+0x176>
        }

        /* Check the start selection.  */
        else if (auto_start > TX_AUTO_START)
70006682:	6dfb      	ldr	r3, [r7, #92]	@ 0x5c
70006684:	2b01      	cmp	r3, #1
70006686:	d902      	bls.n	7000668e <_txe_thread_create+0x13a>
        {

            /* Invalid auto start selection, return appropriate error code.  */
            status =  TX_START_ERROR;
70006688:	2310      	movs	r3, #16
7000668a:	637b      	str	r3, [r7, #52]	@ 0x34
7000668c:	e01d      	b.n	700066ca <_txe_thread_create+0x176>
        {

#ifndef TX_TIMER_PROCESS_IN_ISR

            /* Pickup thread pointer.  */
            TX_THREAD_GET_CURRENT(current_thread)
7000668e:	4b1f      	ldr	r3, [pc, #124]	@ (7000670c <_txe_thread_create+0x1b8>)
70006690:	681b      	ldr	r3, [r3, #0]
70006692:	61fb      	str	r3, [r7, #28]

            /* Check for invalid caller of this function.  First check for a calling thread.  */
            if (current_thread == &_tx_timer_thread)
70006694:	69fb      	ldr	r3, [r7, #28]
70006696:	4a1e      	ldr	r2, [pc, #120]	@ (70006710 <_txe_thread_create+0x1bc>)
70006698:	4293      	cmp	r3, r2
7000669a:	d101      	bne.n	700066a0 <_txe_thread_create+0x14c>
            {

                /* Invalid caller of this function, return appropriate error code.  */
                status =  TX_CALLER_ERROR;
7000669c:	2313      	movs	r3, #19
7000669e:	637b      	str	r3, [r7, #52]	@ 0x34
    __asm__ volatile (" MRS  %0,IPSR ": "=r" (ipsr_value) );
700066a0:	f3ef 8305 	mrs	r3, IPSR
700066a4:	61bb      	str	r3, [r7, #24]
    return(ipsr_value);
700066a6:	69ba      	ldr	r2, [r7, #24]
            }
#endif

            /* Check for interrupt call.  */
            if (TX_THREAD_GET_SYSTEM_STATE() != ((ULONG) 0))
700066a8:	4b1a      	ldr	r3, [pc, #104]	@ (70006714 <_txe_thread_create+0x1c0>)
700066aa:	681b      	ldr	r3, [r3, #0]
700066ac:	4313      	orrs	r3, r2
700066ae:	2b00      	cmp	r3, #0
700066b0:	d00b      	beq.n	700066ca <_txe_thread_create+0x176>
    __asm__ volatile (" MRS  %0,IPSR ": "=r" (ipsr_value) );
700066b2:	f3ef 8305 	mrs	r3, IPSR
700066b6:	617b      	str	r3, [r7, #20]
    return(ipsr_value);
700066b8:	697a      	ldr	r2, [r7, #20]
            {

                /* Now, make sure the call is from an interrupt and not initialization.  */
                if (TX_THREAD_GET_SYSTEM_STATE() < TX_INITIALIZE_IN_PROGRESS)
700066ba:	4b16      	ldr	r3, [pc, #88]	@ (70006714 <_txe_thread_create+0x1c0>)
700066bc:	681b      	ldr	r3, [r3, #0]
700066be:	4313      	orrs	r3, r2
700066c0:	f1b3 3ff0 	cmp.w	r3, #4042322160	@ 0xf0f0f0f0
700066c4:	d201      	bcs.n	700066ca <_txe_thread_create+0x176>
                {

                    /* Invalid caller of this function, return appropriate error code.  */
                    status =  TX_CALLER_ERROR;
700066c6:	2313      	movs	r3, #19
700066c8:	637b      	str	r3, [r7, #52]	@ 0x34
            }
        }
    }

    /* Determine if everything is okay.  */
    if (status == TX_SUCCESS)
700066ca:	6b7b      	ldr	r3, [r7, #52]	@ 0x34
700066cc:	2b00      	cmp	r3, #0
700066ce:	d112      	bne.n	700066f6 <_txe_thread_create+0x1a2>
    {

        /* Call actual thread create function.  */
        status =  _tx_thread_create(thread_ptr, name_ptr, entry_function, entry_input,
700066d0:	6dfb      	ldr	r3, [r7, #92]	@ 0x5c
700066d2:	9305      	str	r3, [sp, #20]
700066d4:	6dbb      	ldr	r3, [r7, #88]	@ 0x58
700066d6:	9304      	str	r3, [sp, #16]
700066d8:	6d7b      	ldr	r3, [r7, #84]	@ 0x54
700066da:	9303      	str	r3, [sp, #12]
700066dc:	6d3b      	ldr	r3, [r7, #80]	@ 0x50
700066de:	9302      	str	r3, [sp, #8]
700066e0:	6cfb      	ldr	r3, [r7, #76]	@ 0x4c
700066e2:	9301      	str	r3, [sp, #4]
700066e4:	6cbb      	ldr	r3, [r7, #72]	@ 0x48
700066e6:	9300      	str	r3, [sp, #0]
700066e8:	683b      	ldr	r3, [r7, #0]
700066ea:	687a      	ldr	r2, [r7, #4]
700066ec:	68b9      	ldr	r1, [r7, #8]
700066ee:	68f8      	ldr	r0, [r7, #12]
700066f0:	f7fe fd2c 	bl	7000514c <_tx_thread_create>
700066f4:	6378      	str	r0, [r7, #52]	@ 0x34
                        stack_start, stack_size, priority, preempt_threshold,
                        time_slice, auto_start);
    }

    /* Return completion status.  */
    return(status);
700066f6:	6b7b      	ldr	r3, [r7, #52]	@ 0x34
}
700066f8:	4618      	mov	r0, r3
700066fa:	373c      	adds	r7, #60	@ 0x3c
700066fc:	46bd      	mov	sp, r7
700066fe:	bd90      	pop	{r4, r7, pc}
70006700:	24008478 	.word	0x24008478
70006704:	240083e8 	.word	0x240083e8
70006708:	240083ec 	.word	0x240083ec
7000670c:	240083e0 	.word	0x240083e0
70006710:	2400852c 	.word	0x2400852c
70006714:	2400000c 	.word	0x2400000c

70006718 <memset>:
70006718:	4402      	add	r2, r0
7000671a:	4603      	mov	r3, r0
7000671c:	4293      	cmp	r3, r2
7000671e:	d100      	bne.n	70006722 <memset+0xa>
70006720:	4770      	bx	lr
70006722:	f803 1b01 	strb.w	r1, [r3], #1
70006726:	e7f9      	b.n	7000671c <memset+0x4>

70006728 <__libc_init_array>:
70006728:	b570      	push	{r4, r5, r6, lr}
7000672a:	4d0d      	ldr	r5, [pc, #52]	@ (70006760 <__libc_init_array+0x38>)
7000672c:	4c0d      	ldr	r4, [pc, #52]	@ (70006764 <__libc_init_array+0x3c>)
7000672e:	1b64      	subs	r4, r4, r5
70006730:	10a4      	asrs	r4, r4, #2
70006732:	2600      	movs	r6, #0
70006734:	42a6      	cmp	r6, r4
70006736:	d109      	bne.n	7000674c <__libc_init_array+0x24>
70006738:	4d0b      	ldr	r5, [pc, #44]	@ (70006768 <__libc_init_array+0x40>)
7000673a:	4c0c      	ldr	r4, [pc, #48]	@ (7000676c <__libc_init_array+0x44>)
7000673c:	f000 f818 	bl	70006770 <_init>
70006740:	1b64      	subs	r4, r4, r5
70006742:	10a4      	asrs	r4, r4, #2
70006744:	2600      	movs	r6, #0
70006746:	42a6      	cmp	r6, r4
70006748:	d105      	bne.n	70006756 <__libc_init_array+0x2e>
7000674a:	bd70      	pop	{r4, r5, r6, pc}
7000674c:	f855 3b04 	ldr.w	r3, [r5], #4
70006750:	4798      	blx	r3
70006752:	3601      	adds	r6, #1
70006754:	e7ee      	b.n	70006734 <__libc_init_array+0xc>
70006756:	f855 3b04 	ldr.w	r3, [r5], #4
7000675a:	4798      	blx	r3
7000675c:	3601      	adds	r6, #1
7000675e:	e7f2      	b.n	70006746 <__libc_init_array+0x1e>
70006760:	70006a74 	.word	0x70006a74
70006764:	70006a74 	.word	0x70006a74
70006768:	70006a74 	.word	0x70006a74
7000676c:	70006a78 	.word	0x70006a78

70006770 <_init>:
70006770:	b5f8      	push	{r3, r4, r5, r6, r7, lr}
70006772:	bf00      	nop
70006774:	bcf8      	pop	{r3, r4, r5, r6, r7}
70006776:	bc08      	pop	{r3}
70006778:	469e      	mov	lr, r3
7000677a:	4770      	bx	lr

7000677c <_fini>:
7000677c:	b5f8      	push	{r3, r4, r5, r6, r7, lr}
7000677e:	bf00      	nop
70006780:	bcf8      	pop	{r3, r4, r5, r6, r7}
70006782:	bc08      	pop	{r3}
70006784:	469e      	mov	lr, r3
70006786:	4770      	bx	lr
